ARM GAS  /tmp/ccwYF4dg.s 			page 1


   1              		.cpu cortex-m4
   2              		.eabi_attribute 27, 1
   3              		.eabi_attribute 28, 1
   4              		.eabi_attribute 20, 1
   5              		.eabi_attribute 21, 1
   6              		.eabi_attribute 23, 3
   7              		.eabi_attribute 24, 1
   8              		.eabi_attribute 25, 1
   9              		.eabi_attribute 26, 1
  10              		.eabi_attribute 30, 1
  11              		.eabi_attribute 34, 1
  12              		.eabi_attribute 18, 4
  13              		.file	"main.c"
  14              		.text
  15              	.Ltext0:
  16              		.cfi_sections	.debug_frame
  17              		.section	.text.user_button_callback,"ax",%progbits
  18              		.align	1
  19              		.global	user_button_callback
  20              		.arch armv7e-m
  21              		.syntax unified
  22              		.thumb
  23              		.thumb_func
  24              		.fpu fpv4-sp-d16
  26              	user_button_callback:
  27              	.LFB724:
  28              		.file 1 "../Core/Src/main.c"
   1:../Core/Src/main.c **** /* USER CODE BEGIN Header */
   2:../Core/Src/main.c **** /**
   3:../Core/Src/main.c ****   ******************************************************************************
   4:../Core/Src/main.c ****   * @file           : main.c
   5:../Core/Src/main.c ****   * @brief          : Main program body
   6:../Core/Src/main.c ****   ******************************************************************************
   7:../Core/Src/main.c ****   * @attention
   8:../Core/Src/main.c ****   *
   9:../Core/Src/main.c ****   * Copyright (c) 2023 STMicroelectronics.
  10:../Core/Src/main.c ****   * All rights reserved.
  11:../Core/Src/main.c ****   *
  12:../Core/Src/main.c ****   * This software is licensed under terms that can be found in the LICENSE file
  13:../Core/Src/main.c ****   * in the root directory of this software component.
  14:../Core/Src/main.c ****   * If no LICENSE file comes with this software, it is provided AS-IS.
  15:../Core/Src/main.c ****   *
  16:../Core/Src/main.c ****   ******************************************************************************
  17:../Core/Src/main.c ****   */
  18:../Core/Src/main.c **** /* USER CODE END Header */
  19:../Core/Src/main.c **** /* Includes ------------------------------------------------------------------*/
  20:../Core/Src/main.c **** #include "main.h"
  21:../Core/Src/main.c **** #include "usart.h"
  22:../Core/Src/main.c **** #include "usb_otg.h"
  23:../Core/Src/main.c **** #include "gpio.h"
  24:../Core/Src/main.c **** 
  25:../Core/Src/main.c **** /* Private includes ----------------------------------------------------------*/
  26:../Core/Src/main.c **** /* USER CODE BEGIN Includes */
  27:../Core/Src/main.c **** 
  28:../Core/Src/main.c **** /* USER CODE END Includes */
  29:../Core/Src/main.c **** 
  30:../Core/Src/main.c **** /* Private typedef -----------------------------------------------------------*/
ARM GAS  /tmp/ccwYF4dg.s 			page 2


  31:../Core/Src/main.c **** /* USER CODE BEGIN PTD */
  32:../Core/Src/main.c **** 
  33:../Core/Src/main.c **** /* USER CODE END PTD */
  34:../Core/Src/main.c **** 
  35:../Core/Src/main.c **** /* Private define ------------------------------------------------------------*/
  36:../Core/Src/main.c **** /* USER CODE BEGIN PD */
  37:../Core/Src/main.c **** /* USER CODE END PD */
  38:../Core/Src/main.c **** 
  39:../Core/Src/main.c **** /* Private macro -------------------------------------------------------------*/
  40:../Core/Src/main.c **** /* USER CODE BEGIN PM */
  41:../Core/Src/main.c **** 
  42:../Core/Src/main.c **** /* USER CODE END PM */
  43:../Core/Src/main.c **** 
  44:../Core/Src/main.c **** /* Private variables ---------------------------------------------------------*/
  45:../Core/Src/main.c **** 
  46:../Core/Src/main.c **** /* USER CODE BEGIN PV */
  47:../Core/Src/main.c **** 
  48:../Core/Src/main.c **** /* USER CODE END PV */
  49:../Core/Src/main.c **** 
  50:../Core/Src/main.c **** /* Private function prototypes -----------------------------------------------*/
  51:../Core/Src/main.c **** void SystemClock_Config(void);
  52:../Core/Src/main.c **** /* USER CODE BEGIN PFP */
  53:../Core/Src/main.c **** 
  54:../Core/Src/main.c **** /* USER CODE END PFP */
  55:../Core/Src/main.c **** 
  56:../Core/Src/main.c **** /* Private user code ---------------------------------------------------------*/
  57:../Core/Src/main.c **** /* USER CODE BEGIN 0 */
  58:../Core/Src/main.c **** __IO uint8_t ubButtonPress = 0;
  59:../Core/Src/main.c **** __IO uint8_t index_v = 0;
  60:../Core/Src/main.c **** const uint8_t NUM_OF_FLASHING_PERIODS = 3;
  61:../Core/Src/main.c **** __IO uint16_t period_ms[] = {111, 333, 999};
  62:../Core/Src/main.c **** void user_button_callback(void)
  63:../Core/Src/main.c **** {
  29              		.loc 1 63 1 view -0
  30              		.cfi_startproc
  31              		@ args = 0, pretend = 0, frame = 0
  32              		@ frame_needed = 0, uses_anonymous_args = 0
  33              		@ link register save eliminated.
  64:../Core/Src/main.c ****   /* Update button press variable : to be checked in waiting loop in main program */
  65:../Core/Src/main.c ****   index_v += 1;
  34              		.loc 1 65 3 view .LVU1
  35              		.loc 1 65 11 is_stmt 0 view .LVU2
  36 0000 084A     		ldr	r2, .L2
  37 0002 1378     		ldrb	r3, [r2]	@ zero_extendqisi2
  38 0004 0133     		adds	r3, r3, #1
  39 0006 DBB2     		uxtb	r3, r3
  40 0008 1370     		strb	r3, [r2]
  66:../Core/Src/main.c ****   index_v = index_v % NUM_OF_FLASHING_PERIODS;
  41              		.loc 1 66 3 is_stmt 1 view .LVU3
  42              		.loc 1 66 11 is_stmt 0 view .LVU4
  43 000a 1378     		ldrb	r3, [r2]	@ zero_extendqisi2
  44 000c DBB2     		uxtb	r3, r3
  45 000e 0649     		ldr	r1, .L2+4
  46 0010 A1FB0301 		umull	r0, r1, r1, r3
  47 0014 01F0FE00 		and	r0, r1, #254
  48 0018 00EB5101 		add	r1, r0, r1, lsr #1
  49 001c 5B1A     		subs	r3, r3, r1
ARM GAS  /tmp/ccwYF4dg.s 			page 3


  50 001e DBB2     		uxtb	r3, r3
  51 0020 1370     		strb	r3, [r2]
  67:../Core/Src/main.c **** }
  52              		.loc 1 67 1 view .LVU5
  53 0022 7047     		bx	lr
  54              	.L3:
  55              		.align	2
  56              	.L2:
  57 0024 00000000 		.word	.LANCHOR0
  58 0028 ABAAAAAA 		.word	-1431655765
  59              		.cfi_endproc
  60              	.LFE724:
  62              		.section	.text.Error_Handler,"ax",%progbits
  63              		.align	1
  64              		.global	Error_Handler
  65              		.syntax unified
  66              		.thumb
  67              		.thumb_func
  68              		.fpu fpv4-sp-d16
  70              	Error_Handler:
  71              	.LFB727:
  68:../Core/Src/main.c **** /* USER CODE END 0 */
  69:../Core/Src/main.c **** 
  70:../Core/Src/main.c **** /**
  71:../Core/Src/main.c ****   * @brief  The application entry point.
  72:../Core/Src/main.c ****   * @retval int
  73:../Core/Src/main.c ****   */
  74:../Core/Src/main.c **** int main(void)
  75:../Core/Src/main.c **** {
  76:../Core/Src/main.c ****   /* USER CODE BEGIN 1 */
  77:../Core/Src/main.c **** 
  78:../Core/Src/main.c ****   /* USER CODE END 1 */
  79:../Core/Src/main.c **** 
  80:../Core/Src/main.c ****   /* MCU Configuration--------------------------------------------------------*/
  81:../Core/Src/main.c **** 
  82:../Core/Src/main.c ****   /* Reset of all peripherals, Initializes the Flash interface and the Systick. */
  83:../Core/Src/main.c ****   HAL_Init();
  84:../Core/Src/main.c **** 
  85:../Core/Src/main.c ****   /* USER CODE BEGIN Init */
  86:../Core/Src/main.c **** 
  87:../Core/Src/main.c ****   /* USER CODE END Init */
  88:../Core/Src/main.c **** 
  89:../Core/Src/main.c ****   /* Configure the system clock */
  90:../Core/Src/main.c ****   SystemClock_Config();
  91:../Core/Src/main.c **** 
  92:../Core/Src/main.c ****   /* USER CODE BEGIN SysInit */
  93:../Core/Src/main.c **** 
  94:../Core/Src/main.c ****   /* USER CODE END SysInit */
  95:../Core/Src/main.c **** 
  96:../Core/Src/main.c ****   /* Initialize all configured peripherals */
  97:../Core/Src/main.c ****   MX_GPIO_Init();
  98:../Core/Src/main.c ****   MX_LPUART1_UART_Init();
  99:../Core/Src/main.c ****   MX_USB_OTG_FS_PCD_Init();
 100:../Core/Src/main.c ****   MX_USART2_UART_Init();
 101:../Core/Src/main.c ****   /* USER CODE BEGIN 2 */
 102:../Core/Src/main.c **** 
 103:../Core/Src/main.c ****   /* USER CODE END 2 */
ARM GAS  /tmp/ccwYF4dg.s 			page 4


 104:../Core/Src/main.c **** 
 105:../Core/Src/main.c ****   /* Infinite loop */
 106:../Core/Src/main.c ****   /* USER CODE BEGIN WHILE */
 107:../Core/Src/main.c ****   while (1)
 108:../Core/Src/main.c ****   {
 109:../Core/Src/main.c ****     LL_GPIO_TogglePin(GPIOC, LL_GPIO_PIN_7);
 110:../Core/Src/main.c **** 	  HAL_Delay(period_ms[index_v]);
 111:../Core/Src/main.c ****     LL_GPIO_TogglePin(GPIOC, LL_GPIO_PIN_7);
 112:../Core/Src/main.c **** 	  LL_GPIO_TogglePin(GPIOB, LL_GPIO_PIN_7);
 113:../Core/Src/main.c **** 	  HAL_Delay(period_ms[index_v]);
 114:../Core/Src/main.c ****     LL_GPIO_TogglePin(GPIOB, LL_GPIO_PIN_7);
 115:../Core/Src/main.c **** 	  LL_GPIO_TogglePin(GPIOB, LL_GPIO_PIN_14);
 116:../Core/Src/main.c **** 	  HAL_Delay(period_ms[index_v]);
 117:../Core/Src/main.c ****     LL_GPIO_TogglePin(GPIOB, LL_GPIO_PIN_14);
 118:../Core/Src/main.c ****     /* USER CODE END WHILE */
 119:../Core/Src/main.c **** 
 120:../Core/Src/main.c ****     /* USER CODE BEGIN 3 */
 121:../Core/Src/main.c ****   }
 122:../Core/Src/main.c ****   /* USER CODE END 3 */
 123:../Core/Src/main.c **** }
 124:../Core/Src/main.c **** 
 125:../Core/Src/main.c **** /**
 126:../Core/Src/main.c ****   * @brief System Clock Configuration
 127:../Core/Src/main.c ****   * @retval None
 128:../Core/Src/main.c ****   */
 129:../Core/Src/main.c **** void SystemClock_Config(void)
 130:../Core/Src/main.c **** {
 131:../Core/Src/main.c ****   RCC_OscInitTypeDef RCC_OscInitStruct = {0};
 132:../Core/Src/main.c ****   RCC_ClkInitTypeDef RCC_ClkInitStruct = {0};
 133:../Core/Src/main.c **** 
 134:../Core/Src/main.c ****   /** Configure the main internal regulator output voltage
 135:../Core/Src/main.c ****   */
 136:../Core/Src/main.c ****   if (HAL_PWREx_ControlVoltageScaling(PWR_REGULATOR_VOLTAGE_SCALE1) != HAL_OK)
 137:../Core/Src/main.c ****   {
 138:../Core/Src/main.c ****     Error_Handler();
 139:../Core/Src/main.c ****   }
 140:../Core/Src/main.c **** 
 141:../Core/Src/main.c ****   /** Configure LSE Drive Capability
 142:../Core/Src/main.c ****   */
 143:../Core/Src/main.c ****   HAL_PWR_EnableBkUpAccess();
 144:../Core/Src/main.c ****   __HAL_RCC_LSEDRIVE_CONFIG(RCC_LSEDRIVE_LOW);
 145:../Core/Src/main.c **** 
 146:../Core/Src/main.c ****   /** Initializes the RCC Oscillators according to the specified parameters
 147:../Core/Src/main.c ****   * in the RCC_OscInitTypeDef structure.
 148:../Core/Src/main.c ****   */
 149:../Core/Src/main.c ****   RCC_OscInitStruct.OscillatorType = RCC_OSCILLATORTYPE_LSE|RCC_OSCILLATORTYPE_MSI;
 150:../Core/Src/main.c ****   RCC_OscInitStruct.LSEState = RCC_LSE_ON;
 151:../Core/Src/main.c ****   RCC_OscInitStruct.MSIState = RCC_MSI_ON;
 152:../Core/Src/main.c ****   RCC_OscInitStruct.MSICalibrationValue = 0;
 153:../Core/Src/main.c ****   RCC_OscInitStruct.MSIClockRange = RCC_MSIRANGE_6;
 154:../Core/Src/main.c ****   RCC_OscInitStruct.PLL.PLLState = RCC_PLL_ON;
 155:../Core/Src/main.c ****   RCC_OscInitStruct.PLL.PLLSource = RCC_PLLSOURCE_MSI;
 156:../Core/Src/main.c ****   RCC_OscInitStruct.PLL.PLLM = 1;
 157:../Core/Src/main.c ****   RCC_OscInitStruct.PLL.PLLN = 71;
 158:../Core/Src/main.c ****   RCC_OscInitStruct.PLL.PLLP = RCC_PLLP_DIV2;
 159:../Core/Src/main.c ****   RCC_OscInitStruct.PLL.PLLQ = RCC_PLLQ_DIV2;
 160:../Core/Src/main.c ****   RCC_OscInitStruct.PLL.PLLR = RCC_PLLR_DIV6;
ARM GAS  /tmp/ccwYF4dg.s 			page 5


 161:../Core/Src/main.c ****   if (HAL_RCC_OscConfig(&RCC_OscInitStruct) != HAL_OK)
 162:../Core/Src/main.c ****   {
 163:../Core/Src/main.c ****     Error_Handler();
 164:../Core/Src/main.c ****   }
 165:../Core/Src/main.c **** 
 166:../Core/Src/main.c ****   /** Initializes the CPU, AHB and APB buses clocks
 167:../Core/Src/main.c ****   */
 168:../Core/Src/main.c ****   RCC_ClkInitStruct.ClockType = RCC_CLOCKTYPE_HCLK|RCC_CLOCKTYPE_SYSCLK
 169:../Core/Src/main.c ****                               |RCC_CLOCKTYPE_PCLK1|RCC_CLOCKTYPE_PCLK2;
 170:../Core/Src/main.c ****   RCC_ClkInitStruct.SYSCLKSource = RCC_SYSCLKSOURCE_PLLCLK;
 171:../Core/Src/main.c ****   RCC_ClkInitStruct.AHBCLKDivider = RCC_SYSCLK_DIV1;
 172:../Core/Src/main.c ****   RCC_ClkInitStruct.APB1CLKDivider = RCC_HCLK_DIV2;
 173:../Core/Src/main.c ****   RCC_ClkInitStruct.APB2CLKDivider = RCC_HCLK_DIV1;
 174:../Core/Src/main.c **** 
 175:../Core/Src/main.c ****   if (HAL_RCC_ClockConfig(&RCC_ClkInitStruct, FLASH_LATENCY_2) != HAL_OK)
 176:../Core/Src/main.c ****   {
 177:../Core/Src/main.c ****     Error_Handler();
 178:../Core/Src/main.c ****   }
 179:../Core/Src/main.c **** 
 180:../Core/Src/main.c ****   /** Enable MSI Auto calibration
 181:../Core/Src/main.c ****   */
 182:../Core/Src/main.c ****   HAL_RCCEx_EnableMSIPLLMode();
 183:../Core/Src/main.c **** }
 184:../Core/Src/main.c **** 
 185:../Core/Src/main.c **** /* USER CODE BEGIN 4 */
 186:../Core/Src/main.c **** 
 187:../Core/Src/main.c **** /* USER CODE END 4 */
 188:../Core/Src/main.c **** 
 189:../Core/Src/main.c **** /**
 190:../Core/Src/main.c ****   * @brief  This function is executed in case of error occurrence.
 191:../Core/Src/main.c ****   * @retval None
 192:../Core/Src/main.c ****   */
 193:../Core/Src/main.c **** void Error_Handler(void)
 194:../Core/Src/main.c **** {
  72              		.loc 1 194 1 is_stmt 1 view -0
  73              		.cfi_startproc
  74              		@ Volatile: function does not return.
  75              		@ args = 0, pretend = 0, frame = 0
  76              		@ frame_needed = 0, uses_anonymous_args = 0
  77              		@ link register save eliminated.
 195:../Core/Src/main.c ****   /* USER CODE BEGIN Error_Handler_Debug */
 196:../Core/Src/main.c ****   /* User can add his own implementation to report the HAL error return state */
 197:../Core/Src/main.c ****   __disable_irq();
  78              		.loc 1 197 3 view .LVU7
  79              	.LBB16:
  80              	.LBI16:
  81              		.file 2 "../Drivers/CMSIS/Include/cmsis_gcc.h"
   1:../Drivers/CMSIS/Include/cmsis_gcc.h **** /**************************************************************************//**
   2:../Drivers/CMSIS/Include/cmsis_gcc.h ****  * @file     cmsis_gcc.h
   3:../Drivers/CMSIS/Include/cmsis_gcc.h ****  * @brief    CMSIS compiler GCC header file
   4:../Drivers/CMSIS/Include/cmsis_gcc.h ****  * @version  V5.2.0
   5:../Drivers/CMSIS/Include/cmsis_gcc.h ****  * @date     08. May 2019
   6:../Drivers/CMSIS/Include/cmsis_gcc.h ****  ******************************************************************************/
   7:../Drivers/CMSIS/Include/cmsis_gcc.h **** /*
   8:../Drivers/CMSIS/Include/cmsis_gcc.h ****  * Copyright (c) 2009-2019 Arm Limited. All rights reserved.
   9:../Drivers/CMSIS/Include/cmsis_gcc.h ****  *
  10:../Drivers/CMSIS/Include/cmsis_gcc.h ****  * SPDX-License-Identifier: Apache-2.0
ARM GAS  /tmp/ccwYF4dg.s 			page 6


  11:../Drivers/CMSIS/Include/cmsis_gcc.h ****  *
  12:../Drivers/CMSIS/Include/cmsis_gcc.h ****  * Licensed under the Apache License, Version 2.0 (the License); you may
  13:../Drivers/CMSIS/Include/cmsis_gcc.h ****  * not use this file except in compliance with the License.
  14:../Drivers/CMSIS/Include/cmsis_gcc.h ****  * You may obtain a copy of the License at
  15:../Drivers/CMSIS/Include/cmsis_gcc.h ****  *
  16:../Drivers/CMSIS/Include/cmsis_gcc.h ****  * www.apache.org/licenses/LICENSE-2.0
  17:../Drivers/CMSIS/Include/cmsis_gcc.h ****  *
  18:../Drivers/CMSIS/Include/cmsis_gcc.h ****  * Unless required by applicable law or agreed to in writing, software
  19:../Drivers/CMSIS/Include/cmsis_gcc.h ****  * distributed under the License is distributed on an AS IS BASIS, WITHOUT
  20:../Drivers/CMSIS/Include/cmsis_gcc.h ****  * WARRANTIES OR CONDITIONS OF ANY KIND, either express or implied.
  21:../Drivers/CMSIS/Include/cmsis_gcc.h ****  * See the License for the specific language governing permissions and
  22:../Drivers/CMSIS/Include/cmsis_gcc.h ****  * limitations under the License.
  23:../Drivers/CMSIS/Include/cmsis_gcc.h ****  */
  24:../Drivers/CMSIS/Include/cmsis_gcc.h **** 
  25:../Drivers/CMSIS/Include/cmsis_gcc.h **** #ifndef __CMSIS_GCC_H
  26:../Drivers/CMSIS/Include/cmsis_gcc.h **** #define __CMSIS_GCC_H
  27:../Drivers/CMSIS/Include/cmsis_gcc.h **** 
  28:../Drivers/CMSIS/Include/cmsis_gcc.h **** /* ignore some GCC warnings */
  29:../Drivers/CMSIS/Include/cmsis_gcc.h **** #pragma GCC diagnostic push
  30:../Drivers/CMSIS/Include/cmsis_gcc.h **** #pragma GCC diagnostic ignored "-Wsign-conversion"
  31:../Drivers/CMSIS/Include/cmsis_gcc.h **** #pragma GCC diagnostic ignored "-Wconversion"
  32:../Drivers/CMSIS/Include/cmsis_gcc.h **** #pragma GCC diagnostic ignored "-Wunused-parameter"
  33:../Drivers/CMSIS/Include/cmsis_gcc.h **** 
  34:../Drivers/CMSIS/Include/cmsis_gcc.h **** /* Fallback for __has_builtin */
  35:../Drivers/CMSIS/Include/cmsis_gcc.h **** #ifndef __has_builtin
  36:../Drivers/CMSIS/Include/cmsis_gcc.h ****   #define __has_builtin(x) (0)
  37:../Drivers/CMSIS/Include/cmsis_gcc.h **** #endif
  38:../Drivers/CMSIS/Include/cmsis_gcc.h **** 
  39:../Drivers/CMSIS/Include/cmsis_gcc.h **** /* CMSIS compiler specific defines */
  40:../Drivers/CMSIS/Include/cmsis_gcc.h **** #ifndef   __ASM
  41:../Drivers/CMSIS/Include/cmsis_gcc.h ****   #define __ASM                                  __asm
  42:../Drivers/CMSIS/Include/cmsis_gcc.h **** #endif
  43:../Drivers/CMSIS/Include/cmsis_gcc.h **** #ifndef   __INLINE
  44:../Drivers/CMSIS/Include/cmsis_gcc.h ****   #define __INLINE                               inline
  45:../Drivers/CMSIS/Include/cmsis_gcc.h **** #endif
  46:../Drivers/CMSIS/Include/cmsis_gcc.h **** #ifndef   __STATIC_INLINE
  47:../Drivers/CMSIS/Include/cmsis_gcc.h ****   #define __STATIC_INLINE                        static inline
  48:../Drivers/CMSIS/Include/cmsis_gcc.h **** #endif
  49:../Drivers/CMSIS/Include/cmsis_gcc.h **** #ifndef   __STATIC_FORCEINLINE                 
  50:../Drivers/CMSIS/Include/cmsis_gcc.h ****   #define __STATIC_FORCEINLINE                   __attribute__((always_inline)) static inline
  51:../Drivers/CMSIS/Include/cmsis_gcc.h **** #endif                                           
  52:../Drivers/CMSIS/Include/cmsis_gcc.h **** #ifndef   __NO_RETURN
  53:../Drivers/CMSIS/Include/cmsis_gcc.h ****   #define __NO_RETURN                            __attribute__((__noreturn__))
  54:../Drivers/CMSIS/Include/cmsis_gcc.h **** #endif
  55:../Drivers/CMSIS/Include/cmsis_gcc.h **** #ifndef   __USED
  56:../Drivers/CMSIS/Include/cmsis_gcc.h ****   #define __USED                                 __attribute__((used))
  57:../Drivers/CMSIS/Include/cmsis_gcc.h **** #endif
  58:../Drivers/CMSIS/Include/cmsis_gcc.h **** #ifndef   __WEAK
  59:../Drivers/CMSIS/Include/cmsis_gcc.h ****   #define __WEAK                                 __attribute__((weak))
  60:../Drivers/CMSIS/Include/cmsis_gcc.h **** #endif
  61:../Drivers/CMSIS/Include/cmsis_gcc.h **** #ifndef   __PACKED
  62:../Drivers/CMSIS/Include/cmsis_gcc.h ****   #define __PACKED                               __attribute__((packed, aligned(1)))
  63:../Drivers/CMSIS/Include/cmsis_gcc.h **** #endif
  64:../Drivers/CMSIS/Include/cmsis_gcc.h **** #ifndef   __PACKED_STRUCT
  65:../Drivers/CMSIS/Include/cmsis_gcc.h ****   #define __PACKED_STRUCT                        struct __attribute__((packed, aligned(1)))
  66:../Drivers/CMSIS/Include/cmsis_gcc.h **** #endif
  67:../Drivers/CMSIS/Include/cmsis_gcc.h **** #ifndef   __PACKED_UNION
ARM GAS  /tmp/ccwYF4dg.s 			page 7


  68:../Drivers/CMSIS/Include/cmsis_gcc.h ****   #define __PACKED_UNION                         union __attribute__((packed, aligned(1)))
  69:../Drivers/CMSIS/Include/cmsis_gcc.h **** #endif
  70:../Drivers/CMSIS/Include/cmsis_gcc.h **** #ifndef   __UNALIGNED_UINT32        /* deprecated */
  71:../Drivers/CMSIS/Include/cmsis_gcc.h ****   #pragma GCC diagnostic push
  72:../Drivers/CMSIS/Include/cmsis_gcc.h ****   #pragma GCC diagnostic ignored "-Wpacked"
  73:../Drivers/CMSIS/Include/cmsis_gcc.h ****   #pragma GCC diagnostic ignored "-Wattributes"
  74:../Drivers/CMSIS/Include/cmsis_gcc.h ****   struct __attribute__((packed)) T_UINT32 { uint32_t v; };
  75:../Drivers/CMSIS/Include/cmsis_gcc.h ****   #pragma GCC diagnostic pop
  76:../Drivers/CMSIS/Include/cmsis_gcc.h ****   #define __UNALIGNED_UINT32(x)                  (((struct T_UINT32 *)(x))->v)
  77:../Drivers/CMSIS/Include/cmsis_gcc.h **** #endif
  78:../Drivers/CMSIS/Include/cmsis_gcc.h **** #ifndef   __UNALIGNED_UINT16_WRITE
  79:../Drivers/CMSIS/Include/cmsis_gcc.h ****   #pragma GCC diagnostic push
  80:../Drivers/CMSIS/Include/cmsis_gcc.h ****   #pragma GCC diagnostic ignored "-Wpacked"
  81:../Drivers/CMSIS/Include/cmsis_gcc.h ****   #pragma GCC diagnostic ignored "-Wattributes"
  82:../Drivers/CMSIS/Include/cmsis_gcc.h ****   __PACKED_STRUCT T_UINT16_WRITE { uint16_t v; };
  83:../Drivers/CMSIS/Include/cmsis_gcc.h ****   #pragma GCC diagnostic pop
  84:../Drivers/CMSIS/Include/cmsis_gcc.h ****   #define __UNALIGNED_UINT16_WRITE(addr, val)    (void)((((struct T_UINT16_WRITE *)(void *)(addr))-
  85:../Drivers/CMSIS/Include/cmsis_gcc.h **** #endif
  86:../Drivers/CMSIS/Include/cmsis_gcc.h **** #ifndef   __UNALIGNED_UINT16_READ
  87:../Drivers/CMSIS/Include/cmsis_gcc.h ****   #pragma GCC diagnostic push
  88:../Drivers/CMSIS/Include/cmsis_gcc.h ****   #pragma GCC diagnostic ignored "-Wpacked"
  89:../Drivers/CMSIS/Include/cmsis_gcc.h ****   #pragma GCC diagnostic ignored "-Wattributes"
  90:../Drivers/CMSIS/Include/cmsis_gcc.h ****   __PACKED_STRUCT T_UINT16_READ { uint16_t v; };
  91:../Drivers/CMSIS/Include/cmsis_gcc.h ****   #pragma GCC diagnostic pop
  92:../Drivers/CMSIS/Include/cmsis_gcc.h ****   #define __UNALIGNED_UINT16_READ(addr)          (((const struct T_UINT16_READ *)(const void *)(add
  93:../Drivers/CMSIS/Include/cmsis_gcc.h **** #endif
  94:../Drivers/CMSIS/Include/cmsis_gcc.h **** #ifndef   __UNALIGNED_UINT32_WRITE
  95:../Drivers/CMSIS/Include/cmsis_gcc.h ****   #pragma GCC diagnostic push
  96:../Drivers/CMSIS/Include/cmsis_gcc.h ****   #pragma GCC diagnostic ignored "-Wpacked"
  97:../Drivers/CMSIS/Include/cmsis_gcc.h ****   #pragma GCC diagnostic ignored "-Wattributes"
  98:../Drivers/CMSIS/Include/cmsis_gcc.h ****   __PACKED_STRUCT T_UINT32_WRITE { uint32_t v; };
  99:../Drivers/CMSIS/Include/cmsis_gcc.h ****   #pragma GCC diagnostic pop
 100:../Drivers/CMSIS/Include/cmsis_gcc.h ****   #define __UNALIGNED_UINT32_WRITE(addr, val)    (void)((((struct T_UINT32_WRITE *)(void *)(addr))-
 101:../Drivers/CMSIS/Include/cmsis_gcc.h **** #endif
 102:../Drivers/CMSIS/Include/cmsis_gcc.h **** #ifndef   __UNALIGNED_UINT32_READ
 103:../Drivers/CMSIS/Include/cmsis_gcc.h ****   #pragma GCC diagnostic push
 104:../Drivers/CMSIS/Include/cmsis_gcc.h ****   #pragma GCC diagnostic ignored "-Wpacked"
 105:../Drivers/CMSIS/Include/cmsis_gcc.h ****   #pragma GCC diagnostic ignored "-Wattributes"
 106:../Drivers/CMSIS/Include/cmsis_gcc.h ****   __PACKED_STRUCT T_UINT32_READ { uint32_t v; };
 107:../Drivers/CMSIS/Include/cmsis_gcc.h ****   #pragma GCC diagnostic pop
 108:../Drivers/CMSIS/Include/cmsis_gcc.h ****   #define __UNALIGNED_UINT32_READ(addr)          (((const struct T_UINT32_READ *)(const void *)(add
 109:../Drivers/CMSIS/Include/cmsis_gcc.h **** #endif
 110:../Drivers/CMSIS/Include/cmsis_gcc.h **** #ifndef   __ALIGNED
 111:../Drivers/CMSIS/Include/cmsis_gcc.h ****   #define __ALIGNED(x)                           __attribute__((aligned(x)))
 112:../Drivers/CMSIS/Include/cmsis_gcc.h **** #endif
 113:../Drivers/CMSIS/Include/cmsis_gcc.h **** #ifndef   __RESTRICT
 114:../Drivers/CMSIS/Include/cmsis_gcc.h ****   #define __RESTRICT                             __restrict
 115:../Drivers/CMSIS/Include/cmsis_gcc.h **** #endif
 116:../Drivers/CMSIS/Include/cmsis_gcc.h **** #ifndef   __COMPILER_BARRIER
 117:../Drivers/CMSIS/Include/cmsis_gcc.h ****   #define __COMPILER_BARRIER()                   __ASM volatile("":::"memory")
 118:../Drivers/CMSIS/Include/cmsis_gcc.h **** #endif
 119:../Drivers/CMSIS/Include/cmsis_gcc.h **** 
 120:../Drivers/CMSIS/Include/cmsis_gcc.h **** /* #########################  Startup and Lowlevel Init  ######################## */
 121:../Drivers/CMSIS/Include/cmsis_gcc.h **** 
 122:../Drivers/CMSIS/Include/cmsis_gcc.h **** #ifndef __PROGRAM_START
 123:../Drivers/CMSIS/Include/cmsis_gcc.h **** 
 124:../Drivers/CMSIS/Include/cmsis_gcc.h **** /**
ARM GAS  /tmp/ccwYF4dg.s 			page 8


 125:../Drivers/CMSIS/Include/cmsis_gcc.h ****   \brief   Initializes data and bss sections
 126:../Drivers/CMSIS/Include/cmsis_gcc.h ****   \details This default implementations initialized all data and additional bss
 127:../Drivers/CMSIS/Include/cmsis_gcc.h ****            sections relying on .copy.table and .zero.table specified properly
 128:../Drivers/CMSIS/Include/cmsis_gcc.h ****            in the used linker script.
 129:../Drivers/CMSIS/Include/cmsis_gcc.h ****   
 130:../Drivers/CMSIS/Include/cmsis_gcc.h ****  */
 131:../Drivers/CMSIS/Include/cmsis_gcc.h **** __STATIC_FORCEINLINE __NO_RETURN void __cmsis_start(void)
 132:../Drivers/CMSIS/Include/cmsis_gcc.h **** {
 133:../Drivers/CMSIS/Include/cmsis_gcc.h ****   extern void _start(void) __NO_RETURN;
 134:../Drivers/CMSIS/Include/cmsis_gcc.h ****   
 135:../Drivers/CMSIS/Include/cmsis_gcc.h ****   typedef struct {
 136:../Drivers/CMSIS/Include/cmsis_gcc.h ****     uint32_t const* src;
 137:../Drivers/CMSIS/Include/cmsis_gcc.h ****     uint32_t* dest;
 138:../Drivers/CMSIS/Include/cmsis_gcc.h ****     uint32_t  wlen;
 139:../Drivers/CMSIS/Include/cmsis_gcc.h ****   } __copy_table_t;
 140:../Drivers/CMSIS/Include/cmsis_gcc.h ****   
 141:../Drivers/CMSIS/Include/cmsis_gcc.h ****   typedef struct {
 142:../Drivers/CMSIS/Include/cmsis_gcc.h ****     uint32_t* dest;
 143:../Drivers/CMSIS/Include/cmsis_gcc.h ****     uint32_t  wlen;
 144:../Drivers/CMSIS/Include/cmsis_gcc.h ****   } __zero_table_t;
 145:../Drivers/CMSIS/Include/cmsis_gcc.h ****   
 146:../Drivers/CMSIS/Include/cmsis_gcc.h ****   extern const __copy_table_t __copy_table_start__;
 147:../Drivers/CMSIS/Include/cmsis_gcc.h ****   extern const __copy_table_t __copy_table_end__;
 148:../Drivers/CMSIS/Include/cmsis_gcc.h ****   extern const __zero_table_t __zero_table_start__;
 149:../Drivers/CMSIS/Include/cmsis_gcc.h ****   extern const __zero_table_t __zero_table_end__;
 150:../Drivers/CMSIS/Include/cmsis_gcc.h **** 
 151:../Drivers/CMSIS/Include/cmsis_gcc.h ****   for (__copy_table_t const* pTable = &__copy_table_start__; pTable < &__copy_table_end__; ++pTable
 152:../Drivers/CMSIS/Include/cmsis_gcc.h ****     for(uint32_t i=0u; i<pTable->wlen; ++i) {
 153:../Drivers/CMSIS/Include/cmsis_gcc.h ****       pTable->dest[i] = pTable->src[i];
 154:../Drivers/CMSIS/Include/cmsis_gcc.h ****     }
 155:../Drivers/CMSIS/Include/cmsis_gcc.h ****   }
 156:../Drivers/CMSIS/Include/cmsis_gcc.h ****  
 157:../Drivers/CMSIS/Include/cmsis_gcc.h ****   for (__zero_table_t const* pTable = &__zero_table_start__; pTable < &__zero_table_end__; ++pTable
 158:../Drivers/CMSIS/Include/cmsis_gcc.h ****     for(uint32_t i=0u; i<pTable->wlen; ++i) {
 159:../Drivers/CMSIS/Include/cmsis_gcc.h ****       pTable->dest[i] = 0u;
 160:../Drivers/CMSIS/Include/cmsis_gcc.h ****     }
 161:../Drivers/CMSIS/Include/cmsis_gcc.h ****   }
 162:../Drivers/CMSIS/Include/cmsis_gcc.h ****  
 163:../Drivers/CMSIS/Include/cmsis_gcc.h ****   _start();
 164:../Drivers/CMSIS/Include/cmsis_gcc.h **** }
 165:../Drivers/CMSIS/Include/cmsis_gcc.h ****   
 166:../Drivers/CMSIS/Include/cmsis_gcc.h **** #define __PROGRAM_START           __cmsis_start
 167:../Drivers/CMSIS/Include/cmsis_gcc.h **** #endif
 168:../Drivers/CMSIS/Include/cmsis_gcc.h **** 
 169:../Drivers/CMSIS/Include/cmsis_gcc.h **** #ifndef __INITIAL_SP
 170:../Drivers/CMSIS/Include/cmsis_gcc.h **** #define __INITIAL_SP              __StackTop
 171:../Drivers/CMSIS/Include/cmsis_gcc.h **** #endif
 172:../Drivers/CMSIS/Include/cmsis_gcc.h **** 
 173:../Drivers/CMSIS/Include/cmsis_gcc.h **** #ifndef __STACK_LIMIT
 174:../Drivers/CMSIS/Include/cmsis_gcc.h **** #define __STACK_LIMIT             __StackLimit
 175:../Drivers/CMSIS/Include/cmsis_gcc.h **** #endif
 176:../Drivers/CMSIS/Include/cmsis_gcc.h **** 
 177:../Drivers/CMSIS/Include/cmsis_gcc.h **** #ifndef __VECTOR_TABLE
 178:../Drivers/CMSIS/Include/cmsis_gcc.h **** #define __VECTOR_TABLE            __Vectors
 179:../Drivers/CMSIS/Include/cmsis_gcc.h **** #endif
 180:../Drivers/CMSIS/Include/cmsis_gcc.h **** 
 181:../Drivers/CMSIS/Include/cmsis_gcc.h **** #ifndef __VECTOR_TABLE_ATTRIBUTE
ARM GAS  /tmp/ccwYF4dg.s 			page 9


 182:../Drivers/CMSIS/Include/cmsis_gcc.h **** #define __VECTOR_TABLE_ATTRIBUTE  __attribute((used, section(".vectors")))
 183:../Drivers/CMSIS/Include/cmsis_gcc.h **** #endif
 184:../Drivers/CMSIS/Include/cmsis_gcc.h **** 
 185:../Drivers/CMSIS/Include/cmsis_gcc.h **** /* ###########################  Core Function Access  ########################### */
 186:../Drivers/CMSIS/Include/cmsis_gcc.h **** /** \ingroup  CMSIS_Core_FunctionInterface
 187:../Drivers/CMSIS/Include/cmsis_gcc.h ****     \defgroup CMSIS_Core_RegAccFunctions CMSIS Core Register Access Functions
 188:../Drivers/CMSIS/Include/cmsis_gcc.h ****   @{
 189:../Drivers/CMSIS/Include/cmsis_gcc.h ****  */
 190:../Drivers/CMSIS/Include/cmsis_gcc.h **** 
 191:../Drivers/CMSIS/Include/cmsis_gcc.h **** /**
 192:../Drivers/CMSIS/Include/cmsis_gcc.h ****   \brief   Enable IRQ Interrupts
 193:../Drivers/CMSIS/Include/cmsis_gcc.h ****   \details Enables IRQ interrupts by clearing the I-bit in the CPSR.
 194:../Drivers/CMSIS/Include/cmsis_gcc.h ****            Can only be executed in Privileged modes.
 195:../Drivers/CMSIS/Include/cmsis_gcc.h ****  */
 196:../Drivers/CMSIS/Include/cmsis_gcc.h **** __STATIC_FORCEINLINE void __enable_irq(void)
 197:../Drivers/CMSIS/Include/cmsis_gcc.h **** {
 198:../Drivers/CMSIS/Include/cmsis_gcc.h ****   __ASM volatile ("cpsie i" : : : "memory");
 199:../Drivers/CMSIS/Include/cmsis_gcc.h **** }
 200:../Drivers/CMSIS/Include/cmsis_gcc.h **** 
 201:../Drivers/CMSIS/Include/cmsis_gcc.h **** 
 202:../Drivers/CMSIS/Include/cmsis_gcc.h **** /**
 203:../Drivers/CMSIS/Include/cmsis_gcc.h ****   \brief   Disable IRQ Interrupts
 204:../Drivers/CMSIS/Include/cmsis_gcc.h ****   \details Disables IRQ interrupts by setting the I-bit in the CPSR.
 205:../Drivers/CMSIS/Include/cmsis_gcc.h ****            Can only be executed in Privileged modes.
 206:../Drivers/CMSIS/Include/cmsis_gcc.h ****  */
 207:../Drivers/CMSIS/Include/cmsis_gcc.h **** __STATIC_FORCEINLINE void __disable_irq(void)
  82              		.loc 2 207 27 view .LVU8
  83              	.LBB17:
 208:../Drivers/CMSIS/Include/cmsis_gcc.h **** {
 209:../Drivers/CMSIS/Include/cmsis_gcc.h ****   __ASM volatile ("cpsid i" : : : "memory");
  84              		.loc 2 209 3 view .LVU9
  85              		.syntax unified
  86              	@ 209 "../Drivers/CMSIS/Include/cmsis_gcc.h" 1
  87 0000 72B6     		cpsid i
  88              	@ 0 "" 2
  89              		.thumb
  90              		.syntax unified
  91              	.L5:
  92              	.LBE17:
  93              	.LBE16:
 198:../Core/Src/main.c ****   while (1)
  94              		.loc 1 198 3 discriminator 1 view .LVU10
 199:../Core/Src/main.c ****   {
 200:../Core/Src/main.c ****   }
  95              		.loc 1 200 3 discriminator 1 view .LVU11
 198:../Core/Src/main.c ****   while (1)
  96              		.loc 1 198 9 discriminator 1 view .LVU12
  97 0002 FEE7     		b	.L5
  98              		.cfi_endproc
  99              	.LFE727:
 101              		.section	.text.SystemClock_Config,"ax",%progbits
 102              		.align	1
 103              		.global	SystemClock_Config
 104              		.syntax unified
 105              		.thumb
 106              		.thumb_func
 107              		.fpu fpv4-sp-d16
ARM GAS  /tmp/ccwYF4dg.s 			page 10


 109              	SystemClock_Config:
 110              	.LFB726:
 130:../Core/Src/main.c ****   RCC_OscInitTypeDef RCC_OscInitStruct = {0};
 111              		.loc 1 130 1 view -0
 112              		.cfi_startproc
 113              		@ args = 0, pretend = 0, frame = 88
 114              		@ frame_needed = 0, uses_anonymous_args = 0
 115 0000 00B5     		push	{lr}
 116              	.LCFI0:
 117              		.cfi_def_cfa_offset 4
 118              		.cfi_offset 14, -4
 119 0002 97B0     		sub	sp, sp, #92
 120              	.LCFI1:
 121              		.cfi_def_cfa_offset 96
 131:../Core/Src/main.c ****   RCC_ClkInitTypeDef RCC_ClkInitStruct = {0};
 122              		.loc 1 131 3 view .LVU14
 131:../Core/Src/main.c ****   RCC_ClkInitTypeDef RCC_ClkInitStruct = {0};
 123              		.loc 1 131 22 is_stmt 0 view .LVU15
 124 0004 4422     		movs	r2, #68
 125 0006 0021     		movs	r1, #0
 126 0008 05A8     		add	r0, sp, #20
 127 000a FFF7FEFF 		bl	memset
 128              	.LVL0:
 132:../Core/Src/main.c **** 
 129              		.loc 1 132 3 is_stmt 1 view .LVU16
 132:../Core/Src/main.c **** 
 130              		.loc 1 132 22 is_stmt 0 view .LVU17
 131 000e 0023     		movs	r3, #0
 132 0010 0093     		str	r3, [sp]
 133 0012 0193     		str	r3, [sp, #4]
 134 0014 0293     		str	r3, [sp, #8]
 135 0016 0393     		str	r3, [sp, #12]
 136 0018 0493     		str	r3, [sp, #16]
 136:../Core/Src/main.c ****   {
 137              		.loc 1 136 3 is_stmt 1 view .LVU18
 136:../Core/Src/main.c ****   {
 138              		.loc 1 136 7 is_stmt 0 view .LVU19
 139 001a 4FF40070 		mov	r0, #512
 140 001e FFF7FEFF 		bl	HAL_PWREx_ControlVoltageScaling
 141              	.LVL1:
 136:../Core/Src/main.c ****   {
 142              		.loc 1 136 6 view .LVU20
 143 0022 0028     		cmp	r0, #0
 144 0024 33D1     		bne	.L11
 143:../Core/Src/main.c ****   __HAL_RCC_LSEDRIVE_CONFIG(RCC_LSEDRIVE_LOW);
 145              		.loc 1 143 3 is_stmt 1 view .LVU21
 146 0026 FFF7FEFF 		bl	HAL_PWR_EnableBkUpAccess
 147              	.LVL2:
 144:../Core/Src/main.c **** 
 148              		.loc 1 144 3 view .LVU22
 149 002a 1C4A     		ldr	r2, .L14
 150 002c D2F89030 		ldr	r3, [r2, #144]
 151 0030 23F01803 		bic	r3, r3, #24
 152 0034 C2F89030 		str	r3, [r2, #144]
 149:../Core/Src/main.c ****   RCC_OscInitStruct.LSEState = RCC_LSE_ON;
 153              		.loc 1 149 3 view .LVU23
 149:../Core/Src/main.c ****   RCC_OscInitStruct.LSEState = RCC_LSE_ON;
ARM GAS  /tmp/ccwYF4dg.s 			page 11


 154              		.loc 1 149 36 is_stmt 0 view .LVU24
 155 0038 1423     		movs	r3, #20
 156 003a 0593     		str	r3, [sp, #20]
 150:../Core/Src/main.c ****   RCC_OscInitStruct.MSIState = RCC_MSI_ON;
 157              		.loc 1 150 3 is_stmt 1 view .LVU25
 150:../Core/Src/main.c ****   RCC_OscInitStruct.MSIState = RCC_MSI_ON;
 158              		.loc 1 150 30 is_stmt 0 view .LVU26
 159 003c 0123     		movs	r3, #1
 160 003e 0793     		str	r3, [sp, #28]
 151:../Core/Src/main.c ****   RCC_OscInitStruct.MSICalibrationValue = 0;
 161              		.loc 1 151 3 is_stmt 1 view .LVU27
 151:../Core/Src/main.c ****   RCC_OscInitStruct.MSICalibrationValue = 0;
 162              		.loc 1 151 30 is_stmt 0 view .LVU28
 163 0040 0B93     		str	r3, [sp, #44]
 152:../Core/Src/main.c ****   RCC_OscInitStruct.MSIClockRange = RCC_MSIRANGE_6;
 164              		.loc 1 152 3 is_stmt 1 view .LVU29
 152:../Core/Src/main.c ****   RCC_OscInitStruct.MSIClockRange = RCC_MSIRANGE_6;
 165              		.loc 1 152 41 is_stmt 0 view .LVU30
 166 0042 0022     		movs	r2, #0
 167 0044 0C92     		str	r2, [sp, #48]
 153:../Core/Src/main.c ****   RCC_OscInitStruct.PLL.PLLState = RCC_PLL_ON;
 168              		.loc 1 153 3 is_stmt 1 view .LVU31
 153:../Core/Src/main.c ****   RCC_OscInitStruct.PLL.PLLState = RCC_PLL_ON;
 169              		.loc 1 153 35 is_stmt 0 view .LVU32
 170 0046 6022     		movs	r2, #96
 171 0048 0D92     		str	r2, [sp, #52]
 154:../Core/Src/main.c ****   RCC_OscInitStruct.PLL.PLLSource = RCC_PLLSOURCE_MSI;
 172              		.loc 1 154 3 is_stmt 1 view .LVU33
 154:../Core/Src/main.c ****   RCC_OscInitStruct.PLL.PLLSource = RCC_PLLSOURCE_MSI;
 173              		.loc 1 154 34 is_stmt 0 view .LVU34
 174 004a 0222     		movs	r2, #2
 175 004c 0F92     		str	r2, [sp, #60]
 155:../Core/Src/main.c ****   RCC_OscInitStruct.PLL.PLLM = 1;
 176              		.loc 1 155 3 is_stmt 1 view .LVU35
 155:../Core/Src/main.c ****   RCC_OscInitStruct.PLL.PLLM = 1;
 177              		.loc 1 155 35 is_stmt 0 view .LVU36
 178 004e 1093     		str	r3, [sp, #64]
 156:../Core/Src/main.c ****   RCC_OscInitStruct.PLL.PLLN = 71;
 179              		.loc 1 156 3 is_stmt 1 view .LVU37
 156:../Core/Src/main.c ****   RCC_OscInitStruct.PLL.PLLN = 71;
 180              		.loc 1 156 30 is_stmt 0 view .LVU38
 181 0050 1193     		str	r3, [sp, #68]
 157:../Core/Src/main.c ****   RCC_OscInitStruct.PLL.PLLP = RCC_PLLP_DIV2;
 182              		.loc 1 157 3 is_stmt 1 view .LVU39
 157:../Core/Src/main.c ****   RCC_OscInitStruct.PLL.PLLP = RCC_PLLP_DIV2;
 183              		.loc 1 157 30 is_stmt 0 view .LVU40
 184 0052 4723     		movs	r3, #71
 185 0054 1293     		str	r3, [sp, #72]
 158:../Core/Src/main.c ****   RCC_OscInitStruct.PLL.PLLQ = RCC_PLLQ_DIV2;
 186              		.loc 1 158 3 is_stmt 1 view .LVU41
 158:../Core/Src/main.c ****   RCC_OscInitStruct.PLL.PLLQ = RCC_PLLQ_DIV2;
 187              		.loc 1 158 30 is_stmt 0 view .LVU42
 188 0056 1392     		str	r2, [sp, #76]
 159:../Core/Src/main.c ****   RCC_OscInitStruct.PLL.PLLR = RCC_PLLR_DIV6;
 189              		.loc 1 159 3 is_stmt 1 view .LVU43
 159:../Core/Src/main.c ****   RCC_OscInitStruct.PLL.PLLR = RCC_PLLR_DIV6;
 190              		.loc 1 159 30 is_stmt 0 view .LVU44
ARM GAS  /tmp/ccwYF4dg.s 			page 12


 191 0058 1492     		str	r2, [sp, #80]
 160:../Core/Src/main.c ****   if (HAL_RCC_OscConfig(&RCC_OscInitStruct) != HAL_OK)
 192              		.loc 1 160 3 is_stmt 1 view .LVU45
 160:../Core/Src/main.c ****   if (HAL_RCC_OscConfig(&RCC_OscInitStruct) != HAL_OK)
 193              		.loc 1 160 30 is_stmt 0 view .LVU46
 194 005a 0623     		movs	r3, #6
 195 005c 1593     		str	r3, [sp, #84]
 161:../Core/Src/main.c ****   {
 196              		.loc 1 161 3 is_stmt 1 view .LVU47
 161:../Core/Src/main.c ****   {
 197              		.loc 1 161 7 is_stmt 0 view .LVU48
 198 005e 05A8     		add	r0, sp, #20
 199 0060 FFF7FEFF 		bl	HAL_RCC_OscConfig
 200              	.LVL3:
 161:../Core/Src/main.c ****   {
 201              		.loc 1 161 6 view .LVU49
 202 0064 A8B9     		cbnz	r0, .L12
 168:../Core/Src/main.c ****                               |RCC_CLOCKTYPE_PCLK1|RCC_CLOCKTYPE_PCLK2;
 203              		.loc 1 168 3 is_stmt 1 view .LVU50
 168:../Core/Src/main.c ****                               |RCC_CLOCKTYPE_PCLK1|RCC_CLOCKTYPE_PCLK2;
 204              		.loc 1 168 31 is_stmt 0 view .LVU51
 205 0066 0F23     		movs	r3, #15
 206 0068 0093     		str	r3, [sp]
 170:../Core/Src/main.c ****   RCC_ClkInitStruct.AHBCLKDivider = RCC_SYSCLK_DIV1;
 207              		.loc 1 170 3 is_stmt 1 view .LVU52
 170:../Core/Src/main.c ****   RCC_ClkInitStruct.AHBCLKDivider = RCC_SYSCLK_DIV1;
 208              		.loc 1 170 34 is_stmt 0 view .LVU53
 209 006a 0323     		movs	r3, #3
 210 006c 0193     		str	r3, [sp, #4]
 171:../Core/Src/main.c ****   RCC_ClkInitStruct.APB1CLKDivider = RCC_HCLK_DIV2;
 211              		.loc 1 171 3 is_stmt 1 view .LVU54
 171:../Core/Src/main.c ****   RCC_ClkInitStruct.APB1CLKDivider = RCC_HCLK_DIV2;
 212              		.loc 1 171 35 is_stmt 0 view .LVU55
 213 006e 0023     		movs	r3, #0
 214 0070 0293     		str	r3, [sp, #8]
 172:../Core/Src/main.c ****   RCC_ClkInitStruct.APB2CLKDivider = RCC_HCLK_DIV1;
 215              		.loc 1 172 3 is_stmt 1 view .LVU56
 172:../Core/Src/main.c ****   RCC_ClkInitStruct.APB2CLKDivider = RCC_HCLK_DIV1;
 216              		.loc 1 172 36 is_stmt 0 view .LVU57
 217 0072 4FF48062 		mov	r2, #1024
 218 0076 0392     		str	r2, [sp, #12]
 173:../Core/Src/main.c **** 
 219              		.loc 1 173 3 is_stmt 1 view .LVU58
 173:../Core/Src/main.c **** 
 220              		.loc 1 173 36 is_stmt 0 view .LVU59
 221 0078 0493     		str	r3, [sp, #16]
 175:../Core/Src/main.c ****   {
 222              		.loc 1 175 3 is_stmt 1 view .LVU60
 175:../Core/Src/main.c ****   {
 223              		.loc 1 175 7 is_stmt 0 view .LVU61
 224 007a 0221     		movs	r1, #2
 225 007c 6846     		mov	r0, sp
 226 007e FFF7FEFF 		bl	HAL_RCC_ClockConfig
 227              	.LVL4:
 175:../Core/Src/main.c ****   {
 228              		.loc 1 175 6 view .LVU62
 229 0082 40B9     		cbnz	r0, .L13
ARM GAS  /tmp/ccwYF4dg.s 			page 13


 182:../Core/Src/main.c **** }
 230              		.loc 1 182 3 is_stmt 1 view .LVU63
 231 0084 FFF7FEFF 		bl	HAL_RCCEx_EnableMSIPLLMode
 232              	.LVL5:
 183:../Core/Src/main.c **** 
 233              		.loc 1 183 1 is_stmt 0 view .LVU64
 234 0088 17B0     		add	sp, sp, #92
 235              	.LCFI2:
 236              		.cfi_remember_state
 237              		.cfi_def_cfa_offset 4
 238              		@ sp needed
 239 008a 5DF804FB 		ldr	pc, [sp], #4
 240              	.L11:
 241              	.LCFI3:
 242              		.cfi_restore_state
 138:../Core/Src/main.c ****   }
 243              		.loc 1 138 5 is_stmt 1 view .LVU65
 244 008e FFF7FEFF 		bl	Error_Handler
 245              	.LVL6:
 246              	.L12:
 163:../Core/Src/main.c ****   }
 247              		.loc 1 163 5 view .LVU66
 248 0092 FFF7FEFF 		bl	Error_Handler
 249              	.LVL7:
 250              	.L13:
 177:../Core/Src/main.c ****   }
 251              		.loc 1 177 5 view .LVU67
 252 0096 FFF7FEFF 		bl	Error_Handler
 253              	.LVL8:
 254              	.L15:
 255 009a 00BF     		.align	2
 256              	.L14:
 257 009c 00100240 		.word	1073876992
 258              		.cfi_endproc
 259              	.LFE726:
 261              		.section	.text.main,"ax",%progbits
 262              		.align	1
 263              		.global	main
 264              		.syntax unified
 265              		.thumb
 266              		.thumb_func
 267              		.fpu fpv4-sp-d16
 269              	main:
 270              	.LFB725:
  75:../Core/Src/main.c ****   /* USER CODE BEGIN 1 */
 271              		.loc 1 75 1 view -0
 272              		.cfi_startproc
 273              		@ Volatile: function does not return.
 274              		@ args = 0, pretend = 0, frame = 0
 275              		@ frame_needed = 0, uses_anonymous_args = 0
 276 0000 08B5     		push	{r3, lr}
 277              	.LCFI4:
 278              		.cfi_def_cfa_offset 8
 279              		.cfi_offset 3, -8
 280              		.cfi_offset 14, -4
  83:../Core/Src/main.c **** 
 281              		.loc 1 83 3 view .LVU69
ARM GAS  /tmp/ccwYF4dg.s 			page 14


 282 0002 FFF7FEFF 		bl	HAL_Init
 283              	.LVL9:
  90:../Core/Src/main.c **** 
 284              		.loc 1 90 3 view .LVU70
 285 0006 FFF7FEFF 		bl	SystemClock_Config
 286              	.LVL10:
  97:../Core/Src/main.c ****   MX_LPUART1_UART_Init();
 287              		.loc 1 97 3 view .LVU71
 288 000a FFF7FEFF 		bl	MX_GPIO_Init
 289              	.LVL11:
  98:../Core/Src/main.c ****   MX_USB_OTG_FS_PCD_Init();
 290              		.loc 1 98 3 view .LVU72
 291 000e FFF7FEFF 		bl	MX_LPUART1_UART_Init
 292              	.LVL12:
  99:../Core/Src/main.c ****   MX_USART2_UART_Init();
 293              		.loc 1 99 3 view .LVU73
 294 0012 FFF7FEFF 		bl	MX_USB_OTG_FS_PCD_Init
 295              	.LVL13:
 100:../Core/Src/main.c ****   /* USER CODE BEGIN 2 */
 296              		.loc 1 100 3 view .LVU74
 297 0016 FFF7FEFF 		bl	MX_USART2_UART_Init
 298              	.LVL14:
 299              	.L17:
 107:../Core/Src/main.c ****   {
 300              		.loc 1 107 3 discriminator 1 view .LVU75
 109:../Core/Src/main.c **** 	  HAL_Delay(period_ms[index_v]);
 301              		.loc 1 109 5 discriminator 1 view .LVU76
 302              	.LBB18:
 303              	.LBI18:
 304              		.file 3 "../Drivers/STM32L4xx_HAL_Driver/Inc/stm32l4xx_ll_gpio.h"
   1:../Drivers/STM32L4xx_HAL_Driver/Inc/stm32l4xx_ll_gpio.h **** /**
   2:../Drivers/STM32L4xx_HAL_Driver/Inc/stm32l4xx_ll_gpio.h ****   ******************************************************************************
   3:../Drivers/STM32L4xx_HAL_Driver/Inc/stm32l4xx_ll_gpio.h ****   * @file    stm32l4xx_ll_gpio.h
   4:../Drivers/STM32L4xx_HAL_Driver/Inc/stm32l4xx_ll_gpio.h ****   * @author  MCD Application Team
   5:../Drivers/STM32L4xx_HAL_Driver/Inc/stm32l4xx_ll_gpio.h ****   * @brief   Header file of GPIO LL module.
   6:../Drivers/STM32L4xx_HAL_Driver/Inc/stm32l4xx_ll_gpio.h ****   ******************************************************************************
   7:../Drivers/STM32L4xx_HAL_Driver/Inc/stm32l4xx_ll_gpio.h ****   * @attention
   8:../Drivers/STM32L4xx_HAL_Driver/Inc/stm32l4xx_ll_gpio.h ****   *
   9:../Drivers/STM32L4xx_HAL_Driver/Inc/stm32l4xx_ll_gpio.h ****   * Copyright (c) 2017 STMicroelectronics.
  10:../Drivers/STM32L4xx_HAL_Driver/Inc/stm32l4xx_ll_gpio.h ****   * All rights reserved.
  11:../Drivers/STM32L4xx_HAL_Driver/Inc/stm32l4xx_ll_gpio.h ****   *
  12:../Drivers/STM32L4xx_HAL_Driver/Inc/stm32l4xx_ll_gpio.h ****   * This software is licensed under terms that can be found in the LICENSE file
  13:../Drivers/STM32L4xx_HAL_Driver/Inc/stm32l4xx_ll_gpio.h ****   * in the root directory of this software component.
  14:../Drivers/STM32L4xx_HAL_Driver/Inc/stm32l4xx_ll_gpio.h ****   * If no LICENSE file comes with this software, it is provided AS-IS.
  15:../Drivers/STM32L4xx_HAL_Driver/Inc/stm32l4xx_ll_gpio.h ****   *
  16:../Drivers/STM32L4xx_HAL_Driver/Inc/stm32l4xx_ll_gpio.h ****   ******************************************************************************
  17:../Drivers/STM32L4xx_HAL_Driver/Inc/stm32l4xx_ll_gpio.h ****   */
  18:../Drivers/STM32L4xx_HAL_Driver/Inc/stm32l4xx_ll_gpio.h **** 
  19:../Drivers/STM32L4xx_HAL_Driver/Inc/stm32l4xx_ll_gpio.h **** /* Define to prevent recursive inclusion -------------------------------------*/
  20:../Drivers/STM32L4xx_HAL_Driver/Inc/stm32l4xx_ll_gpio.h **** #ifndef STM32L4xx_LL_GPIO_H
  21:../Drivers/STM32L4xx_HAL_Driver/Inc/stm32l4xx_ll_gpio.h **** #define STM32L4xx_LL_GPIO_H
  22:../Drivers/STM32L4xx_HAL_Driver/Inc/stm32l4xx_ll_gpio.h **** 
  23:../Drivers/STM32L4xx_HAL_Driver/Inc/stm32l4xx_ll_gpio.h **** #ifdef __cplusplus
  24:../Drivers/STM32L4xx_HAL_Driver/Inc/stm32l4xx_ll_gpio.h **** extern "C" {
  25:../Drivers/STM32L4xx_HAL_Driver/Inc/stm32l4xx_ll_gpio.h **** #endif
  26:../Drivers/STM32L4xx_HAL_Driver/Inc/stm32l4xx_ll_gpio.h **** 
  27:../Drivers/STM32L4xx_HAL_Driver/Inc/stm32l4xx_ll_gpio.h **** /* Includes ------------------------------------------------------------------*/
ARM GAS  /tmp/ccwYF4dg.s 			page 15


  28:../Drivers/STM32L4xx_HAL_Driver/Inc/stm32l4xx_ll_gpio.h **** #include "stm32l4xx.h"
  29:../Drivers/STM32L4xx_HAL_Driver/Inc/stm32l4xx_ll_gpio.h **** 
  30:../Drivers/STM32L4xx_HAL_Driver/Inc/stm32l4xx_ll_gpio.h **** /** @addtogroup STM32L4xx_LL_Driver
  31:../Drivers/STM32L4xx_HAL_Driver/Inc/stm32l4xx_ll_gpio.h ****   * @{
  32:../Drivers/STM32L4xx_HAL_Driver/Inc/stm32l4xx_ll_gpio.h ****   */
  33:../Drivers/STM32L4xx_HAL_Driver/Inc/stm32l4xx_ll_gpio.h **** 
  34:../Drivers/STM32L4xx_HAL_Driver/Inc/stm32l4xx_ll_gpio.h **** #if defined (GPIOA) || defined (GPIOB) || defined (GPIOC) || defined (GPIOD) || defined (GPIOE) || 
  35:../Drivers/STM32L4xx_HAL_Driver/Inc/stm32l4xx_ll_gpio.h **** 
  36:../Drivers/STM32L4xx_HAL_Driver/Inc/stm32l4xx_ll_gpio.h **** /** @defgroup GPIO_LL GPIO
  37:../Drivers/STM32L4xx_HAL_Driver/Inc/stm32l4xx_ll_gpio.h ****   * @{
  38:../Drivers/STM32L4xx_HAL_Driver/Inc/stm32l4xx_ll_gpio.h ****   */
  39:../Drivers/STM32L4xx_HAL_Driver/Inc/stm32l4xx_ll_gpio.h **** /** MISRA C:2012 deviation rule has been granted for following rules:
  40:../Drivers/STM32L4xx_HAL_Driver/Inc/stm32l4xx_ll_gpio.h ****   * Rule-18.1_d - Medium: Array pointer `GPIOx' is accessed with index [..,..]
  41:../Drivers/STM32L4xx_HAL_Driver/Inc/stm32l4xx_ll_gpio.h ****   * which may be out of array bounds [..,UNKNOWN] in following APIs:
  42:../Drivers/STM32L4xx_HAL_Driver/Inc/stm32l4xx_ll_gpio.h ****   * LL_GPIO_GetAFPin_0_7
  43:../Drivers/STM32L4xx_HAL_Driver/Inc/stm32l4xx_ll_gpio.h ****   * LL_GPIO_SetAFPin_0_7
  44:../Drivers/STM32L4xx_HAL_Driver/Inc/stm32l4xx_ll_gpio.h ****   * LL_GPIO_SetAFPin_8_15
  45:../Drivers/STM32L4xx_HAL_Driver/Inc/stm32l4xx_ll_gpio.h ****   * LL_GPIO_GetAFPin_8_15
  46:../Drivers/STM32L4xx_HAL_Driver/Inc/stm32l4xx_ll_gpio.h ****   */
  47:../Drivers/STM32L4xx_HAL_Driver/Inc/stm32l4xx_ll_gpio.h **** 
  48:../Drivers/STM32L4xx_HAL_Driver/Inc/stm32l4xx_ll_gpio.h **** /* Private types -------------------------------------------------------------*/
  49:../Drivers/STM32L4xx_HAL_Driver/Inc/stm32l4xx_ll_gpio.h **** /* Private variables ---------------------------------------------------------*/
  50:../Drivers/STM32L4xx_HAL_Driver/Inc/stm32l4xx_ll_gpio.h **** /* Private constants ---------------------------------------------------------*/
  51:../Drivers/STM32L4xx_HAL_Driver/Inc/stm32l4xx_ll_gpio.h **** /* Private macros ------------------------------------------------------------*/
  52:../Drivers/STM32L4xx_HAL_Driver/Inc/stm32l4xx_ll_gpio.h **** #if defined(USE_FULL_LL_DRIVER)
  53:../Drivers/STM32L4xx_HAL_Driver/Inc/stm32l4xx_ll_gpio.h **** /** @defgroup GPIO_LL_Private_Macros GPIO Private Macros
  54:../Drivers/STM32L4xx_HAL_Driver/Inc/stm32l4xx_ll_gpio.h ****   * @{
  55:../Drivers/STM32L4xx_HAL_Driver/Inc/stm32l4xx_ll_gpio.h ****   */
  56:../Drivers/STM32L4xx_HAL_Driver/Inc/stm32l4xx_ll_gpio.h **** 
  57:../Drivers/STM32L4xx_HAL_Driver/Inc/stm32l4xx_ll_gpio.h **** /**
  58:../Drivers/STM32L4xx_HAL_Driver/Inc/stm32l4xx_ll_gpio.h ****   * @}
  59:../Drivers/STM32L4xx_HAL_Driver/Inc/stm32l4xx_ll_gpio.h ****   */
  60:../Drivers/STM32L4xx_HAL_Driver/Inc/stm32l4xx_ll_gpio.h **** #endif /*USE_FULL_LL_DRIVER*/
  61:../Drivers/STM32L4xx_HAL_Driver/Inc/stm32l4xx_ll_gpio.h **** 
  62:../Drivers/STM32L4xx_HAL_Driver/Inc/stm32l4xx_ll_gpio.h **** /* Exported types ------------------------------------------------------------*/
  63:../Drivers/STM32L4xx_HAL_Driver/Inc/stm32l4xx_ll_gpio.h **** #if defined(USE_FULL_LL_DRIVER)
  64:../Drivers/STM32L4xx_HAL_Driver/Inc/stm32l4xx_ll_gpio.h **** /** @defgroup GPIO_LL_ES_INIT GPIO Exported Init structures
  65:../Drivers/STM32L4xx_HAL_Driver/Inc/stm32l4xx_ll_gpio.h ****   * @{
  66:../Drivers/STM32L4xx_HAL_Driver/Inc/stm32l4xx_ll_gpio.h ****   */
  67:../Drivers/STM32L4xx_HAL_Driver/Inc/stm32l4xx_ll_gpio.h **** 
  68:../Drivers/STM32L4xx_HAL_Driver/Inc/stm32l4xx_ll_gpio.h **** /**
  69:../Drivers/STM32L4xx_HAL_Driver/Inc/stm32l4xx_ll_gpio.h ****   * @brief LL GPIO Init Structure definition
  70:../Drivers/STM32L4xx_HAL_Driver/Inc/stm32l4xx_ll_gpio.h ****   */
  71:../Drivers/STM32L4xx_HAL_Driver/Inc/stm32l4xx_ll_gpio.h **** typedef struct
  72:../Drivers/STM32L4xx_HAL_Driver/Inc/stm32l4xx_ll_gpio.h **** {
  73:../Drivers/STM32L4xx_HAL_Driver/Inc/stm32l4xx_ll_gpio.h ****   uint32_t Pin;          /*!< Specifies the GPIO pins to be configured.
  74:../Drivers/STM32L4xx_HAL_Driver/Inc/stm32l4xx_ll_gpio.h ****                               This parameter can be any value of @ref GPIO_LL_EC_PIN */
  75:../Drivers/STM32L4xx_HAL_Driver/Inc/stm32l4xx_ll_gpio.h **** 
  76:../Drivers/STM32L4xx_HAL_Driver/Inc/stm32l4xx_ll_gpio.h ****   uint32_t Mode;         /*!< Specifies the operating mode for the selected pins.
  77:../Drivers/STM32L4xx_HAL_Driver/Inc/stm32l4xx_ll_gpio.h ****                               This parameter can be a value of @ref GPIO_LL_EC_MODE.
  78:../Drivers/STM32L4xx_HAL_Driver/Inc/stm32l4xx_ll_gpio.h **** 
  79:../Drivers/STM32L4xx_HAL_Driver/Inc/stm32l4xx_ll_gpio.h ****                               GPIO HW configuration can be modified afterwards using unitary functi
  80:../Drivers/STM32L4xx_HAL_Driver/Inc/stm32l4xx_ll_gpio.h **** 
  81:../Drivers/STM32L4xx_HAL_Driver/Inc/stm32l4xx_ll_gpio.h ****   uint32_t Speed;        /*!< Specifies the speed for the selected pins.
  82:../Drivers/STM32L4xx_HAL_Driver/Inc/stm32l4xx_ll_gpio.h ****                               This parameter can be a value of @ref GPIO_LL_EC_SPEED.
  83:../Drivers/STM32L4xx_HAL_Driver/Inc/stm32l4xx_ll_gpio.h **** 
  84:../Drivers/STM32L4xx_HAL_Driver/Inc/stm32l4xx_ll_gpio.h ****                               GPIO HW configuration can be modified afterwards using unitary functi
ARM GAS  /tmp/ccwYF4dg.s 			page 16


  85:../Drivers/STM32L4xx_HAL_Driver/Inc/stm32l4xx_ll_gpio.h **** 
  86:../Drivers/STM32L4xx_HAL_Driver/Inc/stm32l4xx_ll_gpio.h ****   uint32_t OutputType;   /*!< Specifies the operating output type for the selected pins.
  87:../Drivers/STM32L4xx_HAL_Driver/Inc/stm32l4xx_ll_gpio.h ****                               This parameter can be a value of @ref GPIO_LL_EC_OUTPUT.
  88:../Drivers/STM32L4xx_HAL_Driver/Inc/stm32l4xx_ll_gpio.h **** 
  89:../Drivers/STM32L4xx_HAL_Driver/Inc/stm32l4xx_ll_gpio.h ****                               GPIO HW configuration can be modified afterwards using unitary functi
  90:../Drivers/STM32L4xx_HAL_Driver/Inc/stm32l4xx_ll_gpio.h **** 
  91:../Drivers/STM32L4xx_HAL_Driver/Inc/stm32l4xx_ll_gpio.h ****   uint32_t Pull;         /*!< Specifies the operating Pull-up/Pull down for the selected pins.
  92:../Drivers/STM32L4xx_HAL_Driver/Inc/stm32l4xx_ll_gpio.h ****                               This parameter can be a value of @ref GPIO_LL_EC_PULL.
  93:../Drivers/STM32L4xx_HAL_Driver/Inc/stm32l4xx_ll_gpio.h **** 
  94:../Drivers/STM32L4xx_HAL_Driver/Inc/stm32l4xx_ll_gpio.h ****                               GPIO HW configuration can be modified afterwards using unitary functi
  95:../Drivers/STM32L4xx_HAL_Driver/Inc/stm32l4xx_ll_gpio.h **** 
  96:../Drivers/STM32L4xx_HAL_Driver/Inc/stm32l4xx_ll_gpio.h ****   uint32_t Alternate;    /*!< Specifies the Peripheral to be connected to the selected pins.
  97:../Drivers/STM32L4xx_HAL_Driver/Inc/stm32l4xx_ll_gpio.h ****                               This parameter can be a value of @ref GPIO_LL_EC_AF.
  98:../Drivers/STM32L4xx_HAL_Driver/Inc/stm32l4xx_ll_gpio.h **** 
  99:../Drivers/STM32L4xx_HAL_Driver/Inc/stm32l4xx_ll_gpio.h ****                               GPIO HW configuration can be modified afterwards using unitary functi
 100:../Drivers/STM32L4xx_HAL_Driver/Inc/stm32l4xx_ll_gpio.h **** } LL_GPIO_InitTypeDef;
 101:../Drivers/STM32L4xx_HAL_Driver/Inc/stm32l4xx_ll_gpio.h **** 
 102:../Drivers/STM32L4xx_HAL_Driver/Inc/stm32l4xx_ll_gpio.h **** /**
 103:../Drivers/STM32L4xx_HAL_Driver/Inc/stm32l4xx_ll_gpio.h ****   * @}
 104:../Drivers/STM32L4xx_HAL_Driver/Inc/stm32l4xx_ll_gpio.h ****   */
 105:../Drivers/STM32L4xx_HAL_Driver/Inc/stm32l4xx_ll_gpio.h **** #endif /* USE_FULL_LL_DRIVER */
 106:../Drivers/STM32L4xx_HAL_Driver/Inc/stm32l4xx_ll_gpio.h **** 
 107:../Drivers/STM32L4xx_HAL_Driver/Inc/stm32l4xx_ll_gpio.h **** /* Exported constants --------------------------------------------------------*/
 108:../Drivers/STM32L4xx_HAL_Driver/Inc/stm32l4xx_ll_gpio.h **** /** @defgroup GPIO_LL_Exported_Constants GPIO Exported Constants
 109:../Drivers/STM32L4xx_HAL_Driver/Inc/stm32l4xx_ll_gpio.h ****   * @{
 110:../Drivers/STM32L4xx_HAL_Driver/Inc/stm32l4xx_ll_gpio.h ****   */
 111:../Drivers/STM32L4xx_HAL_Driver/Inc/stm32l4xx_ll_gpio.h **** 
 112:../Drivers/STM32L4xx_HAL_Driver/Inc/stm32l4xx_ll_gpio.h **** /** @defgroup GPIO_LL_EC_PIN PIN
 113:../Drivers/STM32L4xx_HAL_Driver/Inc/stm32l4xx_ll_gpio.h ****   * @{
 114:../Drivers/STM32L4xx_HAL_Driver/Inc/stm32l4xx_ll_gpio.h ****   */
 115:../Drivers/STM32L4xx_HAL_Driver/Inc/stm32l4xx_ll_gpio.h **** #define LL_GPIO_PIN_0                      GPIO_BSRR_BS0 /*!< Select pin 0 */
 116:../Drivers/STM32L4xx_HAL_Driver/Inc/stm32l4xx_ll_gpio.h **** #define LL_GPIO_PIN_1                      GPIO_BSRR_BS1 /*!< Select pin 1 */
 117:../Drivers/STM32L4xx_HAL_Driver/Inc/stm32l4xx_ll_gpio.h **** #define LL_GPIO_PIN_2                      GPIO_BSRR_BS2 /*!< Select pin 2 */
 118:../Drivers/STM32L4xx_HAL_Driver/Inc/stm32l4xx_ll_gpio.h **** #define LL_GPIO_PIN_3                      GPIO_BSRR_BS3 /*!< Select pin 3 */
 119:../Drivers/STM32L4xx_HAL_Driver/Inc/stm32l4xx_ll_gpio.h **** #define LL_GPIO_PIN_4                      GPIO_BSRR_BS4 /*!< Select pin 4 */
 120:../Drivers/STM32L4xx_HAL_Driver/Inc/stm32l4xx_ll_gpio.h **** #define LL_GPIO_PIN_5                      GPIO_BSRR_BS5 /*!< Select pin 5 */
 121:../Drivers/STM32L4xx_HAL_Driver/Inc/stm32l4xx_ll_gpio.h **** #define LL_GPIO_PIN_6                      GPIO_BSRR_BS6 /*!< Select pin 6 */
 122:../Drivers/STM32L4xx_HAL_Driver/Inc/stm32l4xx_ll_gpio.h **** #define LL_GPIO_PIN_7                      GPIO_BSRR_BS7 /*!< Select pin 7 */
 123:../Drivers/STM32L4xx_HAL_Driver/Inc/stm32l4xx_ll_gpio.h **** #define LL_GPIO_PIN_8                      GPIO_BSRR_BS8 /*!< Select pin 8 */
 124:../Drivers/STM32L4xx_HAL_Driver/Inc/stm32l4xx_ll_gpio.h **** #define LL_GPIO_PIN_9                      GPIO_BSRR_BS9 /*!< Select pin 9 */
 125:../Drivers/STM32L4xx_HAL_Driver/Inc/stm32l4xx_ll_gpio.h **** #define LL_GPIO_PIN_10                     GPIO_BSRR_BS10 /*!< Select pin 10 */
 126:../Drivers/STM32L4xx_HAL_Driver/Inc/stm32l4xx_ll_gpio.h **** #define LL_GPIO_PIN_11                     GPIO_BSRR_BS11 /*!< Select pin 11 */
 127:../Drivers/STM32L4xx_HAL_Driver/Inc/stm32l4xx_ll_gpio.h **** #define LL_GPIO_PIN_12                     GPIO_BSRR_BS12 /*!< Select pin 12 */
 128:../Drivers/STM32L4xx_HAL_Driver/Inc/stm32l4xx_ll_gpio.h **** #define LL_GPIO_PIN_13                     GPIO_BSRR_BS13 /*!< Select pin 13 */
 129:../Drivers/STM32L4xx_HAL_Driver/Inc/stm32l4xx_ll_gpio.h **** #define LL_GPIO_PIN_14                     GPIO_BSRR_BS14 /*!< Select pin 14 */
 130:../Drivers/STM32L4xx_HAL_Driver/Inc/stm32l4xx_ll_gpio.h **** #define LL_GPIO_PIN_15                     GPIO_BSRR_BS15 /*!< Select pin 15 */
 131:../Drivers/STM32L4xx_HAL_Driver/Inc/stm32l4xx_ll_gpio.h **** #define LL_GPIO_PIN_ALL                    (GPIO_BSRR_BS0 | GPIO_BSRR_BS1  | GPIO_BSRR_BS2  | \
 132:../Drivers/STM32L4xx_HAL_Driver/Inc/stm32l4xx_ll_gpio.h ****                                            GPIO_BSRR_BS3  | GPIO_BSRR_BS4  | GPIO_BSRR_BS5  | \
 133:../Drivers/STM32L4xx_HAL_Driver/Inc/stm32l4xx_ll_gpio.h ****                                            GPIO_BSRR_BS6  | GPIO_BSRR_BS7  | GPIO_BSRR_BS8  | \
 134:../Drivers/STM32L4xx_HAL_Driver/Inc/stm32l4xx_ll_gpio.h ****                                            GPIO_BSRR_BS9  | GPIO_BSRR_BS10 | GPIO_BSRR_BS11 | \
 135:../Drivers/STM32L4xx_HAL_Driver/Inc/stm32l4xx_ll_gpio.h ****                                            GPIO_BSRR_BS12 | GPIO_BSRR_BS13 | GPIO_BSRR_BS14 | \
 136:../Drivers/STM32L4xx_HAL_Driver/Inc/stm32l4xx_ll_gpio.h ****                                            GPIO_BSRR_BS15) /*!< Select all pins */
 137:../Drivers/STM32L4xx_HAL_Driver/Inc/stm32l4xx_ll_gpio.h **** /**
 138:../Drivers/STM32L4xx_HAL_Driver/Inc/stm32l4xx_ll_gpio.h ****   * @}
 139:../Drivers/STM32L4xx_HAL_Driver/Inc/stm32l4xx_ll_gpio.h ****   */
 140:../Drivers/STM32L4xx_HAL_Driver/Inc/stm32l4xx_ll_gpio.h **** 
 141:../Drivers/STM32L4xx_HAL_Driver/Inc/stm32l4xx_ll_gpio.h **** /** @defgroup GPIO_LL_EC_MODE Mode
ARM GAS  /tmp/ccwYF4dg.s 			page 17


 142:../Drivers/STM32L4xx_HAL_Driver/Inc/stm32l4xx_ll_gpio.h ****   * @{
 143:../Drivers/STM32L4xx_HAL_Driver/Inc/stm32l4xx_ll_gpio.h ****   */
 144:../Drivers/STM32L4xx_HAL_Driver/Inc/stm32l4xx_ll_gpio.h **** #define LL_GPIO_MODE_INPUT                 (0x00000000U) /*!< Select input mode */
 145:../Drivers/STM32L4xx_HAL_Driver/Inc/stm32l4xx_ll_gpio.h **** #define LL_GPIO_MODE_OUTPUT                GPIO_MODER_MODE0_0  /*!< Select output mode */
 146:../Drivers/STM32L4xx_HAL_Driver/Inc/stm32l4xx_ll_gpio.h **** #define LL_GPIO_MODE_ALTERNATE             GPIO_MODER_MODE0_1  /*!< Select alternate function mode 
 147:../Drivers/STM32L4xx_HAL_Driver/Inc/stm32l4xx_ll_gpio.h **** #define LL_GPIO_MODE_ANALOG                GPIO_MODER_MODE0    /*!< Select analog mode */
 148:../Drivers/STM32L4xx_HAL_Driver/Inc/stm32l4xx_ll_gpio.h **** /**
 149:../Drivers/STM32L4xx_HAL_Driver/Inc/stm32l4xx_ll_gpio.h ****   * @}
 150:../Drivers/STM32L4xx_HAL_Driver/Inc/stm32l4xx_ll_gpio.h ****   */
 151:../Drivers/STM32L4xx_HAL_Driver/Inc/stm32l4xx_ll_gpio.h **** 
 152:../Drivers/STM32L4xx_HAL_Driver/Inc/stm32l4xx_ll_gpio.h **** /** @defgroup GPIO_LL_EC_OUTPUT Output Type
 153:../Drivers/STM32L4xx_HAL_Driver/Inc/stm32l4xx_ll_gpio.h ****   * @{
 154:../Drivers/STM32L4xx_HAL_Driver/Inc/stm32l4xx_ll_gpio.h ****   */
 155:../Drivers/STM32L4xx_HAL_Driver/Inc/stm32l4xx_ll_gpio.h **** #define LL_GPIO_OUTPUT_PUSHPULL            (0x00000000U) /*!< Select push-pull as output type */
 156:../Drivers/STM32L4xx_HAL_Driver/Inc/stm32l4xx_ll_gpio.h **** #define LL_GPIO_OUTPUT_OPENDRAIN           GPIO_OTYPER_OT0 /*!< Select open-drain as output type */
 157:../Drivers/STM32L4xx_HAL_Driver/Inc/stm32l4xx_ll_gpio.h **** /**
 158:../Drivers/STM32L4xx_HAL_Driver/Inc/stm32l4xx_ll_gpio.h ****   * @}
 159:../Drivers/STM32L4xx_HAL_Driver/Inc/stm32l4xx_ll_gpio.h ****   */
 160:../Drivers/STM32L4xx_HAL_Driver/Inc/stm32l4xx_ll_gpio.h **** 
 161:../Drivers/STM32L4xx_HAL_Driver/Inc/stm32l4xx_ll_gpio.h **** /** @defgroup GPIO_LL_EC_SPEED Output Speed
 162:../Drivers/STM32L4xx_HAL_Driver/Inc/stm32l4xx_ll_gpio.h ****   * @{
 163:../Drivers/STM32L4xx_HAL_Driver/Inc/stm32l4xx_ll_gpio.h ****   */
 164:../Drivers/STM32L4xx_HAL_Driver/Inc/stm32l4xx_ll_gpio.h **** #define LL_GPIO_SPEED_FREQ_LOW             (0x00000000U) /*!< Select I/O low output speed    */
 165:../Drivers/STM32L4xx_HAL_Driver/Inc/stm32l4xx_ll_gpio.h **** #define LL_GPIO_SPEED_FREQ_MEDIUM          GPIO_OSPEEDR_OSPEED0_0 /*!< Select I/O medium output spe
 166:../Drivers/STM32L4xx_HAL_Driver/Inc/stm32l4xx_ll_gpio.h **** #define LL_GPIO_SPEED_FREQ_HIGH            GPIO_OSPEEDR_OSPEED0_1 /*!< Select I/O fast output speed
 167:../Drivers/STM32L4xx_HAL_Driver/Inc/stm32l4xx_ll_gpio.h **** #define LL_GPIO_SPEED_FREQ_VERY_HIGH       GPIO_OSPEEDR_OSPEED0   /*!< Select I/O high output speed
 168:../Drivers/STM32L4xx_HAL_Driver/Inc/stm32l4xx_ll_gpio.h **** /**
 169:../Drivers/STM32L4xx_HAL_Driver/Inc/stm32l4xx_ll_gpio.h ****   * @}
 170:../Drivers/STM32L4xx_HAL_Driver/Inc/stm32l4xx_ll_gpio.h ****   */
 171:../Drivers/STM32L4xx_HAL_Driver/Inc/stm32l4xx_ll_gpio.h **** #define LL_GPIO_SPEED_LOW                  LL_GPIO_SPEED_FREQ_LOW
 172:../Drivers/STM32L4xx_HAL_Driver/Inc/stm32l4xx_ll_gpio.h **** #define LL_GPIO_SPEED_MEDIUM               LL_GPIO_SPEED_FREQ_MEDIUM
 173:../Drivers/STM32L4xx_HAL_Driver/Inc/stm32l4xx_ll_gpio.h **** #define LL_GPIO_SPEED_FAST                 LL_GPIO_SPEED_FREQ_HIGH
 174:../Drivers/STM32L4xx_HAL_Driver/Inc/stm32l4xx_ll_gpio.h **** #define LL_GPIO_SPEED_HIGH                 LL_GPIO_SPEED_FREQ_VERY_HIGH
 175:../Drivers/STM32L4xx_HAL_Driver/Inc/stm32l4xx_ll_gpio.h **** 
 176:../Drivers/STM32L4xx_HAL_Driver/Inc/stm32l4xx_ll_gpio.h **** /** @defgroup GPIO_LL_EC_PULL Pull Up Pull Down
 177:../Drivers/STM32L4xx_HAL_Driver/Inc/stm32l4xx_ll_gpio.h ****   * @{
 178:../Drivers/STM32L4xx_HAL_Driver/Inc/stm32l4xx_ll_gpio.h ****   */
 179:../Drivers/STM32L4xx_HAL_Driver/Inc/stm32l4xx_ll_gpio.h **** #define LL_GPIO_PULL_NO                    (0x00000000U) /*!< Select I/O no pull */
 180:../Drivers/STM32L4xx_HAL_Driver/Inc/stm32l4xx_ll_gpio.h **** #define LL_GPIO_PULL_UP                    GPIO_PUPDR_PUPD0_0 /*!< Select I/O pull up */
 181:../Drivers/STM32L4xx_HAL_Driver/Inc/stm32l4xx_ll_gpio.h **** #define LL_GPIO_PULL_DOWN                  GPIO_PUPDR_PUPD0_1 /*!< Select I/O pull down */
 182:../Drivers/STM32L4xx_HAL_Driver/Inc/stm32l4xx_ll_gpio.h **** /**
 183:../Drivers/STM32L4xx_HAL_Driver/Inc/stm32l4xx_ll_gpio.h ****   * @}
 184:../Drivers/STM32L4xx_HAL_Driver/Inc/stm32l4xx_ll_gpio.h ****   */
 185:../Drivers/STM32L4xx_HAL_Driver/Inc/stm32l4xx_ll_gpio.h **** 
 186:../Drivers/STM32L4xx_HAL_Driver/Inc/stm32l4xx_ll_gpio.h **** /** @defgroup GPIO_LL_EC_AF Alternate Function
 187:../Drivers/STM32L4xx_HAL_Driver/Inc/stm32l4xx_ll_gpio.h ****   * @{
 188:../Drivers/STM32L4xx_HAL_Driver/Inc/stm32l4xx_ll_gpio.h ****   */
 189:../Drivers/STM32L4xx_HAL_Driver/Inc/stm32l4xx_ll_gpio.h **** #define LL_GPIO_AF_0                       (0x0000000U) /*!< Select alternate function 0 */
 190:../Drivers/STM32L4xx_HAL_Driver/Inc/stm32l4xx_ll_gpio.h **** #define LL_GPIO_AF_1                       (0x0000001U) /*!< Select alternate function 1 */
 191:../Drivers/STM32L4xx_HAL_Driver/Inc/stm32l4xx_ll_gpio.h **** #define LL_GPIO_AF_2                       (0x0000002U) /*!< Select alternate function 2 */
 192:../Drivers/STM32L4xx_HAL_Driver/Inc/stm32l4xx_ll_gpio.h **** #define LL_GPIO_AF_3                       (0x0000003U) /*!< Select alternate function 3 */
 193:../Drivers/STM32L4xx_HAL_Driver/Inc/stm32l4xx_ll_gpio.h **** #define LL_GPIO_AF_4                       (0x0000004U) /*!< Select alternate function 4 */
 194:../Drivers/STM32L4xx_HAL_Driver/Inc/stm32l4xx_ll_gpio.h **** #define LL_GPIO_AF_5                       (0x0000005U) /*!< Select alternate function 5 */
 195:../Drivers/STM32L4xx_HAL_Driver/Inc/stm32l4xx_ll_gpio.h **** #define LL_GPIO_AF_6                       (0x0000006U) /*!< Select alternate function 6 */
 196:../Drivers/STM32L4xx_HAL_Driver/Inc/stm32l4xx_ll_gpio.h **** #define LL_GPIO_AF_7                       (0x0000007U) /*!< Select alternate function 7 */
 197:../Drivers/STM32L4xx_HAL_Driver/Inc/stm32l4xx_ll_gpio.h **** #define LL_GPIO_AF_8                       (0x0000008U) /*!< Select alternate function 8 */
 198:../Drivers/STM32L4xx_HAL_Driver/Inc/stm32l4xx_ll_gpio.h **** #define LL_GPIO_AF_9                       (0x0000009U) /*!< Select alternate function 9 */
ARM GAS  /tmp/ccwYF4dg.s 			page 18


 199:../Drivers/STM32L4xx_HAL_Driver/Inc/stm32l4xx_ll_gpio.h **** #define LL_GPIO_AF_10                      (0x000000AU) /*!< Select alternate function 10 */
 200:../Drivers/STM32L4xx_HAL_Driver/Inc/stm32l4xx_ll_gpio.h **** #define LL_GPIO_AF_11                      (0x000000BU) /*!< Select alternate function 11 */
 201:../Drivers/STM32L4xx_HAL_Driver/Inc/stm32l4xx_ll_gpio.h **** #define LL_GPIO_AF_12                      (0x000000CU) /*!< Select alternate function 12 */
 202:../Drivers/STM32L4xx_HAL_Driver/Inc/stm32l4xx_ll_gpio.h **** #define LL_GPIO_AF_13                      (0x000000DU) /*!< Select alternate function 13 */
 203:../Drivers/STM32L4xx_HAL_Driver/Inc/stm32l4xx_ll_gpio.h **** #define LL_GPIO_AF_14                      (0x000000EU) /*!< Select alternate function 14 */
 204:../Drivers/STM32L4xx_HAL_Driver/Inc/stm32l4xx_ll_gpio.h **** #define LL_GPIO_AF_15                      (0x000000FU) /*!< Select alternate function 15 */
 205:../Drivers/STM32L4xx_HAL_Driver/Inc/stm32l4xx_ll_gpio.h **** /**
 206:../Drivers/STM32L4xx_HAL_Driver/Inc/stm32l4xx_ll_gpio.h ****   * @}
 207:../Drivers/STM32L4xx_HAL_Driver/Inc/stm32l4xx_ll_gpio.h ****   */
 208:../Drivers/STM32L4xx_HAL_Driver/Inc/stm32l4xx_ll_gpio.h **** 
 209:../Drivers/STM32L4xx_HAL_Driver/Inc/stm32l4xx_ll_gpio.h **** /**
 210:../Drivers/STM32L4xx_HAL_Driver/Inc/stm32l4xx_ll_gpio.h ****   * @}
 211:../Drivers/STM32L4xx_HAL_Driver/Inc/stm32l4xx_ll_gpio.h ****   */
 212:../Drivers/STM32L4xx_HAL_Driver/Inc/stm32l4xx_ll_gpio.h **** 
 213:../Drivers/STM32L4xx_HAL_Driver/Inc/stm32l4xx_ll_gpio.h **** /* Exported macro ------------------------------------------------------------*/
 214:../Drivers/STM32L4xx_HAL_Driver/Inc/stm32l4xx_ll_gpio.h **** /** @defgroup GPIO_LL_Exported_Macros GPIO Exported Macros
 215:../Drivers/STM32L4xx_HAL_Driver/Inc/stm32l4xx_ll_gpio.h ****   * @{
 216:../Drivers/STM32L4xx_HAL_Driver/Inc/stm32l4xx_ll_gpio.h ****   */
 217:../Drivers/STM32L4xx_HAL_Driver/Inc/stm32l4xx_ll_gpio.h **** 
 218:../Drivers/STM32L4xx_HAL_Driver/Inc/stm32l4xx_ll_gpio.h **** /** @defgroup GPIO_LL_EM_WRITE_READ Common Write and read registers Macros
 219:../Drivers/STM32L4xx_HAL_Driver/Inc/stm32l4xx_ll_gpio.h ****   * @{
 220:../Drivers/STM32L4xx_HAL_Driver/Inc/stm32l4xx_ll_gpio.h ****   */
 221:../Drivers/STM32L4xx_HAL_Driver/Inc/stm32l4xx_ll_gpio.h **** 
 222:../Drivers/STM32L4xx_HAL_Driver/Inc/stm32l4xx_ll_gpio.h **** /**
 223:../Drivers/STM32L4xx_HAL_Driver/Inc/stm32l4xx_ll_gpio.h ****   * @brief  Write a value in GPIO register
 224:../Drivers/STM32L4xx_HAL_Driver/Inc/stm32l4xx_ll_gpio.h ****   * @param  __INSTANCE__ GPIO Instance
 225:../Drivers/STM32L4xx_HAL_Driver/Inc/stm32l4xx_ll_gpio.h ****   * @param  __REG__ Register to be written
 226:../Drivers/STM32L4xx_HAL_Driver/Inc/stm32l4xx_ll_gpio.h ****   * @param  __VALUE__ Value to be written in the register
 227:../Drivers/STM32L4xx_HAL_Driver/Inc/stm32l4xx_ll_gpio.h ****   * @retval None
 228:../Drivers/STM32L4xx_HAL_Driver/Inc/stm32l4xx_ll_gpio.h ****   */
 229:../Drivers/STM32L4xx_HAL_Driver/Inc/stm32l4xx_ll_gpio.h **** #define LL_GPIO_WriteReg(__INSTANCE__, __REG__, __VALUE__) WRITE_REG(__INSTANCE__->__REG__, (__VALU
 230:../Drivers/STM32L4xx_HAL_Driver/Inc/stm32l4xx_ll_gpio.h **** 
 231:../Drivers/STM32L4xx_HAL_Driver/Inc/stm32l4xx_ll_gpio.h **** /**
 232:../Drivers/STM32L4xx_HAL_Driver/Inc/stm32l4xx_ll_gpio.h ****   * @brief  Read a value in GPIO register
 233:../Drivers/STM32L4xx_HAL_Driver/Inc/stm32l4xx_ll_gpio.h ****   * @param  __INSTANCE__ GPIO Instance
 234:../Drivers/STM32L4xx_HAL_Driver/Inc/stm32l4xx_ll_gpio.h ****   * @param  __REG__ Register to be read
 235:../Drivers/STM32L4xx_HAL_Driver/Inc/stm32l4xx_ll_gpio.h ****   * @retval Register value
 236:../Drivers/STM32L4xx_HAL_Driver/Inc/stm32l4xx_ll_gpio.h ****   */
 237:../Drivers/STM32L4xx_HAL_Driver/Inc/stm32l4xx_ll_gpio.h **** #define LL_GPIO_ReadReg(__INSTANCE__, __REG__) READ_REG(__INSTANCE__->__REG__)
 238:../Drivers/STM32L4xx_HAL_Driver/Inc/stm32l4xx_ll_gpio.h **** /**
 239:../Drivers/STM32L4xx_HAL_Driver/Inc/stm32l4xx_ll_gpio.h ****   * @}
 240:../Drivers/STM32L4xx_HAL_Driver/Inc/stm32l4xx_ll_gpio.h ****   */
 241:../Drivers/STM32L4xx_HAL_Driver/Inc/stm32l4xx_ll_gpio.h **** 
 242:../Drivers/STM32L4xx_HAL_Driver/Inc/stm32l4xx_ll_gpio.h **** /**
 243:../Drivers/STM32L4xx_HAL_Driver/Inc/stm32l4xx_ll_gpio.h ****   * @}
 244:../Drivers/STM32L4xx_HAL_Driver/Inc/stm32l4xx_ll_gpio.h ****   */
 245:../Drivers/STM32L4xx_HAL_Driver/Inc/stm32l4xx_ll_gpio.h **** 
 246:../Drivers/STM32L4xx_HAL_Driver/Inc/stm32l4xx_ll_gpio.h **** /* Exported functions --------------------------------------------------------*/
 247:../Drivers/STM32L4xx_HAL_Driver/Inc/stm32l4xx_ll_gpio.h **** /** @defgroup GPIO_LL_Exported_Functions GPIO Exported Functions
 248:../Drivers/STM32L4xx_HAL_Driver/Inc/stm32l4xx_ll_gpio.h ****   * @{
 249:../Drivers/STM32L4xx_HAL_Driver/Inc/stm32l4xx_ll_gpio.h ****   */
 250:../Drivers/STM32L4xx_HAL_Driver/Inc/stm32l4xx_ll_gpio.h **** 
 251:../Drivers/STM32L4xx_HAL_Driver/Inc/stm32l4xx_ll_gpio.h **** /** @defgroup GPIO_LL_EF_Port_Configuration Port Configuration
 252:../Drivers/STM32L4xx_HAL_Driver/Inc/stm32l4xx_ll_gpio.h ****   * @{
 253:../Drivers/STM32L4xx_HAL_Driver/Inc/stm32l4xx_ll_gpio.h ****   */
 254:../Drivers/STM32L4xx_HAL_Driver/Inc/stm32l4xx_ll_gpio.h **** 
 255:../Drivers/STM32L4xx_HAL_Driver/Inc/stm32l4xx_ll_gpio.h **** /**
ARM GAS  /tmp/ccwYF4dg.s 			page 19


 256:../Drivers/STM32L4xx_HAL_Driver/Inc/stm32l4xx_ll_gpio.h ****   * @brief  Configure gpio mode for a dedicated pin on dedicated port.
 257:../Drivers/STM32L4xx_HAL_Driver/Inc/stm32l4xx_ll_gpio.h ****   * @note   I/O mode can be Input mode, General purpose output, Alternate function mode or Analog.
 258:../Drivers/STM32L4xx_HAL_Driver/Inc/stm32l4xx_ll_gpio.h ****   * @note   Warning: only one pin can be passed as parameter.
 259:../Drivers/STM32L4xx_HAL_Driver/Inc/stm32l4xx_ll_gpio.h ****   * @rmtoll MODER        MODEy         LL_GPIO_SetPinMode
 260:../Drivers/STM32L4xx_HAL_Driver/Inc/stm32l4xx_ll_gpio.h ****   * @param  GPIOx GPIO Port
 261:../Drivers/STM32L4xx_HAL_Driver/Inc/stm32l4xx_ll_gpio.h ****   * @param  Pin This parameter can be one of the following values:
 262:../Drivers/STM32L4xx_HAL_Driver/Inc/stm32l4xx_ll_gpio.h ****   *         @arg @ref LL_GPIO_PIN_0
 263:../Drivers/STM32L4xx_HAL_Driver/Inc/stm32l4xx_ll_gpio.h ****   *         @arg @ref LL_GPIO_PIN_1
 264:../Drivers/STM32L4xx_HAL_Driver/Inc/stm32l4xx_ll_gpio.h ****   *         @arg @ref LL_GPIO_PIN_2
 265:../Drivers/STM32L4xx_HAL_Driver/Inc/stm32l4xx_ll_gpio.h ****   *         @arg @ref LL_GPIO_PIN_3
 266:../Drivers/STM32L4xx_HAL_Driver/Inc/stm32l4xx_ll_gpio.h ****   *         @arg @ref LL_GPIO_PIN_4
 267:../Drivers/STM32L4xx_HAL_Driver/Inc/stm32l4xx_ll_gpio.h ****   *         @arg @ref LL_GPIO_PIN_5
 268:../Drivers/STM32L4xx_HAL_Driver/Inc/stm32l4xx_ll_gpio.h ****   *         @arg @ref LL_GPIO_PIN_6
 269:../Drivers/STM32L4xx_HAL_Driver/Inc/stm32l4xx_ll_gpio.h ****   *         @arg @ref LL_GPIO_PIN_7
 270:../Drivers/STM32L4xx_HAL_Driver/Inc/stm32l4xx_ll_gpio.h ****   *         @arg @ref LL_GPIO_PIN_8
 271:../Drivers/STM32L4xx_HAL_Driver/Inc/stm32l4xx_ll_gpio.h ****   *         @arg @ref LL_GPIO_PIN_9
 272:../Drivers/STM32L4xx_HAL_Driver/Inc/stm32l4xx_ll_gpio.h ****   *         @arg @ref LL_GPIO_PIN_10
 273:../Drivers/STM32L4xx_HAL_Driver/Inc/stm32l4xx_ll_gpio.h ****   *         @arg @ref LL_GPIO_PIN_11
 274:../Drivers/STM32L4xx_HAL_Driver/Inc/stm32l4xx_ll_gpio.h ****   *         @arg @ref LL_GPIO_PIN_12
 275:../Drivers/STM32L4xx_HAL_Driver/Inc/stm32l4xx_ll_gpio.h ****   *         @arg @ref LL_GPIO_PIN_13
 276:../Drivers/STM32L4xx_HAL_Driver/Inc/stm32l4xx_ll_gpio.h ****   *         @arg @ref LL_GPIO_PIN_14
 277:../Drivers/STM32L4xx_HAL_Driver/Inc/stm32l4xx_ll_gpio.h ****   *         @arg @ref LL_GPIO_PIN_15
 278:../Drivers/STM32L4xx_HAL_Driver/Inc/stm32l4xx_ll_gpio.h ****   * @param  Mode This parameter can be one of the following values:
 279:../Drivers/STM32L4xx_HAL_Driver/Inc/stm32l4xx_ll_gpio.h ****   *         @arg @ref LL_GPIO_MODE_INPUT
 280:../Drivers/STM32L4xx_HAL_Driver/Inc/stm32l4xx_ll_gpio.h ****   *         @arg @ref LL_GPIO_MODE_OUTPUT
 281:../Drivers/STM32L4xx_HAL_Driver/Inc/stm32l4xx_ll_gpio.h ****   *         @arg @ref LL_GPIO_MODE_ALTERNATE
 282:../Drivers/STM32L4xx_HAL_Driver/Inc/stm32l4xx_ll_gpio.h ****   *         @arg @ref LL_GPIO_MODE_ANALOG
 283:../Drivers/STM32L4xx_HAL_Driver/Inc/stm32l4xx_ll_gpio.h ****   * @retval None
 284:../Drivers/STM32L4xx_HAL_Driver/Inc/stm32l4xx_ll_gpio.h ****   */
 285:../Drivers/STM32L4xx_HAL_Driver/Inc/stm32l4xx_ll_gpio.h **** __STATIC_INLINE void LL_GPIO_SetPinMode(GPIO_TypeDef *GPIOx, uint32_t Pin, uint32_t Mode)
 286:../Drivers/STM32L4xx_HAL_Driver/Inc/stm32l4xx_ll_gpio.h **** {
 287:../Drivers/STM32L4xx_HAL_Driver/Inc/stm32l4xx_ll_gpio.h ****   MODIFY_REG(GPIOx->MODER, (GPIO_MODER_MODE0 << (POSITION_VAL(Pin) * 2U)), (Mode << (POSITION_VAL(P
 288:../Drivers/STM32L4xx_HAL_Driver/Inc/stm32l4xx_ll_gpio.h **** }
 289:../Drivers/STM32L4xx_HAL_Driver/Inc/stm32l4xx_ll_gpio.h **** 
 290:../Drivers/STM32L4xx_HAL_Driver/Inc/stm32l4xx_ll_gpio.h **** /**
 291:../Drivers/STM32L4xx_HAL_Driver/Inc/stm32l4xx_ll_gpio.h ****   * @brief  Return gpio mode for a dedicated pin on dedicated port.
 292:../Drivers/STM32L4xx_HAL_Driver/Inc/stm32l4xx_ll_gpio.h ****   * @note   I/O mode can be Input mode, General purpose output, Alternate function mode or Analog.
 293:../Drivers/STM32L4xx_HAL_Driver/Inc/stm32l4xx_ll_gpio.h ****   * @note   Warning: only one pin can be passed as parameter.
 294:../Drivers/STM32L4xx_HAL_Driver/Inc/stm32l4xx_ll_gpio.h ****   * @rmtoll MODER        MODEy         LL_GPIO_GetPinMode
 295:../Drivers/STM32L4xx_HAL_Driver/Inc/stm32l4xx_ll_gpio.h ****   * @param  GPIOx GPIO Port
 296:../Drivers/STM32L4xx_HAL_Driver/Inc/stm32l4xx_ll_gpio.h ****   * @param  Pin This parameter can be one of the following values:
 297:../Drivers/STM32L4xx_HAL_Driver/Inc/stm32l4xx_ll_gpio.h ****   *         @arg @ref LL_GPIO_PIN_0
 298:../Drivers/STM32L4xx_HAL_Driver/Inc/stm32l4xx_ll_gpio.h ****   *         @arg @ref LL_GPIO_PIN_1
 299:../Drivers/STM32L4xx_HAL_Driver/Inc/stm32l4xx_ll_gpio.h ****   *         @arg @ref LL_GPIO_PIN_2
 300:../Drivers/STM32L4xx_HAL_Driver/Inc/stm32l4xx_ll_gpio.h ****   *         @arg @ref LL_GPIO_PIN_3
 301:../Drivers/STM32L4xx_HAL_Driver/Inc/stm32l4xx_ll_gpio.h ****   *         @arg @ref LL_GPIO_PIN_4
 302:../Drivers/STM32L4xx_HAL_Driver/Inc/stm32l4xx_ll_gpio.h ****   *         @arg @ref LL_GPIO_PIN_5
 303:../Drivers/STM32L4xx_HAL_Driver/Inc/stm32l4xx_ll_gpio.h ****   *         @arg @ref LL_GPIO_PIN_6
 304:../Drivers/STM32L4xx_HAL_Driver/Inc/stm32l4xx_ll_gpio.h ****   *         @arg @ref LL_GPIO_PIN_7
 305:../Drivers/STM32L4xx_HAL_Driver/Inc/stm32l4xx_ll_gpio.h ****   *         @arg @ref LL_GPIO_PIN_8
 306:../Drivers/STM32L4xx_HAL_Driver/Inc/stm32l4xx_ll_gpio.h ****   *         @arg @ref LL_GPIO_PIN_9
 307:../Drivers/STM32L4xx_HAL_Driver/Inc/stm32l4xx_ll_gpio.h ****   *         @arg @ref LL_GPIO_PIN_10
 308:../Drivers/STM32L4xx_HAL_Driver/Inc/stm32l4xx_ll_gpio.h ****   *         @arg @ref LL_GPIO_PIN_11
 309:../Drivers/STM32L4xx_HAL_Driver/Inc/stm32l4xx_ll_gpio.h ****   *         @arg @ref LL_GPIO_PIN_12
 310:../Drivers/STM32L4xx_HAL_Driver/Inc/stm32l4xx_ll_gpio.h ****   *         @arg @ref LL_GPIO_PIN_13
 311:../Drivers/STM32L4xx_HAL_Driver/Inc/stm32l4xx_ll_gpio.h ****   *         @arg @ref LL_GPIO_PIN_14
 312:../Drivers/STM32L4xx_HAL_Driver/Inc/stm32l4xx_ll_gpio.h ****   *         @arg @ref LL_GPIO_PIN_15
ARM GAS  /tmp/ccwYF4dg.s 			page 20


 313:../Drivers/STM32L4xx_HAL_Driver/Inc/stm32l4xx_ll_gpio.h ****   * @retval Returned value can be one of the following values:
 314:../Drivers/STM32L4xx_HAL_Driver/Inc/stm32l4xx_ll_gpio.h ****   *         @arg @ref LL_GPIO_MODE_INPUT
 315:../Drivers/STM32L4xx_HAL_Driver/Inc/stm32l4xx_ll_gpio.h ****   *         @arg @ref LL_GPIO_MODE_OUTPUT
 316:../Drivers/STM32L4xx_HAL_Driver/Inc/stm32l4xx_ll_gpio.h ****   *         @arg @ref LL_GPIO_MODE_ALTERNATE
 317:../Drivers/STM32L4xx_HAL_Driver/Inc/stm32l4xx_ll_gpio.h ****   *         @arg @ref LL_GPIO_MODE_ANALOG
 318:../Drivers/STM32L4xx_HAL_Driver/Inc/stm32l4xx_ll_gpio.h ****   */
 319:../Drivers/STM32L4xx_HAL_Driver/Inc/stm32l4xx_ll_gpio.h **** __STATIC_INLINE uint32_t LL_GPIO_GetPinMode(GPIO_TypeDef *GPIOx, uint32_t Pin)
 320:../Drivers/STM32L4xx_HAL_Driver/Inc/stm32l4xx_ll_gpio.h **** {
 321:../Drivers/STM32L4xx_HAL_Driver/Inc/stm32l4xx_ll_gpio.h ****   return (uint32_t)(READ_BIT(GPIOx->MODER,
 322:../Drivers/STM32L4xx_HAL_Driver/Inc/stm32l4xx_ll_gpio.h ****                              (GPIO_MODER_MODE0 << (POSITION_VAL(Pin) * 2U))) >> (POSITION_VAL(Pin) 
 323:../Drivers/STM32L4xx_HAL_Driver/Inc/stm32l4xx_ll_gpio.h **** }
 324:../Drivers/STM32L4xx_HAL_Driver/Inc/stm32l4xx_ll_gpio.h **** 
 325:../Drivers/STM32L4xx_HAL_Driver/Inc/stm32l4xx_ll_gpio.h **** /**
 326:../Drivers/STM32L4xx_HAL_Driver/Inc/stm32l4xx_ll_gpio.h ****   * @brief  Configure gpio output type for several pins on dedicated port.
 327:../Drivers/STM32L4xx_HAL_Driver/Inc/stm32l4xx_ll_gpio.h ****   * @note   Output type as to be set when gpio pin is in output or
 328:../Drivers/STM32L4xx_HAL_Driver/Inc/stm32l4xx_ll_gpio.h ****   *         alternate modes. Possible type are Push-pull or Open-drain.
 329:../Drivers/STM32L4xx_HAL_Driver/Inc/stm32l4xx_ll_gpio.h ****   * @rmtoll OTYPER       OTy           LL_GPIO_SetPinOutputType
 330:../Drivers/STM32L4xx_HAL_Driver/Inc/stm32l4xx_ll_gpio.h ****   * @param  GPIOx GPIO Port
 331:../Drivers/STM32L4xx_HAL_Driver/Inc/stm32l4xx_ll_gpio.h ****   * @param  PinMask This parameter can be a combination of the following values:
 332:../Drivers/STM32L4xx_HAL_Driver/Inc/stm32l4xx_ll_gpio.h ****   *         @arg @ref LL_GPIO_PIN_0
 333:../Drivers/STM32L4xx_HAL_Driver/Inc/stm32l4xx_ll_gpio.h ****   *         @arg @ref LL_GPIO_PIN_1
 334:../Drivers/STM32L4xx_HAL_Driver/Inc/stm32l4xx_ll_gpio.h ****   *         @arg @ref LL_GPIO_PIN_2
 335:../Drivers/STM32L4xx_HAL_Driver/Inc/stm32l4xx_ll_gpio.h ****   *         @arg @ref LL_GPIO_PIN_3
 336:../Drivers/STM32L4xx_HAL_Driver/Inc/stm32l4xx_ll_gpio.h ****   *         @arg @ref LL_GPIO_PIN_4
 337:../Drivers/STM32L4xx_HAL_Driver/Inc/stm32l4xx_ll_gpio.h ****   *         @arg @ref LL_GPIO_PIN_5
 338:../Drivers/STM32L4xx_HAL_Driver/Inc/stm32l4xx_ll_gpio.h ****   *         @arg @ref LL_GPIO_PIN_6
 339:../Drivers/STM32L4xx_HAL_Driver/Inc/stm32l4xx_ll_gpio.h ****   *         @arg @ref LL_GPIO_PIN_7
 340:../Drivers/STM32L4xx_HAL_Driver/Inc/stm32l4xx_ll_gpio.h ****   *         @arg @ref LL_GPIO_PIN_8
 341:../Drivers/STM32L4xx_HAL_Driver/Inc/stm32l4xx_ll_gpio.h ****   *         @arg @ref LL_GPIO_PIN_9
 342:../Drivers/STM32L4xx_HAL_Driver/Inc/stm32l4xx_ll_gpio.h ****   *         @arg @ref LL_GPIO_PIN_10
 343:../Drivers/STM32L4xx_HAL_Driver/Inc/stm32l4xx_ll_gpio.h ****   *         @arg @ref LL_GPIO_PIN_11
 344:../Drivers/STM32L4xx_HAL_Driver/Inc/stm32l4xx_ll_gpio.h ****   *         @arg @ref LL_GPIO_PIN_12
 345:../Drivers/STM32L4xx_HAL_Driver/Inc/stm32l4xx_ll_gpio.h ****   *         @arg @ref LL_GPIO_PIN_13
 346:../Drivers/STM32L4xx_HAL_Driver/Inc/stm32l4xx_ll_gpio.h ****   *         @arg @ref LL_GPIO_PIN_14
 347:../Drivers/STM32L4xx_HAL_Driver/Inc/stm32l4xx_ll_gpio.h ****   *         @arg @ref LL_GPIO_PIN_15
 348:../Drivers/STM32L4xx_HAL_Driver/Inc/stm32l4xx_ll_gpio.h ****   *         @arg @ref LL_GPIO_PIN_ALL
 349:../Drivers/STM32L4xx_HAL_Driver/Inc/stm32l4xx_ll_gpio.h ****   * @param  OutputType This parameter can be one of the following values:
 350:../Drivers/STM32L4xx_HAL_Driver/Inc/stm32l4xx_ll_gpio.h ****   *         @arg @ref LL_GPIO_OUTPUT_PUSHPULL
 351:../Drivers/STM32L4xx_HAL_Driver/Inc/stm32l4xx_ll_gpio.h ****   *         @arg @ref LL_GPIO_OUTPUT_OPENDRAIN
 352:../Drivers/STM32L4xx_HAL_Driver/Inc/stm32l4xx_ll_gpio.h ****   * @retval None
 353:../Drivers/STM32L4xx_HAL_Driver/Inc/stm32l4xx_ll_gpio.h ****   */
 354:../Drivers/STM32L4xx_HAL_Driver/Inc/stm32l4xx_ll_gpio.h **** __STATIC_INLINE void LL_GPIO_SetPinOutputType(GPIO_TypeDef *GPIOx, uint32_t PinMask, uint32_t Outpu
 355:../Drivers/STM32L4xx_HAL_Driver/Inc/stm32l4xx_ll_gpio.h **** {
 356:../Drivers/STM32L4xx_HAL_Driver/Inc/stm32l4xx_ll_gpio.h ****   MODIFY_REG(GPIOx->OTYPER, PinMask, (PinMask * OutputType));
 357:../Drivers/STM32L4xx_HAL_Driver/Inc/stm32l4xx_ll_gpio.h **** }
 358:../Drivers/STM32L4xx_HAL_Driver/Inc/stm32l4xx_ll_gpio.h **** 
 359:../Drivers/STM32L4xx_HAL_Driver/Inc/stm32l4xx_ll_gpio.h **** /**
 360:../Drivers/STM32L4xx_HAL_Driver/Inc/stm32l4xx_ll_gpio.h ****   * @brief  Return gpio output type for several pins on dedicated port.
 361:../Drivers/STM32L4xx_HAL_Driver/Inc/stm32l4xx_ll_gpio.h ****   * @note   Output type as to be set when gpio pin is in output or
 362:../Drivers/STM32L4xx_HAL_Driver/Inc/stm32l4xx_ll_gpio.h ****   *         alternate modes. Possible type are Push-pull or Open-drain.
 363:../Drivers/STM32L4xx_HAL_Driver/Inc/stm32l4xx_ll_gpio.h ****   * @note   Warning: only one pin can be passed as parameter.
 364:../Drivers/STM32L4xx_HAL_Driver/Inc/stm32l4xx_ll_gpio.h ****   * @rmtoll OTYPER       OTy           LL_GPIO_GetPinOutputType
 365:../Drivers/STM32L4xx_HAL_Driver/Inc/stm32l4xx_ll_gpio.h ****   * @param  GPIOx GPIO Port
 366:../Drivers/STM32L4xx_HAL_Driver/Inc/stm32l4xx_ll_gpio.h ****   * @param  Pin This parameter can be one of the following values:
 367:../Drivers/STM32L4xx_HAL_Driver/Inc/stm32l4xx_ll_gpio.h ****   *         @arg @ref LL_GPIO_PIN_0
 368:../Drivers/STM32L4xx_HAL_Driver/Inc/stm32l4xx_ll_gpio.h ****   *         @arg @ref LL_GPIO_PIN_1
 369:../Drivers/STM32L4xx_HAL_Driver/Inc/stm32l4xx_ll_gpio.h ****   *         @arg @ref LL_GPIO_PIN_2
ARM GAS  /tmp/ccwYF4dg.s 			page 21


 370:../Drivers/STM32L4xx_HAL_Driver/Inc/stm32l4xx_ll_gpio.h ****   *         @arg @ref LL_GPIO_PIN_3
 371:../Drivers/STM32L4xx_HAL_Driver/Inc/stm32l4xx_ll_gpio.h ****   *         @arg @ref LL_GPIO_PIN_4
 372:../Drivers/STM32L4xx_HAL_Driver/Inc/stm32l4xx_ll_gpio.h ****   *         @arg @ref LL_GPIO_PIN_5
 373:../Drivers/STM32L4xx_HAL_Driver/Inc/stm32l4xx_ll_gpio.h ****   *         @arg @ref LL_GPIO_PIN_6
 374:../Drivers/STM32L4xx_HAL_Driver/Inc/stm32l4xx_ll_gpio.h ****   *         @arg @ref LL_GPIO_PIN_7
 375:../Drivers/STM32L4xx_HAL_Driver/Inc/stm32l4xx_ll_gpio.h ****   *         @arg @ref LL_GPIO_PIN_8
 376:../Drivers/STM32L4xx_HAL_Driver/Inc/stm32l4xx_ll_gpio.h ****   *         @arg @ref LL_GPIO_PIN_9
 377:../Drivers/STM32L4xx_HAL_Driver/Inc/stm32l4xx_ll_gpio.h ****   *         @arg @ref LL_GPIO_PIN_10
 378:../Drivers/STM32L4xx_HAL_Driver/Inc/stm32l4xx_ll_gpio.h ****   *         @arg @ref LL_GPIO_PIN_11
 379:../Drivers/STM32L4xx_HAL_Driver/Inc/stm32l4xx_ll_gpio.h ****   *         @arg @ref LL_GPIO_PIN_12
 380:../Drivers/STM32L4xx_HAL_Driver/Inc/stm32l4xx_ll_gpio.h ****   *         @arg @ref LL_GPIO_PIN_13
 381:../Drivers/STM32L4xx_HAL_Driver/Inc/stm32l4xx_ll_gpio.h ****   *         @arg @ref LL_GPIO_PIN_14
 382:../Drivers/STM32L4xx_HAL_Driver/Inc/stm32l4xx_ll_gpio.h ****   *         @arg @ref LL_GPIO_PIN_15
 383:../Drivers/STM32L4xx_HAL_Driver/Inc/stm32l4xx_ll_gpio.h ****   *         @arg @ref LL_GPIO_PIN_ALL
 384:../Drivers/STM32L4xx_HAL_Driver/Inc/stm32l4xx_ll_gpio.h ****   * @retval Returned value can be one of the following values:
 385:../Drivers/STM32L4xx_HAL_Driver/Inc/stm32l4xx_ll_gpio.h ****   *         @arg @ref LL_GPIO_OUTPUT_PUSHPULL
 386:../Drivers/STM32L4xx_HAL_Driver/Inc/stm32l4xx_ll_gpio.h ****   *         @arg @ref LL_GPIO_OUTPUT_OPENDRAIN
 387:../Drivers/STM32L4xx_HAL_Driver/Inc/stm32l4xx_ll_gpio.h ****   */
 388:../Drivers/STM32L4xx_HAL_Driver/Inc/stm32l4xx_ll_gpio.h **** __STATIC_INLINE uint32_t LL_GPIO_GetPinOutputType(GPIO_TypeDef *GPIOx, uint32_t Pin)
 389:../Drivers/STM32L4xx_HAL_Driver/Inc/stm32l4xx_ll_gpio.h **** {
 390:../Drivers/STM32L4xx_HAL_Driver/Inc/stm32l4xx_ll_gpio.h ****   return (uint32_t)(READ_BIT(GPIOx->OTYPER, Pin) >> POSITION_VAL(Pin));
 391:../Drivers/STM32L4xx_HAL_Driver/Inc/stm32l4xx_ll_gpio.h **** }
 392:../Drivers/STM32L4xx_HAL_Driver/Inc/stm32l4xx_ll_gpio.h **** 
 393:../Drivers/STM32L4xx_HAL_Driver/Inc/stm32l4xx_ll_gpio.h **** /**
 394:../Drivers/STM32L4xx_HAL_Driver/Inc/stm32l4xx_ll_gpio.h ****   * @brief  Configure gpio speed for a dedicated pin on dedicated port.
 395:../Drivers/STM32L4xx_HAL_Driver/Inc/stm32l4xx_ll_gpio.h ****   * @note   I/O speed can be Low, Medium, Fast or High speed.
 396:../Drivers/STM32L4xx_HAL_Driver/Inc/stm32l4xx_ll_gpio.h ****   * @note   Warning: only one pin can be passed as parameter.
 397:../Drivers/STM32L4xx_HAL_Driver/Inc/stm32l4xx_ll_gpio.h ****   * @note   Refer to datasheet for frequency specifications and the power
 398:../Drivers/STM32L4xx_HAL_Driver/Inc/stm32l4xx_ll_gpio.h ****   *         supply and load conditions for each speed.
 399:../Drivers/STM32L4xx_HAL_Driver/Inc/stm32l4xx_ll_gpio.h ****   * @rmtoll OSPEEDR      OSPEEDy       LL_GPIO_SetPinSpeed
 400:../Drivers/STM32L4xx_HAL_Driver/Inc/stm32l4xx_ll_gpio.h ****   * @param  GPIOx GPIO Port
 401:../Drivers/STM32L4xx_HAL_Driver/Inc/stm32l4xx_ll_gpio.h ****   * @param  Pin This parameter can be one of the following values:
 402:../Drivers/STM32L4xx_HAL_Driver/Inc/stm32l4xx_ll_gpio.h ****   *         @arg @ref LL_GPIO_PIN_0
 403:../Drivers/STM32L4xx_HAL_Driver/Inc/stm32l4xx_ll_gpio.h ****   *         @arg @ref LL_GPIO_PIN_1
 404:../Drivers/STM32L4xx_HAL_Driver/Inc/stm32l4xx_ll_gpio.h ****   *         @arg @ref LL_GPIO_PIN_2
 405:../Drivers/STM32L4xx_HAL_Driver/Inc/stm32l4xx_ll_gpio.h ****   *         @arg @ref LL_GPIO_PIN_3
 406:../Drivers/STM32L4xx_HAL_Driver/Inc/stm32l4xx_ll_gpio.h ****   *         @arg @ref LL_GPIO_PIN_4
 407:../Drivers/STM32L4xx_HAL_Driver/Inc/stm32l4xx_ll_gpio.h ****   *         @arg @ref LL_GPIO_PIN_5
 408:../Drivers/STM32L4xx_HAL_Driver/Inc/stm32l4xx_ll_gpio.h ****   *         @arg @ref LL_GPIO_PIN_6
 409:../Drivers/STM32L4xx_HAL_Driver/Inc/stm32l4xx_ll_gpio.h ****   *         @arg @ref LL_GPIO_PIN_7
 410:../Drivers/STM32L4xx_HAL_Driver/Inc/stm32l4xx_ll_gpio.h ****   *         @arg @ref LL_GPIO_PIN_8
 411:../Drivers/STM32L4xx_HAL_Driver/Inc/stm32l4xx_ll_gpio.h ****   *         @arg @ref LL_GPIO_PIN_9
 412:../Drivers/STM32L4xx_HAL_Driver/Inc/stm32l4xx_ll_gpio.h ****   *         @arg @ref LL_GPIO_PIN_10
 413:../Drivers/STM32L4xx_HAL_Driver/Inc/stm32l4xx_ll_gpio.h ****   *         @arg @ref LL_GPIO_PIN_11
 414:../Drivers/STM32L4xx_HAL_Driver/Inc/stm32l4xx_ll_gpio.h ****   *         @arg @ref LL_GPIO_PIN_12
 415:../Drivers/STM32L4xx_HAL_Driver/Inc/stm32l4xx_ll_gpio.h ****   *         @arg @ref LL_GPIO_PIN_13
 416:../Drivers/STM32L4xx_HAL_Driver/Inc/stm32l4xx_ll_gpio.h ****   *         @arg @ref LL_GPIO_PIN_14
 417:../Drivers/STM32L4xx_HAL_Driver/Inc/stm32l4xx_ll_gpio.h ****   *         @arg @ref LL_GPIO_PIN_15
 418:../Drivers/STM32L4xx_HAL_Driver/Inc/stm32l4xx_ll_gpio.h ****   * @param  Speed This parameter can be one of the following values:
 419:../Drivers/STM32L4xx_HAL_Driver/Inc/stm32l4xx_ll_gpio.h ****   *         @arg @ref LL_GPIO_SPEED_FREQ_LOW
 420:../Drivers/STM32L4xx_HAL_Driver/Inc/stm32l4xx_ll_gpio.h ****   *         @arg @ref LL_GPIO_SPEED_FREQ_MEDIUM
 421:../Drivers/STM32L4xx_HAL_Driver/Inc/stm32l4xx_ll_gpio.h ****   *         @arg @ref LL_GPIO_SPEED_FREQ_HIGH
 422:../Drivers/STM32L4xx_HAL_Driver/Inc/stm32l4xx_ll_gpio.h ****   *         @arg @ref LL_GPIO_SPEED_FREQ_VERY_HIGH
 423:../Drivers/STM32L4xx_HAL_Driver/Inc/stm32l4xx_ll_gpio.h ****   * @retval None
 424:../Drivers/STM32L4xx_HAL_Driver/Inc/stm32l4xx_ll_gpio.h ****   */
 425:../Drivers/STM32L4xx_HAL_Driver/Inc/stm32l4xx_ll_gpio.h **** __STATIC_INLINE void LL_GPIO_SetPinSpeed(GPIO_TypeDef *GPIOx, uint32_t Pin, uint32_t  Speed)
 426:../Drivers/STM32L4xx_HAL_Driver/Inc/stm32l4xx_ll_gpio.h **** {
ARM GAS  /tmp/ccwYF4dg.s 			page 22


 427:../Drivers/STM32L4xx_HAL_Driver/Inc/stm32l4xx_ll_gpio.h ****   MODIFY_REG(GPIOx->OSPEEDR, (GPIO_OSPEEDR_OSPEED0 << (POSITION_VAL(Pin) * 2U)),
 428:../Drivers/STM32L4xx_HAL_Driver/Inc/stm32l4xx_ll_gpio.h ****              (Speed << (POSITION_VAL(Pin) * 2U)));
 429:../Drivers/STM32L4xx_HAL_Driver/Inc/stm32l4xx_ll_gpio.h **** }
 430:../Drivers/STM32L4xx_HAL_Driver/Inc/stm32l4xx_ll_gpio.h **** 
 431:../Drivers/STM32L4xx_HAL_Driver/Inc/stm32l4xx_ll_gpio.h **** /**
 432:../Drivers/STM32L4xx_HAL_Driver/Inc/stm32l4xx_ll_gpio.h ****   * @brief  Return gpio speed for a dedicated pin on dedicated port.
 433:../Drivers/STM32L4xx_HAL_Driver/Inc/stm32l4xx_ll_gpio.h ****   * @note   I/O speed can be Low, Medium, Fast or High speed.
 434:../Drivers/STM32L4xx_HAL_Driver/Inc/stm32l4xx_ll_gpio.h ****   * @note   Warning: only one pin can be passed as parameter.
 435:../Drivers/STM32L4xx_HAL_Driver/Inc/stm32l4xx_ll_gpio.h ****   * @note   Refer to datasheet for frequency specifications and the power
 436:../Drivers/STM32L4xx_HAL_Driver/Inc/stm32l4xx_ll_gpio.h ****   *         supply and load conditions for each speed.
 437:../Drivers/STM32L4xx_HAL_Driver/Inc/stm32l4xx_ll_gpio.h ****   * @rmtoll OSPEEDR      OSPEEDy       LL_GPIO_GetPinSpeed
 438:../Drivers/STM32L4xx_HAL_Driver/Inc/stm32l4xx_ll_gpio.h ****   * @param  GPIOx GPIO Port
 439:../Drivers/STM32L4xx_HAL_Driver/Inc/stm32l4xx_ll_gpio.h ****   * @param  Pin This parameter can be one of the following values:
 440:../Drivers/STM32L4xx_HAL_Driver/Inc/stm32l4xx_ll_gpio.h ****   *         @arg @ref LL_GPIO_PIN_0
 441:../Drivers/STM32L4xx_HAL_Driver/Inc/stm32l4xx_ll_gpio.h ****   *         @arg @ref LL_GPIO_PIN_1
 442:../Drivers/STM32L4xx_HAL_Driver/Inc/stm32l4xx_ll_gpio.h ****   *         @arg @ref LL_GPIO_PIN_2
 443:../Drivers/STM32L4xx_HAL_Driver/Inc/stm32l4xx_ll_gpio.h ****   *         @arg @ref LL_GPIO_PIN_3
 444:../Drivers/STM32L4xx_HAL_Driver/Inc/stm32l4xx_ll_gpio.h ****   *         @arg @ref LL_GPIO_PIN_4
 445:../Drivers/STM32L4xx_HAL_Driver/Inc/stm32l4xx_ll_gpio.h ****   *         @arg @ref LL_GPIO_PIN_5
 446:../Drivers/STM32L4xx_HAL_Driver/Inc/stm32l4xx_ll_gpio.h ****   *         @arg @ref LL_GPIO_PIN_6
 447:../Drivers/STM32L4xx_HAL_Driver/Inc/stm32l4xx_ll_gpio.h ****   *         @arg @ref LL_GPIO_PIN_7
 448:../Drivers/STM32L4xx_HAL_Driver/Inc/stm32l4xx_ll_gpio.h ****   *         @arg @ref LL_GPIO_PIN_8
 449:../Drivers/STM32L4xx_HAL_Driver/Inc/stm32l4xx_ll_gpio.h ****   *         @arg @ref LL_GPIO_PIN_9
 450:../Drivers/STM32L4xx_HAL_Driver/Inc/stm32l4xx_ll_gpio.h ****   *         @arg @ref LL_GPIO_PIN_10
 451:../Drivers/STM32L4xx_HAL_Driver/Inc/stm32l4xx_ll_gpio.h ****   *         @arg @ref LL_GPIO_PIN_11
 452:../Drivers/STM32L4xx_HAL_Driver/Inc/stm32l4xx_ll_gpio.h ****   *         @arg @ref LL_GPIO_PIN_12
 453:../Drivers/STM32L4xx_HAL_Driver/Inc/stm32l4xx_ll_gpio.h ****   *         @arg @ref LL_GPIO_PIN_13
 454:../Drivers/STM32L4xx_HAL_Driver/Inc/stm32l4xx_ll_gpio.h ****   *         @arg @ref LL_GPIO_PIN_14
 455:../Drivers/STM32L4xx_HAL_Driver/Inc/stm32l4xx_ll_gpio.h ****   *         @arg @ref LL_GPIO_PIN_15
 456:../Drivers/STM32L4xx_HAL_Driver/Inc/stm32l4xx_ll_gpio.h ****   * @retval Returned value can be one of the following values:
 457:../Drivers/STM32L4xx_HAL_Driver/Inc/stm32l4xx_ll_gpio.h ****   *         @arg @ref LL_GPIO_SPEED_FREQ_LOW
 458:../Drivers/STM32L4xx_HAL_Driver/Inc/stm32l4xx_ll_gpio.h ****   *         @arg @ref LL_GPIO_SPEED_FREQ_MEDIUM
 459:../Drivers/STM32L4xx_HAL_Driver/Inc/stm32l4xx_ll_gpio.h ****   *         @arg @ref LL_GPIO_SPEED_FREQ_HIGH
 460:../Drivers/STM32L4xx_HAL_Driver/Inc/stm32l4xx_ll_gpio.h ****   *         @arg @ref LL_GPIO_SPEED_FREQ_VERY_HIGH
 461:../Drivers/STM32L4xx_HAL_Driver/Inc/stm32l4xx_ll_gpio.h ****   */
 462:../Drivers/STM32L4xx_HAL_Driver/Inc/stm32l4xx_ll_gpio.h **** __STATIC_INLINE uint32_t LL_GPIO_GetPinSpeed(GPIO_TypeDef *GPIOx, uint32_t Pin)
 463:../Drivers/STM32L4xx_HAL_Driver/Inc/stm32l4xx_ll_gpio.h **** {
 464:../Drivers/STM32L4xx_HAL_Driver/Inc/stm32l4xx_ll_gpio.h ****   return (uint32_t)(READ_BIT(GPIOx->OSPEEDR,
 465:../Drivers/STM32L4xx_HAL_Driver/Inc/stm32l4xx_ll_gpio.h ****                              (GPIO_OSPEEDR_OSPEED0 << (POSITION_VAL(Pin) * 2U))) >> (POSITION_VAL(P
 466:../Drivers/STM32L4xx_HAL_Driver/Inc/stm32l4xx_ll_gpio.h **** }
 467:../Drivers/STM32L4xx_HAL_Driver/Inc/stm32l4xx_ll_gpio.h **** 
 468:../Drivers/STM32L4xx_HAL_Driver/Inc/stm32l4xx_ll_gpio.h **** /**
 469:../Drivers/STM32L4xx_HAL_Driver/Inc/stm32l4xx_ll_gpio.h ****   * @brief  Configure gpio pull-up or pull-down for a dedicated pin on a dedicated port.
 470:../Drivers/STM32L4xx_HAL_Driver/Inc/stm32l4xx_ll_gpio.h ****   * @note   Warning: only one pin can be passed as parameter.
 471:../Drivers/STM32L4xx_HAL_Driver/Inc/stm32l4xx_ll_gpio.h ****   * @rmtoll PUPDR        PUPDy         LL_GPIO_SetPinPull
 472:../Drivers/STM32L4xx_HAL_Driver/Inc/stm32l4xx_ll_gpio.h ****   * @param  GPIOx GPIO Port
 473:../Drivers/STM32L4xx_HAL_Driver/Inc/stm32l4xx_ll_gpio.h ****   * @param  Pin This parameter can be one of the following values:
 474:../Drivers/STM32L4xx_HAL_Driver/Inc/stm32l4xx_ll_gpio.h ****   *         @arg @ref LL_GPIO_PIN_0
 475:../Drivers/STM32L4xx_HAL_Driver/Inc/stm32l4xx_ll_gpio.h ****   *         @arg @ref LL_GPIO_PIN_1
 476:../Drivers/STM32L4xx_HAL_Driver/Inc/stm32l4xx_ll_gpio.h ****   *         @arg @ref LL_GPIO_PIN_2
 477:../Drivers/STM32L4xx_HAL_Driver/Inc/stm32l4xx_ll_gpio.h ****   *         @arg @ref LL_GPIO_PIN_3
 478:../Drivers/STM32L4xx_HAL_Driver/Inc/stm32l4xx_ll_gpio.h ****   *         @arg @ref LL_GPIO_PIN_4
 479:../Drivers/STM32L4xx_HAL_Driver/Inc/stm32l4xx_ll_gpio.h ****   *         @arg @ref LL_GPIO_PIN_5
 480:../Drivers/STM32L4xx_HAL_Driver/Inc/stm32l4xx_ll_gpio.h ****   *         @arg @ref LL_GPIO_PIN_6
 481:../Drivers/STM32L4xx_HAL_Driver/Inc/stm32l4xx_ll_gpio.h ****   *         @arg @ref LL_GPIO_PIN_7
 482:../Drivers/STM32L4xx_HAL_Driver/Inc/stm32l4xx_ll_gpio.h ****   *         @arg @ref LL_GPIO_PIN_8
 483:../Drivers/STM32L4xx_HAL_Driver/Inc/stm32l4xx_ll_gpio.h ****   *         @arg @ref LL_GPIO_PIN_9
ARM GAS  /tmp/ccwYF4dg.s 			page 23


 484:../Drivers/STM32L4xx_HAL_Driver/Inc/stm32l4xx_ll_gpio.h ****   *         @arg @ref LL_GPIO_PIN_10
 485:../Drivers/STM32L4xx_HAL_Driver/Inc/stm32l4xx_ll_gpio.h ****   *         @arg @ref LL_GPIO_PIN_11
 486:../Drivers/STM32L4xx_HAL_Driver/Inc/stm32l4xx_ll_gpio.h ****   *         @arg @ref LL_GPIO_PIN_12
 487:../Drivers/STM32L4xx_HAL_Driver/Inc/stm32l4xx_ll_gpio.h ****   *         @arg @ref LL_GPIO_PIN_13
 488:../Drivers/STM32L4xx_HAL_Driver/Inc/stm32l4xx_ll_gpio.h ****   *         @arg @ref LL_GPIO_PIN_14
 489:../Drivers/STM32L4xx_HAL_Driver/Inc/stm32l4xx_ll_gpio.h ****   *         @arg @ref LL_GPIO_PIN_15
 490:../Drivers/STM32L4xx_HAL_Driver/Inc/stm32l4xx_ll_gpio.h ****   * @param  Pull This parameter can be one of the following values:
 491:../Drivers/STM32L4xx_HAL_Driver/Inc/stm32l4xx_ll_gpio.h ****   *         @arg @ref LL_GPIO_PULL_NO
 492:../Drivers/STM32L4xx_HAL_Driver/Inc/stm32l4xx_ll_gpio.h ****   *         @arg @ref LL_GPIO_PULL_UP
 493:../Drivers/STM32L4xx_HAL_Driver/Inc/stm32l4xx_ll_gpio.h ****   *         @arg @ref LL_GPIO_PULL_DOWN
 494:../Drivers/STM32L4xx_HAL_Driver/Inc/stm32l4xx_ll_gpio.h ****   * @retval None
 495:../Drivers/STM32L4xx_HAL_Driver/Inc/stm32l4xx_ll_gpio.h ****   */
 496:../Drivers/STM32L4xx_HAL_Driver/Inc/stm32l4xx_ll_gpio.h **** __STATIC_INLINE void LL_GPIO_SetPinPull(GPIO_TypeDef *GPIOx, uint32_t Pin, uint32_t Pull)
 497:../Drivers/STM32L4xx_HAL_Driver/Inc/stm32l4xx_ll_gpio.h **** {
 498:../Drivers/STM32L4xx_HAL_Driver/Inc/stm32l4xx_ll_gpio.h ****   MODIFY_REG(GPIOx->PUPDR, (GPIO_PUPDR_PUPD0 << (POSITION_VAL(Pin) * 2U)), (Pull << (POSITION_VAL(P
 499:../Drivers/STM32L4xx_HAL_Driver/Inc/stm32l4xx_ll_gpio.h **** }
 500:../Drivers/STM32L4xx_HAL_Driver/Inc/stm32l4xx_ll_gpio.h **** 
 501:../Drivers/STM32L4xx_HAL_Driver/Inc/stm32l4xx_ll_gpio.h **** /**
 502:../Drivers/STM32L4xx_HAL_Driver/Inc/stm32l4xx_ll_gpio.h ****   * @brief  Return gpio pull-up or pull-down for a dedicated pin on a dedicated port
 503:../Drivers/STM32L4xx_HAL_Driver/Inc/stm32l4xx_ll_gpio.h ****   * @note   Warning: only one pin can be passed as parameter.
 504:../Drivers/STM32L4xx_HAL_Driver/Inc/stm32l4xx_ll_gpio.h ****   * @rmtoll PUPDR        PUPDy         LL_GPIO_GetPinPull
 505:../Drivers/STM32L4xx_HAL_Driver/Inc/stm32l4xx_ll_gpio.h ****   * @param  GPIOx GPIO Port
 506:../Drivers/STM32L4xx_HAL_Driver/Inc/stm32l4xx_ll_gpio.h ****   * @param  Pin This parameter can be one of the following values:
 507:../Drivers/STM32L4xx_HAL_Driver/Inc/stm32l4xx_ll_gpio.h ****   *         @arg @ref LL_GPIO_PIN_0
 508:../Drivers/STM32L4xx_HAL_Driver/Inc/stm32l4xx_ll_gpio.h ****   *         @arg @ref LL_GPIO_PIN_1
 509:../Drivers/STM32L4xx_HAL_Driver/Inc/stm32l4xx_ll_gpio.h ****   *         @arg @ref LL_GPIO_PIN_2
 510:../Drivers/STM32L4xx_HAL_Driver/Inc/stm32l4xx_ll_gpio.h ****   *         @arg @ref LL_GPIO_PIN_3
 511:../Drivers/STM32L4xx_HAL_Driver/Inc/stm32l4xx_ll_gpio.h ****   *         @arg @ref LL_GPIO_PIN_4
 512:../Drivers/STM32L4xx_HAL_Driver/Inc/stm32l4xx_ll_gpio.h ****   *         @arg @ref LL_GPIO_PIN_5
 513:../Drivers/STM32L4xx_HAL_Driver/Inc/stm32l4xx_ll_gpio.h ****   *         @arg @ref LL_GPIO_PIN_6
 514:../Drivers/STM32L4xx_HAL_Driver/Inc/stm32l4xx_ll_gpio.h ****   *         @arg @ref LL_GPIO_PIN_7
 515:../Drivers/STM32L4xx_HAL_Driver/Inc/stm32l4xx_ll_gpio.h ****   *         @arg @ref LL_GPIO_PIN_8
 516:../Drivers/STM32L4xx_HAL_Driver/Inc/stm32l4xx_ll_gpio.h ****   *         @arg @ref LL_GPIO_PIN_9
 517:../Drivers/STM32L4xx_HAL_Driver/Inc/stm32l4xx_ll_gpio.h ****   *         @arg @ref LL_GPIO_PIN_10
 518:../Drivers/STM32L4xx_HAL_Driver/Inc/stm32l4xx_ll_gpio.h ****   *         @arg @ref LL_GPIO_PIN_11
 519:../Drivers/STM32L4xx_HAL_Driver/Inc/stm32l4xx_ll_gpio.h ****   *         @arg @ref LL_GPIO_PIN_12
 520:../Drivers/STM32L4xx_HAL_Driver/Inc/stm32l4xx_ll_gpio.h ****   *         @arg @ref LL_GPIO_PIN_13
 521:../Drivers/STM32L4xx_HAL_Driver/Inc/stm32l4xx_ll_gpio.h ****   *         @arg @ref LL_GPIO_PIN_14
 522:../Drivers/STM32L4xx_HAL_Driver/Inc/stm32l4xx_ll_gpio.h ****   *         @arg @ref LL_GPIO_PIN_15
 523:../Drivers/STM32L4xx_HAL_Driver/Inc/stm32l4xx_ll_gpio.h ****   * @retval Returned value can be one of the following values:
 524:../Drivers/STM32L4xx_HAL_Driver/Inc/stm32l4xx_ll_gpio.h ****   *         @arg @ref LL_GPIO_PULL_NO
 525:../Drivers/STM32L4xx_HAL_Driver/Inc/stm32l4xx_ll_gpio.h ****   *         @arg @ref LL_GPIO_PULL_UP
 526:../Drivers/STM32L4xx_HAL_Driver/Inc/stm32l4xx_ll_gpio.h ****   *         @arg @ref LL_GPIO_PULL_DOWN
 527:../Drivers/STM32L4xx_HAL_Driver/Inc/stm32l4xx_ll_gpio.h ****   */
 528:../Drivers/STM32L4xx_HAL_Driver/Inc/stm32l4xx_ll_gpio.h **** __STATIC_INLINE uint32_t LL_GPIO_GetPinPull(GPIO_TypeDef *GPIOx, uint32_t Pin)
 529:../Drivers/STM32L4xx_HAL_Driver/Inc/stm32l4xx_ll_gpio.h **** {
 530:../Drivers/STM32L4xx_HAL_Driver/Inc/stm32l4xx_ll_gpio.h ****   return (uint32_t)(READ_BIT(GPIOx->PUPDR,
 531:../Drivers/STM32L4xx_HAL_Driver/Inc/stm32l4xx_ll_gpio.h ****                              (GPIO_PUPDR_PUPD0 << (POSITION_VAL(Pin) * 2U))) >> (POSITION_VAL(Pin) 
 532:../Drivers/STM32L4xx_HAL_Driver/Inc/stm32l4xx_ll_gpio.h **** }
 533:../Drivers/STM32L4xx_HAL_Driver/Inc/stm32l4xx_ll_gpio.h **** 
 534:../Drivers/STM32L4xx_HAL_Driver/Inc/stm32l4xx_ll_gpio.h **** /**
 535:../Drivers/STM32L4xx_HAL_Driver/Inc/stm32l4xx_ll_gpio.h ****   * @brief  Configure gpio alternate function of a dedicated pin from 0 to 7 for a dedicated port.
 536:../Drivers/STM32L4xx_HAL_Driver/Inc/stm32l4xx_ll_gpio.h ****   * @note   Possible values are from AF0 to AF15 depending on target.
 537:../Drivers/STM32L4xx_HAL_Driver/Inc/stm32l4xx_ll_gpio.h ****   * @note   Warning: only one pin can be passed as parameter.
 538:../Drivers/STM32L4xx_HAL_Driver/Inc/stm32l4xx_ll_gpio.h ****   * @rmtoll AFRL         AFSELy        LL_GPIO_SetAFPin_0_7
 539:../Drivers/STM32L4xx_HAL_Driver/Inc/stm32l4xx_ll_gpio.h ****   * @param  GPIOx GPIO Port
 540:../Drivers/STM32L4xx_HAL_Driver/Inc/stm32l4xx_ll_gpio.h ****   * @param  Pin This parameter can be one of the following values:
ARM GAS  /tmp/ccwYF4dg.s 			page 24


 541:../Drivers/STM32L4xx_HAL_Driver/Inc/stm32l4xx_ll_gpio.h ****   *         @arg @ref LL_GPIO_PIN_0
 542:../Drivers/STM32L4xx_HAL_Driver/Inc/stm32l4xx_ll_gpio.h ****   *         @arg @ref LL_GPIO_PIN_1
 543:../Drivers/STM32L4xx_HAL_Driver/Inc/stm32l4xx_ll_gpio.h ****   *         @arg @ref LL_GPIO_PIN_2
 544:../Drivers/STM32L4xx_HAL_Driver/Inc/stm32l4xx_ll_gpio.h ****   *         @arg @ref LL_GPIO_PIN_3
 545:../Drivers/STM32L4xx_HAL_Driver/Inc/stm32l4xx_ll_gpio.h ****   *         @arg @ref LL_GPIO_PIN_4
 546:../Drivers/STM32L4xx_HAL_Driver/Inc/stm32l4xx_ll_gpio.h ****   *         @arg @ref LL_GPIO_PIN_5
 547:../Drivers/STM32L4xx_HAL_Driver/Inc/stm32l4xx_ll_gpio.h ****   *         @arg @ref LL_GPIO_PIN_6
 548:../Drivers/STM32L4xx_HAL_Driver/Inc/stm32l4xx_ll_gpio.h ****   *         @arg @ref LL_GPIO_PIN_7
 549:../Drivers/STM32L4xx_HAL_Driver/Inc/stm32l4xx_ll_gpio.h ****   * @param  Alternate This parameter can be one of the following values:
 550:../Drivers/STM32L4xx_HAL_Driver/Inc/stm32l4xx_ll_gpio.h ****   *         @arg @ref LL_GPIO_AF_0
 551:../Drivers/STM32L4xx_HAL_Driver/Inc/stm32l4xx_ll_gpio.h ****   *         @arg @ref LL_GPIO_AF_1
 552:../Drivers/STM32L4xx_HAL_Driver/Inc/stm32l4xx_ll_gpio.h ****   *         @arg @ref LL_GPIO_AF_2
 553:../Drivers/STM32L4xx_HAL_Driver/Inc/stm32l4xx_ll_gpio.h ****   *         @arg @ref LL_GPIO_AF_3
 554:../Drivers/STM32L4xx_HAL_Driver/Inc/stm32l4xx_ll_gpio.h ****   *         @arg @ref LL_GPIO_AF_4
 555:../Drivers/STM32L4xx_HAL_Driver/Inc/stm32l4xx_ll_gpio.h ****   *         @arg @ref LL_GPIO_AF_5
 556:../Drivers/STM32L4xx_HAL_Driver/Inc/stm32l4xx_ll_gpio.h ****   *         @arg @ref LL_GPIO_AF_6
 557:../Drivers/STM32L4xx_HAL_Driver/Inc/stm32l4xx_ll_gpio.h ****   *         @arg @ref LL_GPIO_AF_7
 558:../Drivers/STM32L4xx_HAL_Driver/Inc/stm32l4xx_ll_gpio.h ****   *         @arg @ref LL_GPIO_AF_8
 559:../Drivers/STM32L4xx_HAL_Driver/Inc/stm32l4xx_ll_gpio.h ****   *         @arg @ref LL_GPIO_AF_9
 560:../Drivers/STM32L4xx_HAL_Driver/Inc/stm32l4xx_ll_gpio.h ****   *         @arg @ref LL_GPIO_AF_10
 561:../Drivers/STM32L4xx_HAL_Driver/Inc/stm32l4xx_ll_gpio.h ****   *         @arg @ref LL_GPIO_AF_11
 562:../Drivers/STM32L4xx_HAL_Driver/Inc/stm32l4xx_ll_gpio.h ****   *         @arg @ref LL_GPIO_AF_12
 563:../Drivers/STM32L4xx_HAL_Driver/Inc/stm32l4xx_ll_gpio.h ****   *         @arg @ref LL_GPIO_AF_13
 564:../Drivers/STM32L4xx_HAL_Driver/Inc/stm32l4xx_ll_gpio.h ****   *         @arg @ref LL_GPIO_AF_14
 565:../Drivers/STM32L4xx_HAL_Driver/Inc/stm32l4xx_ll_gpio.h ****   *         @arg @ref LL_GPIO_AF_15
 566:../Drivers/STM32L4xx_HAL_Driver/Inc/stm32l4xx_ll_gpio.h ****   * @retval None
 567:../Drivers/STM32L4xx_HAL_Driver/Inc/stm32l4xx_ll_gpio.h ****   */
 568:../Drivers/STM32L4xx_HAL_Driver/Inc/stm32l4xx_ll_gpio.h **** __STATIC_INLINE void LL_GPIO_SetAFPin_0_7(GPIO_TypeDef *GPIOx, uint32_t Pin, uint32_t Alternate)
 569:../Drivers/STM32L4xx_HAL_Driver/Inc/stm32l4xx_ll_gpio.h **** {
 570:../Drivers/STM32L4xx_HAL_Driver/Inc/stm32l4xx_ll_gpio.h ****   MODIFY_REG(GPIOx->AFR[0], (GPIO_AFRL_AFSEL0 << (POSITION_VAL(Pin) * 4U)),
 571:../Drivers/STM32L4xx_HAL_Driver/Inc/stm32l4xx_ll_gpio.h ****              (Alternate << (POSITION_VAL(Pin) * 4U)));
 572:../Drivers/STM32L4xx_HAL_Driver/Inc/stm32l4xx_ll_gpio.h **** }
 573:../Drivers/STM32L4xx_HAL_Driver/Inc/stm32l4xx_ll_gpio.h **** 
 574:../Drivers/STM32L4xx_HAL_Driver/Inc/stm32l4xx_ll_gpio.h **** /**
 575:../Drivers/STM32L4xx_HAL_Driver/Inc/stm32l4xx_ll_gpio.h ****   * @brief  Return gpio alternate function of a dedicated pin from 0 to 7 for a dedicated port.
 576:../Drivers/STM32L4xx_HAL_Driver/Inc/stm32l4xx_ll_gpio.h ****   * @rmtoll AFRL         AFSELy        LL_GPIO_GetAFPin_0_7
 577:../Drivers/STM32L4xx_HAL_Driver/Inc/stm32l4xx_ll_gpio.h ****   * @param  GPIOx GPIO Port
 578:../Drivers/STM32L4xx_HAL_Driver/Inc/stm32l4xx_ll_gpio.h ****   * @param  Pin This parameter can be one of the following values:
 579:../Drivers/STM32L4xx_HAL_Driver/Inc/stm32l4xx_ll_gpio.h ****   *         @arg @ref LL_GPIO_PIN_0
 580:../Drivers/STM32L4xx_HAL_Driver/Inc/stm32l4xx_ll_gpio.h ****   *         @arg @ref LL_GPIO_PIN_1
 581:../Drivers/STM32L4xx_HAL_Driver/Inc/stm32l4xx_ll_gpio.h ****   *         @arg @ref LL_GPIO_PIN_2
 582:../Drivers/STM32L4xx_HAL_Driver/Inc/stm32l4xx_ll_gpio.h ****   *         @arg @ref LL_GPIO_PIN_3
 583:../Drivers/STM32L4xx_HAL_Driver/Inc/stm32l4xx_ll_gpio.h ****   *         @arg @ref LL_GPIO_PIN_4
 584:../Drivers/STM32L4xx_HAL_Driver/Inc/stm32l4xx_ll_gpio.h ****   *         @arg @ref LL_GPIO_PIN_5
 585:../Drivers/STM32L4xx_HAL_Driver/Inc/stm32l4xx_ll_gpio.h ****   *         @arg @ref LL_GPIO_PIN_6
 586:../Drivers/STM32L4xx_HAL_Driver/Inc/stm32l4xx_ll_gpio.h ****   *         @arg @ref LL_GPIO_PIN_7
 587:../Drivers/STM32L4xx_HAL_Driver/Inc/stm32l4xx_ll_gpio.h ****   * @retval Returned value can be one of the following values:
 588:../Drivers/STM32L4xx_HAL_Driver/Inc/stm32l4xx_ll_gpio.h ****   *         @arg @ref LL_GPIO_AF_0
 589:../Drivers/STM32L4xx_HAL_Driver/Inc/stm32l4xx_ll_gpio.h ****   *         @arg @ref LL_GPIO_AF_1
 590:../Drivers/STM32L4xx_HAL_Driver/Inc/stm32l4xx_ll_gpio.h ****   *         @arg @ref LL_GPIO_AF_2
 591:../Drivers/STM32L4xx_HAL_Driver/Inc/stm32l4xx_ll_gpio.h ****   *         @arg @ref LL_GPIO_AF_3
 592:../Drivers/STM32L4xx_HAL_Driver/Inc/stm32l4xx_ll_gpio.h ****   *         @arg @ref LL_GPIO_AF_4
 593:../Drivers/STM32L4xx_HAL_Driver/Inc/stm32l4xx_ll_gpio.h ****   *         @arg @ref LL_GPIO_AF_5
 594:../Drivers/STM32L4xx_HAL_Driver/Inc/stm32l4xx_ll_gpio.h ****   *         @arg @ref LL_GPIO_AF_6
 595:../Drivers/STM32L4xx_HAL_Driver/Inc/stm32l4xx_ll_gpio.h ****   *         @arg @ref LL_GPIO_AF_7
 596:../Drivers/STM32L4xx_HAL_Driver/Inc/stm32l4xx_ll_gpio.h ****   *         @arg @ref LL_GPIO_AF_8
 597:../Drivers/STM32L4xx_HAL_Driver/Inc/stm32l4xx_ll_gpio.h ****   *         @arg @ref LL_GPIO_AF_9
ARM GAS  /tmp/ccwYF4dg.s 			page 25


 598:../Drivers/STM32L4xx_HAL_Driver/Inc/stm32l4xx_ll_gpio.h ****   *         @arg @ref LL_GPIO_AF_10
 599:../Drivers/STM32L4xx_HAL_Driver/Inc/stm32l4xx_ll_gpio.h ****   *         @arg @ref LL_GPIO_AF_11
 600:../Drivers/STM32L4xx_HAL_Driver/Inc/stm32l4xx_ll_gpio.h ****   *         @arg @ref LL_GPIO_AF_12
 601:../Drivers/STM32L4xx_HAL_Driver/Inc/stm32l4xx_ll_gpio.h ****   *         @arg @ref LL_GPIO_AF_13
 602:../Drivers/STM32L4xx_HAL_Driver/Inc/stm32l4xx_ll_gpio.h ****   *         @arg @ref LL_GPIO_AF_14
 603:../Drivers/STM32L4xx_HAL_Driver/Inc/stm32l4xx_ll_gpio.h ****   *         @arg @ref LL_GPIO_AF_15
 604:../Drivers/STM32L4xx_HAL_Driver/Inc/stm32l4xx_ll_gpio.h ****   */
 605:../Drivers/STM32L4xx_HAL_Driver/Inc/stm32l4xx_ll_gpio.h **** __STATIC_INLINE uint32_t LL_GPIO_GetAFPin_0_7(GPIO_TypeDef *GPIOx, uint32_t Pin)
 606:../Drivers/STM32L4xx_HAL_Driver/Inc/stm32l4xx_ll_gpio.h **** {
 607:../Drivers/STM32L4xx_HAL_Driver/Inc/stm32l4xx_ll_gpio.h ****   return (uint32_t)(READ_BIT(GPIOx->AFR[0],
 608:../Drivers/STM32L4xx_HAL_Driver/Inc/stm32l4xx_ll_gpio.h ****                              (GPIO_AFRL_AFSEL0 << (POSITION_VAL(Pin) * 4U))) >> (POSITION_VAL(Pin) 
 609:../Drivers/STM32L4xx_HAL_Driver/Inc/stm32l4xx_ll_gpio.h **** }
 610:../Drivers/STM32L4xx_HAL_Driver/Inc/stm32l4xx_ll_gpio.h **** 
 611:../Drivers/STM32L4xx_HAL_Driver/Inc/stm32l4xx_ll_gpio.h **** /**
 612:../Drivers/STM32L4xx_HAL_Driver/Inc/stm32l4xx_ll_gpio.h ****   * @brief  Configure gpio alternate function of a dedicated pin from 8 to 15 for a dedicated port.
 613:../Drivers/STM32L4xx_HAL_Driver/Inc/stm32l4xx_ll_gpio.h ****   * @note   Possible values are from AF0 to AF15 depending on target.
 614:../Drivers/STM32L4xx_HAL_Driver/Inc/stm32l4xx_ll_gpio.h ****   * @note   Warning: only one pin can be passed as parameter.
 615:../Drivers/STM32L4xx_HAL_Driver/Inc/stm32l4xx_ll_gpio.h ****   * @rmtoll AFRH         AFSELy        LL_GPIO_SetAFPin_8_15
 616:../Drivers/STM32L4xx_HAL_Driver/Inc/stm32l4xx_ll_gpio.h ****   * @param  GPIOx GPIO Port
 617:../Drivers/STM32L4xx_HAL_Driver/Inc/stm32l4xx_ll_gpio.h ****   * @param  Pin This parameter can be one of the following values:
 618:../Drivers/STM32L4xx_HAL_Driver/Inc/stm32l4xx_ll_gpio.h ****   *         @arg @ref LL_GPIO_PIN_8
 619:../Drivers/STM32L4xx_HAL_Driver/Inc/stm32l4xx_ll_gpio.h ****   *         @arg @ref LL_GPIO_PIN_9
 620:../Drivers/STM32L4xx_HAL_Driver/Inc/stm32l4xx_ll_gpio.h ****   *         @arg @ref LL_GPIO_PIN_10
 621:../Drivers/STM32L4xx_HAL_Driver/Inc/stm32l4xx_ll_gpio.h ****   *         @arg @ref LL_GPIO_PIN_11
 622:../Drivers/STM32L4xx_HAL_Driver/Inc/stm32l4xx_ll_gpio.h ****   *         @arg @ref LL_GPIO_PIN_12
 623:../Drivers/STM32L4xx_HAL_Driver/Inc/stm32l4xx_ll_gpio.h ****   *         @arg @ref LL_GPIO_PIN_13
 624:../Drivers/STM32L4xx_HAL_Driver/Inc/stm32l4xx_ll_gpio.h ****   *         @arg @ref LL_GPIO_PIN_14
 625:../Drivers/STM32L4xx_HAL_Driver/Inc/stm32l4xx_ll_gpio.h ****   *         @arg @ref LL_GPIO_PIN_15
 626:../Drivers/STM32L4xx_HAL_Driver/Inc/stm32l4xx_ll_gpio.h ****   * @param  Alternate This parameter can be one of the following values:
 627:../Drivers/STM32L4xx_HAL_Driver/Inc/stm32l4xx_ll_gpio.h ****   *         @arg @ref LL_GPIO_AF_0
 628:../Drivers/STM32L4xx_HAL_Driver/Inc/stm32l4xx_ll_gpio.h ****   *         @arg @ref LL_GPIO_AF_1
 629:../Drivers/STM32L4xx_HAL_Driver/Inc/stm32l4xx_ll_gpio.h ****   *         @arg @ref LL_GPIO_AF_2
 630:../Drivers/STM32L4xx_HAL_Driver/Inc/stm32l4xx_ll_gpio.h ****   *         @arg @ref LL_GPIO_AF_3
 631:../Drivers/STM32L4xx_HAL_Driver/Inc/stm32l4xx_ll_gpio.h ****   *         @arg @ref LL_GPIO_AF_4
 632:../Drivers/STM32L4xx_HAL_Driver/Inc/stm32l4xx_ll_gpio.h ****   *         @arg @ref LL_GPIO_AF_5
 633:../Drivers/STM32L4xx_HAL_Driver/Inc/stm32l4xx_ll_gpio.h ****   *         @arg @ref LL_GPIO_AF_6
 634:../Drivers/STM32L4xx_HAL_Driver/Inc/stm32l4xx_ll_gpio.h ****   *         @arg @ref LL_GPIO_AF_7
 635:../Drivers/STM32L4xx_HAL_Driver/Inc/stm32l4xx_ll_gpio.h ****   *         @arg @ref LL_GPIO_AF_8
 636:../Drivers/STM32L4xx_HAL_Driver/Inc/stm32l4xx_ll_gpio.h ****   *         @arg @ref LL_GPIO_AF_9
 637:../Drivers/STM32L4xx_HAL_Driver/Inc/stm32l4xx_ll_gpio.h ****   *         @arg @ref LL_GPIO_AF_10
 638:../Drivers/STM32L4xx_HAL_Driver/Inc/stm32l4xx_ll_gpio.h ****   *         @arg @ref LL_GPIO_AF_11
 639:../Drivers/STM32L4xx_HAL_Driver/Inc/stm32l4xx_ll_gpio.h ****   *         @arg @ref LL_GPIO_AF_12
 640:../Drivers/STM32L4xx_HAL_Driver/Inc/stm32l4xx_ll_gpio.h ****   *         @arg @ref LL_GPIO_AF_13
 641:../Drivers/STM32L4xx_HAL_Driver/Inc/stm32l4xx_ll_gpio.h ****   *         @arg @ref LL_GPIO_AF_14
 642:../Drivers/STM32L4xx_HAL_Driver/Inc/stm32l4xx_ll_gpio.h ****   *         @arg @ref LL_GPIO_AF_15
 643:../Drivers/STM32L4xx_HAL_Driver/Inc/stm32l4xx_ll_gpio.h ****   * @retval None
 644:../Drivers/STM32L4xx_HAL_Driver/Inc/stm32l4xx_ll_gpio.h ****   */
 645:../Drivers/STM32L4xx_HAL_Driver/Inc/stm32l4xx_ll_gpio.h **** __STATIC_INLINE void LL_GPIO_SetAFPin_8_15(GPIO_TypeDef *GPIOx, uint32_t Pin, uint32_t Alternate)
 646:../Drivers/STM32L4xx_HAL_Driver/Inc/stm32l4xx_ll_gpio.h **** {
 647:../Drivers/STM32L4xx_HAL_Driver/Inc/stm32l4xx_ll_gpio.h ****   MODIFY_REG(GPIOx->AFR[1], (GPIO_AFRH_AFSEL8 << (POSITION_VAL(Pin >> 8U) * 4U)),
 648:../Drivers/STM32L4xx_HAL_Driver/Inc/stm32l4xx_ll_gpio.h ****              (Alternate << (POSITION_VAL(Pin >> 8U) * 4U)));
 649:../Drivers/STM32L4xx_HAL_Driver/Inc/stm32l4xx_ll_gpio.h **** }
 650:../Drivers/STM32L4xx_HAL_Driver/Inc/stm32l4xx_ll_gpio.h **** 
 651:../Drivers/STM32L4xx_HAL_Driver/Inc/stm32l4xx_ll_gpio.h **** /**
 652:../Drivers/STM32L4xx_HAL_Driver/Inc/stm32l4xx_ll_gpio.h ****   * @brief  Return gpio alternate function of a dedicated pin from 8 to 15 for a dedicated port.
 653:../Drivers/STM32L4xx_HAL_Driver/Inc/stm32l4xx_ll_gpio.h ****   * @note   Possible values are from AF0 to AF15 depending on target.
 654:../Drivers/STM32L4xx_HAL_Driver/Inc/stm32l4xx_ll_gpio.h ****   * @rmtoll AFRH         AFSELy        LL_GPIO_GetAFPin_8_15
ARM GAS  /tmp/ccwYF4dg.s 			page 26


 655:../Drivers/STM32L4xx_HAL_Driver/Inc/stm32l4xx_ll_gpio.h ****   * @param  GPIOx GPIO Port
 656:../Drivers/STM32L4xx_HAL_Driver/Inc/stm32l4xx_ll_gpio.h ****   * @param  Pin This parameter can be one of the following values:
 657:../Drivers/STM32L4xx_HAL_Driver/Inc/stm32l4xx_ll_gpio.h ****   *         @arg @ref LL_GPIO_PIN_8
 658:../Drivers/STM32L4xx_HAL_Driver/Inc/stm32l4xx_ll_gpio.h ****   *         @arg @ref LL_GPIO_PIN_9
 659:../Drivers/STM32L4xx_HAL_Driver/Inc/stm32l4xx_ll_gpio.h ****   *         @arg @ref LL_GPIO_PIN_10
 660:../Drivers/STM32L4xx_HAL_Driver/Inc/stm32l4xx_ll_gpio.h ****   *         @arg @ref LL_GPIO_PIN_11
 661:../Drivers/STM32L4xx_HAL_Driver/Inc/stm32l4xx_ll_gpio.h ****   *         @arg @ref LL_GPIO_PIN_12
 662:../Drivers/STM32L4xx_HAL_Driver/Inc/stm32l4xx_ll_gpio.h ****   *         @arg @ref LL_GPIO_PIN_13
 663:../Drivers/STM32L4xx_HAL_Driver/Inc/stm32l4xx_ll_gpio.h ****   *         @arg @ref LL_GPIO_PIN_14
 664:../Drivers/STM32L4xx_HAL_Driver/Inc/stm32l4xx_ll_gpio.h ****   *         @arg @ref LL_GPIO_PIN_15
 665:../Drivers/STM32L4xx_HAL_Driver/Inc/stm32l4xx_ll_gpio.h ****   * @retval Returned value can be one of the following values:
 666:../Drivers/STM32L4xx_HAL_Driver/Inc/stm32l4xx_ll_gpio.h ****   *         @arg @ref LL_GPIO_AF_0
 667:../Drivers/STM32L4xx_HAL_Driver/Inc/stm32l4xx_ll_gpio.h ****   *         @arg @ref LL_GPIO_AF_1
 668:../Drivers/STM32L4xx_HAL_Driver/Inc/stm32l4xx_ll_gpio.h ****   *         @arg @ref LL_GPIO_AF_2
 669:../Drivers/STM32L4xx_HAL_Driver/Inc/stm32l4xx_ll_gpio.h ****   *         @arg @ref LL_GPIO_AF_3
 670:../Drivers/STM32L4xx_HAL_Driver/Inc/stm32l4xx_ll_gpio.h ****   *         @arg @ref LL_GPIO_AF_4
 671:../Drivers/STM32L4xx_HAL_Driver/Inc/stm32l4xx_ll_gpio.h ****   *         @arg @ref LL_GPIO_AF_5
 672:../Drivers/STM32L4xx_HAL_Driver/Inc/stm32l4xx_ll_gpio.h ****   *         @arg @ref LL_GPIO_AF_6
 673:../Drivers/STM32L4xx_HAL_Driver/Inc/stm32l4xx_ll_gpio.h ****   *         @arg @ref LL_GPIO_AF_7
 674:../Drivers/STM32L4xx_HAL_Driver/Inc/stm32l4xx_ll_gpio.h ****   *         @arg @ref LL_GPIO_AF_8
 675:../Drivers/STM32L4xx_HAL_Driver/Inc/stm32l4xx_ll_gpio.h ****   *         @arg @ref LL_GPIO_AF_9
 676:../Drivers/STM32L4xx_HAL_Driver/Inc/stm32l4xx_ll_gpio.h ****   *         @arg @ref LL_GPIO_AF_10
 677:../Drivers/STM32L4xx_HAL_Driver/Inc/stm32l4xx_ll_gpio.h ****   *         @arg @ref LL_GPIO_AF_11
 678:../Drivers/STM32L4xx_HAL_Driver/Inc/stm32l4xx_ll_gpio.h ****   *         @arg @ref LL_GPIO_AF_12
 679:../Drivers/STM32L4xx_HAL_Driver/Inc/stm32l4xx_ll_gpio.h ****   *         @arg @ref LL_GPIO_AF_13
 680:../Drivers/STM32L4xx_HAL_Driver/Inc/stm32l4xx_ll_gpio.h ****   *         @arg @ref LL_GPIO_AF_14
 681:../Drivers/STM32L4xx_HAL_Driver/Inc/stm32l4xx_ll_gpio.h ****   *         @arg @ref LL_GPIO_AF_15
 682:../Drivers/STM32L4xx_HAL_Driver/Inc/stm32l4xx_ll_gpio.h ****   */
 683:../Drivers/STM32L4xx_HAL_Driver/Inc/stm32l4xx_ll_gpio.h **** __STATIC_INLINE uint32_t LL_GPIO_GetAFPin_8_15(GPIO_TypeDef *GPIOx, uint32_t Pin)
 684:../Drivers/STM32L4xx_HAL_Driver/Inc/stm32l4xx_ll_gpio.h **** {
 685:../Drivers/STM32L4xx_HAL_Driver/Inc/stm32l4xx_ll_gpio.h ****   return (uint32_t)(READ_BIT(GPIOx->AFR[1],
 686:../Drivers/STM32L4xx_HAL_Driver/Inc/stm32l4xx_ll_gpio.h ****                              (GPIO_AFRH_AFSEL8 << (POSITION_VAL(Pin >> 8U) * 4U))) >> (POSITION_VAL
 687:../Drivers/STM32L4xx_HAL_Driver/Inc/stm32l4xx_ll_gpio.h **** }
 688:../Drivers/STM32L4xx_HAL_Driver/Inc/stm32l4xx_ll_gpio.h **** 
 689:../Drivers/STM32L4xx_HAL_Driver/Inc/stm32l4xx_ll_gpio.h **** #if defined(GPIO_ASCR_ASC0)
 690:../Drivers/STM32L4xx_HAL_Driver/Inc/stm32l4xx_ll_gpio.h **** /**
 691:../Drivers/STM32L4xx_HAL_Driver/Inc/stm32l4xx_ll_gpio.h ****   * @brief  Connect analog switch to ADC input of several pins for a dedicated port.
 692:../Drivers/STM32L4xx_HAL_Driver/Inc/stm32l4xx_ll_gpio.h ****   * @note   This bit must be set prior to the ADC conversion.
 693:../Drivers/STM32L4xx_HAL_Driver/Inc/stm32l4xx_ll_gpio.h ****   *         Only the IO which connected to the ADC input are effective.
 694:../Drivers/STM32L4xx_HAL_Driver/Inc/stm32l4xx_ll_gpio.h ****   *         Other IO must be kept reset value
 695:../Drivers/STM32L4xx_HAL_Driver/Inc/stm32l4xx_ll_gpio.h ****   * @rmtoll ASCR         ASCy          LL_GPIO_EnablePinAnalogControl
 696:../Drivers/STM32L4xx_HAL_Driver/Inc/stm32l4xx_ll_gpio.h ****   * @param  GPIOx GPIO Port
 697:../Drivers/STM32L4xx_HAL_Driver/Inc/stm32l4xx_ll_gpio.h ****   * @param  PinMask This parameter can be a combination of the following values:
 698:../Drivers/STM32L4xx_HAL_Driver/Inc/stm32l4xx_ll_gpio.h ****   *         @arg @ref LL_GPIO_PIN_0
 699:../Drivers/STM32L4xx_HAL_Driver/Inc/stm32l4xx_ll_gpio.h ****   *         @arg @ref LL_GPIO_PIN_1
 700:../Drivers/STM32L4xx_HAL_Driver/Inc/stm32l4xx_ll_gpio.h ****   *         @arg @ref LL_GPIO_PIN_2
 701:../Drivers/STM32L4xx_HAL_Driver/Inc/stm32l4xx_ll_gpio.h ****   *         @arg @ref LL_GPIO_PIN_3
 702:../Drivers/STM32L4xx_HAL_Driver/Inc/stm32l4xx_ll_gpio.h ****   *         @arg @ref LL_GPIO_PIN_4
 703:../Drivers/STM32L4xx_HAL_Driver/Inc/stm32l4xx_ll_gpio.h ****   *         @arg @ref LL_GPIO_PIN_5
 704:../Drivers/STM32L4xx_HAL_Driver/Inc/stm32l4xx_ll_gpio.h ****   *         @arg @ref LL_GPIO_PIN_6
 705:../Drivers/STM32L4xx_HAL_Driver/Inc/stm32l4xx_ll_gpio.h ****   *         @arg @ref LL_GPIO_PIN_7
 706:../Drivers/STM32L4xx_HAL_Driver/Inc/stm32l4xx_ll_gpio.h ****   *         @arg @ref LL_GPIO_PIN_8
 707:../Drivers/STM32L4xx_HAL_Driver/Inc/stm32l4xx_ll_gpio.h ****   *         @arg @ref LL_GPIO_PIN_9
 708:../Drivers/STM32L4xx_HAL_Driver/Inc/stm32l4xx_ll_gpio.h ****   *         @arg @ref LL_GPIO_PIN_10
 709:../Drivers/STM32L4xx_HAL_Driver/Inc/stm32l4xx_ll_gpio.h ****   *         @arg @ref LL_GPIO_PIN_11
 710:../Drivers/STM32L4xx_HAL_Driver/Inc/stm32l4xx_ll_gpio.h ****   *         @arg @ref LL_GPIO_PIN_12
 711:../Drivers/STM32L4xx_HAL_Driver/Inc/stm32l4xx_ll_gpio.h ****   *         @arg @ref LL_GPIO_PIN_13
ARM GAS  /tmp/ccwYF4dg.s 			page 27


 712:../Drivers/STM32L4xx_HAL_Driver/Inc/stm32l4xx_ll_gpio.h ****   *         @arg @ref LL_GPIO_PIN_14
 713:../Drivers/STM32L4xx_HAL_Driver/Inc/stm32l4xx_ll_gpio.h ****   *         @arg @ref LL_GPIO_PIN_15
 714:../Drivers/STM32L4xx_HAL_Driver/Inc/stm32l4xx_ll_gpio.h ****   *         @arg @ref LL_GPIO_PIN_ALL
 715:../Drivers/STM32L4xx_HAL_Driver/Inc/stm32l4xx_ll_gpio.h ****   * @retval None
 716:../Drivers/STM32L4xx_HAL_Driver/Inc/stm32l4xx_ll_gpio.h ****   */
 717:../Drivers/STM32L4xx_HAL_Driver/Inc/stm32l4xx_ll_gpio.h **** __STATIC_INLINE void LL_GPIO_EnablePinAnalogControl(GPIO_TypeDef *GPIOx, uint32_t PinMask)
 718:../Drivers/STM32L4xx_HAL_Driver/Inc/stm32l4xx_ll_gpio.h **** {
 719:../Drivers/STM32L4xx_HAL_Driver/Inc/stm32l4xx_ll_gpio.h ****   SET_BIT(GPIOx->ASCR, PinMask);
 720:../Drivers/STM32L4xx_HAL_Driver/Inc/stm32l4xx_ll_gpio.h **** }
 721:../Drivers/STM32L4xx_HAL_Driver/Inc/stm32l4xx_ll_gpio.h **** 
 722:../Drivers/STM32L4xx_HAL_Driver/Inc/stm32l4xx_ll_gpio.h **** /**
 723:../Drivers/STM32L4xx_HAL_Driver/Inc/stm32l4xx_ll_gpio.h ****   * @brief  Disconnect analog switch to ADC input of several pins for a dedicated port.
 724:../Drivers/STM32L4xx_HAL_Driver/Inc/stm32l4xx_ll_gpio.h ****   * @rmtoll ASCR         ASCy          LL_GPIO_DisablePinAnalogControl
 725:../Drivers/STM32L4xx_HAL_Driver/Inc/stm32l4xx_ll_gpio.h ****   * @param  GPIOx GPIO Port
 726:../Drivers/STM32L4xx_HAL_Driver/Inc/stm32l4xx_ll_gpio.h ****   * @param  PinMask This parameter can be a combination of the following values:
 727:../Drivers/STM32L4xx_HAL_Driver/Inc/stm32l4xx_ll_gpio.h ****   *         @arg @ref LL_GPIO_PIN_0
 728:../Drivers/STM32L4xx_HAL_Driver/Inc/stm32l4xx_ll_gpio.h ****   *         @arg @ref LL_GPIO_PIN_1
 729:../Drivers/STM32L4xx_HAL_Driver/Inc/stm32l4xx_ll_gpio.h ****   *         @arg @ref LL_GPIO_PIN_2
 730:../Drivers/STM32L4xx_HAL_Driver/Inc/stm32l4xx_ll_gpio.h ****   *         @arg @ref LL_GPIO_PIN_3
 731:../Drivers/STM32L4xx_HAL_Driver/Inc/stm32l4xx_ll_gpio.h ****   *         @arg @ref LL_GPIO_PIN_4
 732:../Drivers/STM32L4xx_HAL_Driver/Inc/stm32l4xx_ll_gpio.h ****   *         @arg @ref LL_GPIO_PIN_5
 733:../Drivers/STM32L4xx_HAL_Driver/Inc/stm32l4xx_ll_gpio.h ****   *         @arg @ref LL_GPIO_PIN_6
 734:../Drivers/STM32L4xx_HAL_Driver/Inc/stm32l4xx_ll_gpio.h ****   *         @arg @ref LL_GPIO_PIN_7
 735:../Drivers/STM32L4xx_HAL_Driver/Inc/stm32l4xx_ll_gpio.h ****   *         @arg @ref LL_GPIO_PIN_8
 736:../Drivers/STM32L4xx_HAL_Driver/Inc/stm32l4xx_ll_gpio.h ****   *         @arg @ref LL_GPIO_PIN_9
 737:../Drivers/STM32L4xx_HAL_Driver/Inc/stm32l4xx_ll_gpio.h ****   *         @arg @ref LL_GPIO_PIN_10
 738:../Drivers/STM32L4xx_HAL_Driver/Inc/stm32l4xx_ll_gpio.h ****   *         @arg @ref LL_GPIO_PIN_11
 739:../Drivers/STM32L4xx_HAL_Driver/Inc/stm32l4xx_ll_gpio.h ****   *         @arg @ref LL_GPIO_PIN_12
 740:../Drivers/STM32L4xx_HAL_Driver/Inc/stm32l4xx_ll_gpio.h ****   *         @arg @ref LL_GPIO_PIN_13
 741:../Drivers/STM32L4xx_HAL_Driver/Inc/stm32l4xx_ll_gpio.h ****   *         @arg @ref LL_GPIO_PIN_14
 742:../Drivers/STM32L4xx_HAL_Driver/Inc/stm32l4xx_ll_gpio.h ****   *         @arg @ref LL_GPIO_PIN_15
 743:../Drivers/STM32L4xx_HAL_Driver/Inc/stm32l4xx_ll_gpio.h ****   *         @arg @ref LL_GPIO_PIN_ALL
 744:../Drivers/STM32L4xx_HAL_Driver/Inc/stm32l4xx_ll_gpio.h ****   * @retval None
 745:../Drivers/STM32L4xx_HAL_Driver/Inc/stm32l4xx_ll_gpio.h ****   */
 746:../Drivers/STM32L4xx_HAL_Driver/Inc/stm32l4xx_ll_gpio.h **** __STATIC_INLINE void LL_GPIO_DisablePinAnalogControl(GPIO_TypeDef *GPIOx, uint32_t PinMask)
 747:../Drivers/STM32L4xx_HAL_Driver/Inc/stm32l4xx_ll_gpio.h **** {
 748:../Drivers/STM32L4xx_HAL_Driver/Inc/stm32l4xx_ll_gpio.h ****   CLEAR_BIT(GPIOx->ASCR, PinMask);
 749:../Drivers/STM32L4xx_HAL_Driver/Inc/stm32l4xx_ll_gpio.h **** }
 750:../Drivers/STM32L4xx_HAL_Driver/Inc/stm32l4xx_ll_gpio.h **** #endif /* GPIO_ASCR_ASC0 */
 751:../Drivers/STM32L4xx_HAL_Driver/Inc/stm32l4xx_ll_gpio.h **** 
 752:../Drivers/STM32L4xx_HAL_Driver/Inc/stm32l4xx_ll_gpio.h **** /**
 753:../Drivers/STM32L4xx_HAL_Driver/Inc/stm32l4xx_ll_gpio.h ****   * @brief  Lock configuration of several pins for a dedicated port.
 754:../Drivers/STM32L4xx_HAL_Driver/Inc/stm32l4xx_ll_gpio.h ****   * @note   When the lock sequence has been applied on a port bit, the
 755:../Drivers/STM32L4xx_HAL_Driver/Inc/stm32l4xx_ll_gpio.h ****   *         value of this port bit can no longer be modified until the
 756:../Drivers/STM32L4xx_HAL_Driver/Inc/stm32l4xx_ll_gpio.h ****   *         next reset.
 757:../Drivers/STM32L4xx_HAL_Driver/Inc/stm32l4xx_ll_gpio.h ****   * @note   Each lock bit freezes a specific configuration register
 758:../Drivers/STM32L4xx_HAL_Driver/Inc/stm32l4xx_ll_gpio.h ****   *         (control and alternate function registers).
 759:../Drivers/STM32L4xx_HAL_Driver/Inc/stm32l4xx_ll_gpio.h ****   * @rmtoll LCKR         LCKK          LL_GPIO_LockPin
 760:../Drivers/STM32L4xx_HAL_Driver/Inc/stm32l4xx_ll_gpio.h ****   * @param  GPIOx GPIO Port
 761:../Drivers/STM32L4xx_HAL_Driver/Inc/stm32l4xx_ll_gpio.h ****   * @param  PinMask This parameter can be a combination of the following values:
 762:../Drivers/STM32L4xx_HAL_Driver/Inc/stm32l4xx_ll_gpio.h ****   *         @arg @ref LL_GPIO_PIN_0
 763:../Drivers/STM32L4xx_HAL_Driver/Inc/stm32l4xx_ll_gpio.h ****   *         @arg @ref LL_GPIO_PIN_1
 764:../Drivers/STM32L4xx_HAL_Driver/Inc/stm32l4xx_ll_gpio.h ****   *         @arg @ref LL_GPIO_PIN_2
 765:../Drivers/STM32L4xx_HAL_Driver/Inc/stm32l4xx_ll_gpio.h ****   *         @arg @ref LL_GPIO_PIN_3
 766:../Drivers/STM32L4xx_HAL_Driver/Inc/stm32l4xx_ll_gpio.h ****   *         @arg @ref LL_GPIO_PIN_4
 767:../Drivers/STM32L4xx_HAL_Driver/Inc/stm32l4xx_ll_gpio.h ****   *         @arg @ref LL_GPIO_PIN_5
 768:../Drivers/STM32L4xx_HAL_Driver/Inc/stm32l4xx_ll_gpio.h ****   *         @arg @ref LL_GPIO_PIN_6
ARM GAS  /tmp/ccwYF4dg.s 			page 28


 769:../Drivers/STM32L4xx_HAL_Driver/Inc/stm32l4xx_ll_gpio.h ****   *         @arg @ref LL_GPIO_PIN_7
 770:../Drivers/STM32L4xx_HAL_Driver/Inc/stm32l4xx_ll_gpio.h ****   *         @arg @ref LL_GPIO_PIN_8
 771:../Drivers/STM32L4xx_HAL_Driver/Inc/stm32l4xx_ll_gpio.h ****   *         @arg @ref LL_GPIO_PIN_9
 772:../Drivers/STM32L4xx_HAL_Driver/Inc/stm32l4xx_ll_gpio.h ****   *         @arg @ref LL_GPIO_PIN_10
 773:../Drivers/STM32L4xx_HAL_Driver/Inc/stm32l4xx_ll_gpio.h ****   *         @arg @ref LL_GPIO_PIN_11
 774:../Drivers/STM32L4xx_HAL_Driver/Inc/stm32l4xx_ll_gpio.h ****   *         @arg @ref LL_GPIO_PIN_12
 775:../Drivers/STM32L4xx_HAL_Driver/Inc/stm32l4xx_ll_gpio.h ****   *         @arg @ref LL_GPIO_PIN_13
 776:../Drivers/STM32L4xx_HAL_Driver/Inc/stm32l4xx_ll_gpio.h ****   *         @arg @ref LL_GPIO_PIN_14
 777:../Drivers/STM32L4xx_HAL_Driver/Inc/stm32l4xx_ll_gpio.h ****   *         @arg @ref LL_GPIO_PIN_15
 778:../Drivers/STM32L4xx_HAL_Driver/Inc/stm32l4xx_ll_gpio.h ****   *         @arg @ref LL_GPIO_PIN_ALL
 779:../Drivers/STM32L4xx_HAL_Driver/Inc/stm32l4xx_ll_gpio.h ****   * @retval None
 780:../Drivers/STM32L4xx_HAL_Driver/Inc/stm32l4xx_ll_gpio.h ****   */
 781:../Drivers/STM32L4xx_HAL_Driver/Inc/stm32l4xx_ll_gpio.h **** __STATIC_INLINE void LL_GPIO_LockPin(GPIO_TypeDef *GPIOx, uint32_t PinMask)
 782:../Drivers/STM32L4xx_HAL_Driver/Inc/stm32l4xx_ll_gpio.h **** {
 783:../Drivers/STM32L4xx_HAL_Driver/Inc/stm32l4xx_ll_gpio.h ****   __IO uint32_t temp;
 784:../Drivers/STM32L4xx_HAL_Driver/Inc/stm32l4xx_ll_gpio.h ****   WRITE_REG(GPIOx->LCKR, GPIO_LCKR_LCKK | PinMask);
 785:../Drivers/STM32L4xx_HAL_Driver/Inc/stm32l4xx_ll_gpio.h ****   WRITE_REG(GPIOx->LCKR, PinMask);
 786:../Drivers/STM32L4xx_HAL_Driver/Inc/stm32l4xx_ll_gpio.h ****   WRITE_REG(GPIOx->LCKR, GPIO_LCKR_LCKK | PinMask);
 787:../Drivers/STM32L4xx_HAL_Driver/Inc/stm32l4xx_ll_gpio.h ****   /* Read LCKK register. This read is mandatory to complete key lock sequence */
 788:../Drivers/STM32L4xx_HAL_Driver/Inc/stm32l4xx_ll_gpio.h ****   temp = READ_REG(GPIOx->LCKR);
 789:../Drivers/STM32L4xx_HAL_Driver/Inc/stm32l4xx_ll_gpio.h ****   (void) temp;
 790:../Drivers/STM32L4xx_HAL_Driver/Inc/stm32l4xx_ll_gpio.h **** }
 791:../Drivers/STM32L4xx_HAL_Driver/Inc/stm32l4xx_ll_gpio.h **** 
 792:../Drivers/STM32L4xx_HAL_Driver/Inc/stm32l4xx_ll_gpio.h **** /**
 793:../Drivers/STM32L4xx_HAL_Driver/Inc/stm32l4xx_ll_gpio.h ****   * @brief  Return 1 if all pins passed as parameter, of a dedicated port, are locked. else Return 
 794:../Drivers/STM32L4xx_HAL_Driver/Inc/stm32l4xx_ll_gpio.h ****   * @rmtoll LCKR         LCKy          LL_GPIO_IsPinLocked
 795:../Drivers/STM32L4xx_HAL_Driver/Inc/stm32l4xx_ll_gpio.h ****   * @param  GPIOx GPIO Port
 796:../Drivers/STM32L4xx_HAL_Driver/Inc/stm32l4xx_ll_gpio.h ****   * @param  PinMask This parameter can be a combination of the following values:
 797:../Drivers/STM32L4xx_HAL_Driver/Inc/stm32l4xx_ll_gpio.h ****   *         @arg @ref LL_GPIO_PIN_0
 798:../Drivers/STM32L4xx_HAL_Driver/Inc/stm32l4xx_ll_gpio.h ****   *         @arg @ref LL_GPIO_PIN_1
 799:../Drivers/STM32L4xx_HAL_Driver/Inc/stm32l4xx_ll_gpio.h ****   *         @arg @ref LL_GPIO_PIN_2
 800:../Drivers/STM32L4xx_HAL_Driver/Inc/stm32l4xx_ll_gpio.h ****   *         @arg @ref LL_GPIO_PIN_3
 801:../Drivers/STM32L4xx_HAL_Driver/Inc/stm32l4xx_ll_gpio.h ****   *         @arg @ref LL_GPIO_PIN_4
 802:../Drivers/STM32L4xx_HAL_Driver/Inc/stm32l4xx_ll_gpio.h ****   *         @arg @ref LL_GPIO_PIN_5
 803:../Drivers/STM32L4xx_HAL_Driver/Inc/stm32l4xx_ll_gpio.h ****   *         @arg @ref LL_GPIO_PIN_6
 804:../Drivers/STM32L4xx_HAL_Driver/Inc/stm32l4xx_ll_gpio.h ****   *         @arg @ref LL_GPIO_PIN_7
 805:../Drivers/STM32L4xx_HAL_Driver/Inc/stm32l4xx_ll_gpio.h ****   *         @arg @ref LL_GPIO_PIN_8
 806:../Drivers/STM32L4xx_HAL_Driver/Inc/stm32l4xx_ll_gpio.h ****   *         @arg @ref LL_GPIO_PIN_9
 807:../Drivers/STM32L4xx_HAL_Driver/Inc/stm32l4xx_ll_gpio.h ****   *         @arg @ref LL_GPIO_PIN_10
 808:../Drivers/STM32L4xx_HAL_Driver/Inc/stm32l4xx_ll_gpio.h ****   *         @arg @ref LL_GPIO_PIN_11
 809:../Drivers/STM32L4xx_HAL_Driver/Inc/stm32l4xx_ll_gpio.h ****   *         @arg @ref LL_GPIO_PIN_12
 810:../Drivers/STM32L4xx_HAL_Driver/Inc/stm32l4xx_ll_gpio.h ****   *         @arg @ref LL_GPIO_PIN_13
 811:../Drivers/STM32L4xx_HAL_Driver/Inc/stm32l4xx_ll_gpio.h ****   *         @arg @ref LL_GPIO_PIN_14
 812:../Drivers/STM32L4xx_HAL_Driver/Inc/stm32l4xx_ll_gpio.h ****   *         @arg @ref LL_GPIO_PIN_15
 813:../Drivers/STM32L4xx_HAL_Driver/Inc/stm32l4xx_ll_gpio.h ****   *         @arg @ref LL_GPIO_PIN_ALL
 814:../Drivers/STM32L4xx_HAL_Driver/Inc/stm32l4xx_ll_gpio.h ****   * @retval State of bit (1 or 0).
 815:../Drivers/STM32L4xx_HAL_Driver/Inc/stm32l4xx_ll_gpio.h ****   */
 816:../Drivers/STM32L4xx_HAL_Driver/Inc/stm32l4xx_ll_gpio.h **** __STATIC_INLINE uint32_t LL_GPIO_IsPinLocked(GPIO_TypeDef *GPIOx, uint32_t PinMask)
 817:../Drivers/STM32L4xx_HAL_Driver/Inc/stm32l4xx_ll_gpio.h **** {
 818:../Drivers/STM32L4xx_HAL_Driver/Inc/stm32l4xx_ll_gpio.h ****   return ((READ_BIT(GPIOx->LCKR, PinMask) == (PinMask)) ? 1UL : 0UL);
 819:../Drivers/STM32L4xx_HAL_Driver/Inc/stm32l4xx_ll_gpio.h **** }
 820:../Drivers/STM32L4xx_HAL_Driver/Inc/stm32l4xx_ll_gpio.h **** 
 821:../Drivers/STM32L4xx_HAL_Driver/Inc/stm32l4xx_ll_gpio.h **** /**
 822:../Drivers/STM32L4xx_HAL_Driver/Inc/stm32l4xx_ll_gpio.h ****   * @brief  Return 1 if one of the pin of a dedicated port is locked. else return 0.
 823:../Drivers/STM32L4xx_HAL_Driver/Inc/stm32l4xx_ll_gpio.h ****   * @rmtoll LCKR         LCKK          LL_GPIO_IsAnyPinLocked
 824:../Drivers/STM32L4xx_HAL_Driver/Inc/stm32l4xx_ll_gpio.h ****   * @param  GPIOx GPIO Port
 825:../Drivers/STM32L4xx_HAL_Driver/Inc/stm32l4xx_ll_gpio.h ****   * @retval State of bit (1 or 0).
ARM GAS  /tmp/ccwYF4dg.s 			page 29


 826:../Drivers/STM32L4xx_HAL_Driver/Inc/stm32l4xx_ll_gpio.h ****   */
 827:../Drivers/STM32L4xx_HAL_Driver/Inc/stm32l4xx_ll_gpio.h **** __STATIC_INLINE uint32_t LL_GPIO_IsAnyPinLocked(GPIO_TypeDef *GPIOx)
 828:../Drivers/STM32L4xx_HAL_Driver/Inc/stm32l4xx_ll_gpio.h **** {
 829:../Drivers/STM32L4xx_HAL_Driver/Inc/stm32l4xx_ll_gpio.h ****   return ((READ_BIT(GPIOx->LCKR, GPIO_LCKR_LCKK) == (GPIO_LCKR_LCKK)) ? 1UL : 0UL);
 830:../Drivers/STM32L4xx_HAL_Driver/Inc/stm32l4xx_ll_gpio.h **** }
 831:../Drivers/STM32L4xx_HAL_Driver/Inc/stm32l4xx_ll_gpio.h **** 
 832:../Drivers/STM32L4xx_HAL_Driver/Inc/stm32l4xx_ll_gpio.h **** /**
 833:../Drivers/STM32L4xx_HAL_Driver/Inc/stm32l4xx_ll_gpio.h ****   * @}
 834:../Drivers/STM32L4xx_HAL_Driver/Inc/stm32l4xx_ll_gpio.h ****   */
 835:../Drivers/STM32L4xx_HAL_Driver/Inc/stm32l4xx_ll_gpio.h **** 
 836:../Drivers/STM32L4xx_HAL_Driver/Inc/stm32l4xx_ll_gpio.h **** /** @defgroup GPIO_LL_EF_Data_Access Data Access
 837:../Drivers/STM32L4xx_HAL_Driver/Inc/stm32l4xx_ll_gpio.h ****   * @{
 838:../Drivers/STM32L4xx_HAL_Driver/Inc/stm32l4xx_ll_gpio.h ****   */
 839:../Drivers/STM32L4xx_HAL_Driver/Inc/stm32l4xx_ll_gpio.h **** 
 840:../Drivers/STM32L4xx_HAL_Driver/Inc/stm32l4xx_ll_gpio.h **** /**
 841:../Drivers/STM32L4xx_HAL_Driver/Inc/stm32l4xx_ll_gpio.h ****   * @brief  Return full input data register value for a dedicated port.
 842:../Drivers/STM32L4xx_HAL_Driver/Inc/stm32l4xx_ll_gpio.h ****   * @rmtoll IDR          IDy           LL_GPIO_ReadInputPort
 843:../Drivers/STM32L4xx_HAL_Driver/Inc/stm32l4xx_ll_gpio.h ****   * @param  GPIOx GPIO Port
 844:../Drivers/STM32L4xx_HAL_Driver/Inc/stm32l4xx_ll_gpio.h ****   * @retval Input data register value of port
 845:../Drivers/STM32L4xx_HAL_Driver/Inc/stm32l4xx_ll_gpio.h ****   */
 846:../Drivers/STM32L4xx_HAL_Driver/Inc/stm32l4xx_ll_gpio.h **** __STATIC_INLINE uint32_t LL_GPIO_ReadInputPort(GPIO_TypeDef *GPIOx)
 847:../Drivers/STM32L4xx_HAL_Driver/Inc/stm32l4xx_ll_gpio.h **** {
 848:../Drivers/STM32L4xx_HAL_Driver/Inc/stm32l4xx_ll_gpio.h ****   return (uint32_t)(READ_REG(GPIOx->IDR));
 849:../Drivers/STM32L4xx_HAL_Driver/Inc/stm32l4xx_ll_gpio.h **** }
 850:../Drivers/STM32L4xx_HAL_Driver/Inc/stm32l4xx_ll_gpio.h **** 
 851:../Drivers/STM32L4xx_HAL_Driver/Inc/stm32l4xx_ll_gpio.h **** /**
 852:../Drivers/STM32L4xx_HAL_Driver/Inc/stm32l4xx_ll_gpio.h ****   * @brief  Return if input data level for several pins of dedicated port is high or low.
 853:../Drivers/STM32L4xx_HAL_Driver/Inc/stm32l4xx_ll_gpio.h ****   * @rmtoll IDR          IDy           LL_GPIO_IsInputPinSet
 854:../Drivers/STM32L4xx_HAL_Driver/Inc/stm32l4xx_ll_gpio.h ****   * @param  GPIOx GPIO Port
 855:../Drivers/STM32L4xx_HAL_Driver/Inc/stm32l4xx_ll_gpio.h ****   * @param  PinMask This parameter can be a combination of the following values:
 856:../Drivers/STM32L4xx_HAL_Driver/Inc/stm32l4xx_ll_gpio.h ****   *         @arg @ref LL_GPIO_PIN_0
 857:../Drivers/STM32L4xx_HAL_Driver/Inc/stm32l4xx_ll_gpio.h ****   *         @arg @ref LL_GPIO_PIN_1
 858:../Drivers/STM32L4xx_HAL_Driver/Inc/stm32l4xx_ll_gpio.h ****   *         @arg @ref LL_GPIO_PIN_2
 859:../Drivers/STM32L4xx_HAL_Driver/Inc/stm32l4xx_ll_gpio.h ****   *         @arg @ref LL_GPIO_PIN_3
 860:../Drivers/STM32L4xx_HAL_Driver/Inc/stm32l4xx_ll_gpio.h ****   *         @arg @ref LL_GPIO_PIN_4
 861:../Drivers/STM32L4xx_HAL_Driver/Inc/stm32l4xx_ll_gpio.h ****   *         @arg @ref LL_GPIO_PIN_5
 862:../Drivers/STM32L4xx_HAL_Driver/Inc/stm32l4xx_ll_gpio.h ****   *         @arg @ref LL_GPIO_PIN_6
 863:../Drivers/STM32L4xx_HAL_Driver/Inc/stm32l4xx_ll_gpio.h ****   *         @arg @ref LL_GPIO_PIN_7
 864:../Drivers/STM32L4xx_HAL_Driver/Inc/stm32l4xx_ll_gpio.h ****   *         @arg @ref LL_GPIO_PIN_8
 865:../Drivers/STM32L4xx_HAL_Driver/Inc/stm32l4xx_ll_gpio.h ****   *         @arg @ref LL_GPIO_PIN_9
 866:../Drivers/STM32L4xx_HAL_Driver/Inc/stm32l4xx_ll_gpio.h ****   *         @arg @ref LL_GPIO_PIN_10
 867:../Drivers/STM32L4xx_HAL_Driver/Inc/stm32l4xx_ll_gpio.h ****   *         @arg @ref LL_GPIO_PIN_11
 868:../Drivers/STM32L4xx_HAL_Driver/Inc/stm32l4xx_ll_gpio.h ****   *         @arg @ref LL_GPIO_PIN_12
 869:../Drivers/STM32L4xx_HAL_Driver/Inc/stm32l4xx_ll_gpio.h ****   *         @arg @ref LL_GPIO_PIN_13
 870:../Drivers/STM32L4xx_HAL_Driver/Inc/stm32l4xx_ll_gpio.h ****   *         @arg @ref LL_GPIO_PIN_14
 871:../Drivers/STM32L4xx_HAL_Driver/Inc/stm32l4xx_ll_gpio.h ****   *         @arg @ref LL_GPIO_PIN_15
 872:../Drivers/STM32L4xx_HAL_Driver/Inc/stm32l4xx_ll_gpio.h ****   *         @arg @ref LL_GPIO_PIN_ALL
 873:../Drivers/STM32L4xx_HAL_Driver/Inc/stm32l4xx_ll_gpio.h ****   * @retval State of bit (1 or 0).
 874:../Drivers/STM32L4xx_HAL_Driver/Inc/stm32l4xx_ll_gpio.h ****   */
 875:../Drivers/STM32L4xx_HAL_Driver/Inc/stm32l4xx_ll_gpio.h **** __STATIC_INLINE uint32_t LL_GPIO_IsInputPinSet(GPIO_TypeDef *GPIOx, uint32_t PinMask)
 876:../Drivers/STM32L4xx_HAL_Driver/Inc/stm32l4xx_ll_gpio.h **** {
 877:../Drivers/STM32L4xx_HAL_Driver/Inc/stm32l4xx_ll_gpio.h ****   return ((READ_BIT(GPIOx->IDR, PinMask) == (PinMask)) ? 1UL : 0UL);
 878:../Drivers/STM32L4xx_HAL_Driver/Inc/stm32l4xx_ll_gpio.h **** }
 879:../Drivers/STM32L4xx_HAL_Driver/Inc/stm32l4xx_ll_gpio.h **** 
 880:../Drivers/STM32L4xx_HAL_Driver/Inc/stm32l4xx_ll_gpio.h **** /**
 881:../Drivers/STM32L4xx_HAL_Driver/Inc/stm32l4xx_ll_gpio.h ****   * @brief  Write output data register for the port.
 882:../Drivers/STM32L4xx_HAL_Driver/Inc/stm32l4xx_ll_gpio.h ****   * @rmtoll ODR          ODy           LL_GPIO_WriteOutputPort
ARM GAS  /tmp/ccwYF4dg.s 			page 30


 883:../Drivers/STM32L4xx_HAL_Driver/Inc/stm32l4xx_ll_gpio.h ****   * @param  GPIOx GPIO Port
 884:../Drivers/STM32L4xx_HAL_Driver/Inc/stm32l4xx_ll_gpio.h ****   * @param  PortValue Level value for each pin of the port
 885:../Drivers/STM32L4xx_HAL_Driver/Inc/stm32l4xx_ll_gpio.h ****   * @retval None
 886:../Drivers/STM32L4xx_HAL_Driver/Inc/stm32l4xx_ll_gpio.h ****   */
 887:../Drivers/STM32L4xx_HAL_Driver/Inc/stm32l4xx_ll_gpio.h **** __STATIC_INLINE void LL_GPIO_WriteOutputPort(GPIO_TypeDef *GPIOx, uint32_t PortValue)
 888:../Drivers/STM32L4xx_HAL_Driver/Inc/stm32l4xx_ll_gpio.h **** {
 889:../Drivers/STM32L4xx_HAL_Driver/Inc/stm32l4xx_ll_gpio.h ****   WRITE_REG(GPIOx->ODR, PortValue);
 890:../Drivers/STM32L4xx_HAL_Driver/Inc/stm32l4xx_ll_gpio.h **** }
 891:../Drivers/STM32L4xx_HAL_Driver/Inc/stm32l4xx_ll_gpio.h **** 
 892:../Drivers/STM32L4xx_HAL_Driver/Inc/stm32l4xx_ll_gpio.h **** /**
 893:../Drivers/STM32L4xx_HAL_Driver/Inc/stm32l4xx_ll_gpio.h ****   * @brief  Return full output data register value for a dedicated port.
 894:../Drivers/STM32L4xx_HAL_Driver/Inc/stm32l4xx_ll_gpio.h ****   * @rmtoll ODR          ODy           LL_GPIO_ReadOutputPort
 895:../Drivers/STM32L4xx_HAL_Driver/Inc/stm32l4xx_ll_gpio.h ****   * @param  GPIOx GPIO Port
 896:../Drivers/STM32L4xx_HAL_Driver/Inc/stm32l4xx_ll_gpio.h ****   * @retval Output data register value of port
 897:../Drivers/STM32L4xx_HAL_Driver/Inc/stm32l4xx_ll_gpio.h ****   */
 898:../Drivers/STM32L4xx_HAL_Driver/Inc/stm32l4xx_ll_gpio.h **** __STATIC_INLINE uint32_t LL_GPIO_ReadOutputPort(GPIO_TypeDef *GPIOx)
 899:../Drivers/STM32L4xx_HAL_Driver/Inc/stm32l4xx_ll_gpio.h **** {
 900:../Drivers/STM32L4xx_HAL_Driver/Inc/stm32l4xx_ll_gpio.h ****   return (uint32_t)(READ_REG(GPIOx->ODR));
 901:../Drivers/STM32L4xx_HAL_Driver/Inc/stm32l4xx_ll_gpio.h **** }
 902:../Drivers/STM32L4xx_HAL_Driver/Inc/stm32l4xx_ll_gpio.h **** 
 903:../Drivers/STM32L4xx_HAL_Driver/Inc/stm32l4xx_ll_gpio.h **** /**
 904:../Drivers/STM32L4xx_HAL_Driver/Inc/stm32l4xx_ll_gpio.h ****   * @brief  Return if input data level for several pins of dedicated port is high or low.
 905:../Drivers/STM32L4xx_HAL_Driver/Inc/stm32l4xx_ll_gpio.h ****   * @rmtoll ODR          ODy           LL_GPIO_IsOutputPinSet
 906:../Drivers/STM32L4xx_HAL_Driver/Inc/stm32l4xx_ll_gpio.h ****   * @param  GPIOx GPIO Port
 907:../Drivers/STM32L4xx_HAL_Driver/Inc/stm32l4xx_ll_gpio.h ****   * @param  PinMask This parameter can be a combination of the following values:
 908:../Drivers/STM32L4xx_HAL_Driver/Inc/stm32l4xx_ll_gpio.h ****   *         @arg @ref LL_GPIO_PIN_0
 909:../Drivers/STM32L4xx_HAL_Driver/Inc/stm32l4xx_ll_gpio.h ****   *         @arg @ref LL_GPIO_PIN_1
 910:../Drivers/STM32L4xx_HAL_Driver/Inc/stm32l4xx_ll_gpio.h ****   *         @arg @ref LL_GPIO_PIN_2
 911:../Drivers/STM32L4xx_HAL_Driver/Inc/stm32l4xx_ll_gpio.h ****   *         @arg @ref LL_GPIO_PIN_3
 912:../Drivers/STM32L4xx_HAL_Driver/Inc/stm32l4xx_ll_gpio.h ****   *         @arg @ref LL_GPIO_PIN_4
 913:../Drivers/STM32L4xx_HAL_Driver/Inc/stm32l4xx_ll_gpio.h ****   *         @arg @ref LL_GPIO_PIN_5
 914:../Drivers/STM32L4xx_HAL_Driver/Inc/stm32l4xx_ll_gpio.h ****   *         @arg @ref LL_GPIO_PIN_6
 915:../Drivers/STM32L4xx_HAL_Driver/Inc/stm32l4xx_ll_gpio.h ****   *         @arg @ref LL_GPIO_PIN_7
 916:../Drivers/STM32L4xx_HAL_Driver/Inc/stm32l4xx_ll_gpio.h ****   *         @arg @ref LL_GPIO_PIN_8
 917:../Drivers/STM32L4xx_HAL_Driver/Inc/stm32l4xx_ll_gpio.h ****   *         @arg @ref LL_GPIO_PIN_9
 918:../Drivers/STM32L4xx_HAL_Driver/Inc/stm32l4xx_ll_gpio.h ****   *         @arg @ref LL_GPIO_PIN_10
 919:../Drivers/STM32L4xx_HAL_Driver/Inc/stm32l4xx_ll_gpio.h ****   *         @arg @ref LL_GPIO_PIN_11
 920:../Drivers/STM32L4xx_HAL_Driver/Inc/stm32l4xx_ll_gpio.h ****   *         @arg @ref LL_GPIO_PIN_12
 921:../Drivers/STM32L4xx_HAL_Driver/Inc/stm32l4xx_ll_gpio.h ****   *         @arg @ref LL_GPIO_PIN_13
 922:../Drivers/STM32L4xx_HAL_Driver/Inc/stm32l4xx_ll_gpio.h ****   *         @arg @ref LL_GPIO_PIN_14
 923:../Drivers/STM32L4xx_HAL_Driver/Inc/stm32l4xx_ll_gpio.h ****   *         @arg @ref LL_GPIO_PIN_15
 924:../Drivers/STM32L4xx_HAL_Driver/Inc/stm32l4xx_ll_gpio.h ****   *         @arg @ref LL_GPIO_PIN_ALL
 925:../Drivers/STM32L4xx_HAL_Driver/Inc/stm32l4xx_ll_gpio.h ****   * @retval State of bit (1 or 0).
 926:../Drivers/STM32L4xx_HAL_Driver/Inc/stm32l4xx_ll_gpio.h ****   */
 927:../Drivers/STM32L4xx_HAL_Driver/Inc/stm32l4xx_ll_gpio.h **** __STATIC_INLINE uint32_t LL_GPIO_IsOutputPinSet(GPIO_TypeDef *GPIOx, uint32_t PinMask)
 928:../Drivers/STM32L4xx_HAL_Driver/Inc/stm32l4xx_ll_gpio.h **** {
 929:../Drivers/STM32L4xx_HAL_Driver/Inc/stm32l4xx_ll_gpio.h ****   return ((READ_BIT(GPIOx->ODR, PinMask) == (PinMask)) ? 1UL : 0UL);
 930:../Drivers/STM32L4xx_HAL_Driver/Inc/stm32l4xx_ll_gpio.h **** }
 931:../Drivers/STM32L4xx_HAL_Driver/Inc/stm32l4xx_ll_gpio.h **** 
 932:../Drivers/STM32L4xx_HAL_Driver/Inc/stm32l4xx_ll_gpio.h **** /**
 933:../Drivers/STM32L4xx_HAL_Driver/Inc/stm32l4xx_ll_gpio.h ****   * @brief  Set several pins to high level on dedicated gpio port.
 934:../Drivers/STM32L4xx_HAL_Driver/Inc/stm32l4xx_ll_gpio.h ****   * @rmtoll BSRR         BSy           LL_GPIO_SetOutputPin
 935:../Drivers/STM32L4xx_HAL_Driver/Inc/stm32l4xx_ll_gpio.h ****   * @param  GPIOx GPIO Port
 936:../Drivers/STM32L4xx_HAL_Driver/Inc/stm32l4xx_ll_gpio.h ****   * @param  PinMask This parameter can be a combination of the following values:
 937:../Drivers/STM32L4xx_HAL_Driver/Inc/stm32l4xx_ll_gpio.h ****   *         @arg @ref LL_GPIO_PIN_0
 938:../Drivers/STM32L4xx_HAL_Driver/Inc/stm32l4xx_ll_gpio.h ****   *         @arg @ref LL_GPIO_PIN_1
 939:../Drivers/STM32L4xx_HAL_Driver/Inc/stm32l4xx_ll_gpio.h ****   *         @arg @ref LL_GPIO_PIN_2
ARM GAS  /tmp/ccwYF4dg.s 			page 31


 940:../Drivers/STM32L4xx_HAL_Driver/Inc/stm32l4xx_ll_gpio.h ****   *         @arg @ref LL_GPIO_PIN_3
 941:../Drivers/STM32L4xx_HAL_Driver/Inc/stm32l4xx_ll_gpio.h ****   *         @arg @ref LL_GPIO_PIN_4
 942:../Drivers/STM32L4xx_HAL_Driver/Inc/stm32l4xx_ll_gpio.h ****   *         @arg @ref LL_GPIO_PIN_5
 943:../Drivers/STM32L4xx_HAL_Driver/Inc/stm32l4xx_ll_gpio.h ****   *         @arg @ref LL_GPIO_PIN_6
 944:../Drivers/STM32L4xx_HAL_Driver/Inc/stm32l4xx_ll_gpio.h ****   *         @arg @ref LL_GPIO_PIN_7
 945:../Drivers/STM32L4xx_HAL_Driver/Inc/stm32l4xx_ll_gpio.h ****   *         @arg @ref LL_GPIO_PIN_8
 946:../Drivers/STM32L4xx_HAL_Driver/Inc/stm32l4xx_ll_gpio.h ****   *         @arg @ref LL_GPIO_PIN_9
 947:../Drivers/STM32L4xx_HAL_Driver/Inc/stm32l4xx_ll_gpio.h ****   *         @arg @ref LL_GPIO_PIN_10
 948:../Drivers/STM32L4xx_HAL_Driver/Inc/stm32l4xx_ll_gpio.h ****   *         @arg @ref LL_GPIO_PIN_11
 949:../Drivers/STM32L4xx_HAL_Driver/Inc/stm32l4xx_ll_gpio.h ****   *         @arg @ref LL_GPIO_PIN_12
 950:../Drivers/STM32L4xx_HAL_Driver/Inc/stm32l4xx_ll_gpio.h ****   *         @arg @ref LL_GPIO_PIN_13
 951:../Drivers/STM32L4xx_HAL_Driver/Inc/stm32l4xx_ll_gpio.h ****   *         @arg @ref LL_GPIO_PIN_14
 952:../Drivers/STM32L4xx_HAL_Driver/Inc/stm32l4xx_ll_gpio.h ****   *         @arg @ref LL_GPIO_PIN_15
 953:../Drivers/STM32L4xx_HAL_Driver/Inc/stm32l4xx_ll_gpio.h ****   *         @arg @ref LL_GPIO_PIN_ALL
 954:../Drivers/STM32L4xx_HAL_Driver/Inc/stm32l4xx_ll_gpio.h ****   * @retval None
 955:../Drivers/STM32L4xx_HAL_Driver/Inc/stm32l4xx_ll_gpio.h ****   */
 956:../Drivers/STM32L4xx_HAL_Driver/Inc/stm32l4xx_ll_gpio.h **** __STATIC_INLINE void LL_GPIO_SetOutputPin(GPIO_TypeDef *GPIOx, uint32_t PinMask)
 957:../Drivers/STM32L4xx_HAL_Driver/Inc/stm32l4xx_ll_gpio.h **** {
 958:../Drivers/STM32L4xx_HAL_Driver/Inc/stm32l4xx_ll_gpio.h ****   WRITE_REG(GPIOx->BSRR, PinMask);
 959:../Drivers/STM32L4xx_HAL_Driver/Inc/stm32l4xx_ll_gpio.h **** }
 960:../Drivers/STM32L4xx_HAL_Driver/Inc/stm32l4xx_ll_gpio.h **** 
 961:../Drivers/STM32L4xx_HAL_Driver/Inc/stm32l4xx_ll_gpio.h **** /**
 962:../Drivers/STM32L4xx_HAL_Driver/Inc/stm32l4xx_ll_gpio.h ****   * @brief  Set several pins to low level on dedicated gpio port.
 963:../Drivers/STM32L4xx_HAL_Driver/Inc/stm32l4xx_ll_gpio.h ****   * @rmtoll BRR          BRy           LL_GPIO_ResetOutputPin
 964:../Drivers/STM32L4xx_HAL_Driver/Inc/stm32l4xx_ll_gpio.h ****   * @param  GPIOx GPIO Port
 965:../Drivers/STM32L4xx_HAL_Driver/Inc/stm32l4xx_ll_gpio.h ****   * @param  PinMask This parameter can be a combination of the following values:
 966:../Drivers/STM32L4xx_HAL_Driver/Inc/stm32l4xx_ll_gpio.h ****   *         @arg @ref LL_GPIO_PIN_0
 967:../Drivers/STM32L4xx_HAL_Driver/Inc/stm32l4xx_ll_gpio.h ****   *         @arg @ref LL_GPIO_PIN_1
 968:../Drivers/STM32L4xx_HAL_Driver/Inc/stm32l4xx_ll_gpio.h ****   *         @arg @ref LL_GPIO_PIN_2
 969:../Drivers/STM32L4xx_HAL_Driver/Inc/stm32l4xx_ll_gpio.h ****   *         @arg @ref LL_GPIO_PIN_3
 970:../Drivers/STM32L4xx_HAL_Driver/Inc/stm32l4xx_ll_gpio.h ****   *         @arg @ref LL_GPIO_PIN_4
 971:../Drivers/STM32L4xx_HAL_Driver/Inc/stm32l4xx_ll_gpio.h ****   *         @arg @ref LL_GPIO_PIN_5
 972:../Drivers/STM32L4xx_HAL_Driver/Inc/stm32l4xx_ll_gpio.h ****   *         @arg @ref LL_GPIO_PIN_6
 973:../Drivers/STM32L4xx_HAL_Driver/Inc/stm32l4xx_ll_gpio.h ****   *         @arg @ref LL_GPIO_PIN_7
 974:../Drivers/STM32L4xx_HAL_Driver/Inc/stm32l4xx_ll_gpio.h ****   *         @arg @ref LL_GPIO_PIN_8
 975:../Drivers/STM32L4xx_HAL_Driver/Inc/stm32l4xx_ll_gpio.h ****   *         @arg @ref LL_GPIO_PIN_9
 976:../Drivers/STM32L4xx_HAL_Driver/Inc/stm32l4xx_ll_gpio.h ****   *         @arg @ref LL_GPIO_PIN_10
 977:../Drivers/STM32L4xx_HAL_Driver/Inc/stm32l4xx_ll_gpio.h ****   *         @arg @ref LL_GPIO_PIN_11
 978:../Drivers/STM32L4xx_HAL_Driver/Inc/stm32l4xx_ll_gpio.h ****   *         @arg @ref LL_GPIO_PIN_12
 979:../Drivers/STM32L4xx_HAL_Driver/Inc/stm32l4xx_ll_gpio.h ****   *         @arg @ref LL_GPIO_PIN_13
 980:../Drivers/STM32L4xx_HAL_Driver/Inc/stm32l4xx_ll_gpio.h ****   *         @arg @ref LL_GPIO_PIN_14
 981:../Drivers/STM32L4xx_HAL_Driver/Inc/stm32l4xx_ll_gpio.h ****   *         @arg @ref LL_GPIO_PIN_15
 982:../Drivers/STM32L4xx_HAL_Driver/Inc/stm32l4xx_ll_gpio.h ****   *         @arg @ref LL_GPIO_PIN_ALL
 983:../Drivers/STM32L4xx_HAL_Driver/Inc/stm32l4xx_ll_gpio.h ****   * @retval None
 984:../Drivers/STM32L4xx_HAL_Driver/Inc/stm32l4xx_ll_gpio.h ****   */
 985:../Drivers/STM32L4xx_HAL_Driver/Inc/stm32l4xx_ll_gpio.h **** __STATIC_INLINE void LL_GPIO_ResetOutputPin(GPIO_TypeDef *GPIOx, uint32_t PinMask)
 986:../Drivers/STM32L4xx_HAL_Driver/Inc/stm32l4xx_ll_gpio.h **** {
 987:../Drivers/STM32L4xx_HAL_Driver/Inc/stm32l4xx_ll_gpio.h ****   WRITE_REG(GPIOx->BRR, PinMask);
 988:../Drivers/STM32L4xx_HAL_Driver/Inc/stm32l4xx_ll_gpio.h **** }
 989:../Drivers/STM32L4xx_HAL_Driver/Inc/stm32l4xx_ll_gpio.h **** 
 990:../Drivers/STM32L4xx_HAL_Driver/Inc/stm32l4xx_ll_gpio.h **** /**
 991:../Drivers/STM32L4xx_HAL_Driver/Inc/stm32l4xx_ll_gpio.h ****   * @brief  Toggle data value for several pin of dedicated port.
 992:../Drivers/STM32L4xx_HAL_Driver/Inc/stm32l4xx_ll_gpio.h ****   * @rmtoll ODR          ODy           LL_GPIO_TogglePin
 993:../Drivers/STM32L4xx_HAL_Driver/Inc/stm32l4xx_ll_gpio.h ****   * @param  GPIOx GPIO Port
 994:../Drivers/STM32L4xx_HAL_Driver/Inc/stm32l4xx_ll_gpio.h ****   * @param  PinMask This parameter can be a combination of the following values:
 995:../Drivers/STM32L4xx_HAL_Driver/Inc/stm32l4xx_ll_gpio.h ****   *         @arg @ref LL_GPIO_PIN_0
 996:../Drivers/STM32L4xx_HAL_Driver/Inc/stm32l4xx_ll_gpio.h ****   *         @arg @ref LL_GPIO_PIN_1
ARM GAS  /tmp/ccwYF4dg.s 			page 32


 997:../Drivers/STM32L4xx_HAL_Driver/Inc/stm32l4xx_ll_gpio.h ****   *         @arg @ref LL_GPIO_PIN_2
 998:../Drivers/STM32L4xx_HAL_Driver/Inc/stm32l4xx_ll_gpio.h ****   *         @arg @ref LL_GPIO_PIN_3
 999:../Drivers/STM32L4xx_HAL_Driver/Inc/stm32l4xx_ll_gpio.h ****   *         @arg @ref LL_GPIO_PIN_4
1000:../Drivers/STM32L4xx_HAL_Driver/Inc/stm32l4xx_ll_gpio.h ****   *         @arg @ref LL_GPIO_PIN_5
1001:../Drivers/STM32L4xx_HAL_Driver/Inc/stm32l4xx_ll_gpio.h ****   *         @arg @ref LL_GPIO_PIN_6
1002:../Drivers/STM32L4xx_HAL_Driver/Inc/stm32l4xx_ll_gpio.h ****   *         @arg @ref LL_GPIO_PIN_7
1003:../Drivers/STM32L4xx_HAL_Driver/Inc/stm32l4xx_ll_gpio.h ****   *         @arg @ref LL_GPIO_PIN_8
1004:../Drivers/STM32L4xx_HAL_Driver/Inc/stm32l4xx_ll_gpio.h ****   *         @arg @ref LL_GPIO_PIN_9
1005:../Drivers/STM32L4xx_HAL_Driver/Inc/stm32l4xx_ll_gpio.h ****   *         @arg @ref LL_GPIO_PIN_10
1006:../Drivers/STM32L4xx_HAL_Driver/Inc/stm32l4xx_ll_gpio.h ****   *         @arg @ref LL_GPIO_PIN_11
1007:../Drivers/STM32L4xx_HAL_Driver/Inc/stm32l4xx_ll_gpio.h ****   *         @arg @ref LL_GPIO_PIN_12
1008:../Drivers/STM32L4xx_HAL_Driver/Inc/stm32l4xx_ll_gpio.h ****   *         @arg @ref LL_GPIO_PIN_13
1009:../Drivers/STM32L4xx_HAL_Driver/Inc/stm32l4xx_ll_gpio.h ****   *         @arg @ref LL_GPIO_PIN_14
1010:../Drivers/STM32L4xx_HAL_Driver/Inc/stm32l4xx_ll_gpio.h ****   *         @arg @ref LL_GPIO_PIN_15
1011:../Drivers/STM32L4xx_HAL_Driver/Inc/stm32l4xx_ll_gpio.h ****   *         @arg @ref LL_GPIO_PIN_ALL
1012:../Drivers/STM32L4xx_HAL_Driver/Inc/stm32l4xx_ll_gpio.h ****   * @retval None
1013:../Drivers/STM32L4xx_HAL_Driver/Inc/stm32l4xx_ll_gpio.h ****   */
1014:../Drivers/STM32L4xx_HAL_Driver/Inc/stm32l4xx_ll_gpio.h **** __STATIC_INLINE void LL_GPIO_TogglePin(GPIO_TypeDef *GPIOx, uint32_t PinMask)
 305              		.loc 3 1014 22 discriminator 1 view .LVU77
 306              	.LBB19:
1015:../Drivers/STM32L4xx_HAL_Driver/Inc/stm32l4xx_ll_gpio.h **** {
1016:../Drivers/STM32L4xx_HAL_Driver/Inc/stm32l4xx_ll_gpio.h ****   uint32_t odr = READ_REG(GPIOx->ODR);
 307              		.loc 3 1016 3 discriminator 1 view .LVU78
 308              		.loc 3 1016 12 is_stmt 0 discriminator 1 view .LVU79
 309 001a 284C     		ldr	r4, .L19
 310 001c 6369     		ldr	r3, [r4, #20]
 311              	.LVL15:
1017:../Drivers/STM32L4xx_HAL_Driver/Inc/stm32l4xx_ll_gpio.h ****   WRITE_REG(GPIOx->BSRR, ((odr & PinMask) << 16u) | (~odr & PinMask));
 312              		.loc 3 1017 3 is_stmt 1 discriminator 1 view .LVU80
 313 001e 1A04     		lsls	r2, r3, #16
 314 0020 02F40002 		and	r2, r2, #8388608
 315 0024 DB43     		mvns	r3, r3
 316              	.LVL16:
 317              		.loc 3 1017 3 is_stmt 0 discriminator 1 view .LVU81
 318 0026 03F08003 		and	r3, r3, #128
 319              	.LVL17:
 320              		.loc 3 1017 3 discriminator 1 view .LVU82
 321 002a 1343     		orrs	r3, r3, r2
 322 002c A361     		str	r3, [r4, #24]
 323              	.LVL18:
 324              		.loc 3 1017 3 discriminator 1 view .LVU83
 325              	.LBE19:
 326              	.LBE18:
 110:../Core/Src/main.c ****     LL_GPIO_TogglePin(GPIOC, LL_GPIO_PIN_7);
 327              		.loc 1 110 4 is_stmt 1 discriminator 1 view .LVU84
 110:../Core/Src/main.c ****     LL_GPIO_TogglePin(GPIOC, LL_GPIO_PIN_7);
 328              		.loc 1 110 23 is_stmt 0 discriminator 1 view .LVU85
 329 002e 244E     		ldr	r6, .L19+4
 330 0030 3378     		ldrb	r3, [r6]	@ zero_extendqisi2
 331 0032 DBB2     		uxtb	r3, r3
 332 0034 234D     		ldr	r5, .L19+8
 333 0036 35F81300 		ldrh	r0, [r5, r3, lsl #1]
 110:../Core/Src/main.c ****     LL_GPIO_TogglePin(GPIOC, LL_GPIO_PIN_7);
 334              		.loc 1 110 4 discriminator 1 view .LVU86
 335 003a 80B2     		uxth	r0, r0
 336 003c FFF7FEFF 		bl	HAL_Delay
 337              	.LVL19:
ARM GAS  /tmp/ccwYF4dg.s 			page 33


 111:../Core/Src/main.c **** 	  LL_GPIO_TogglePin(GPIOB, LL_GPIO_PIN_7);
 338              		.loc 1 111 5 is_stmt 1 discriminator 1 view .LVU87
 339              	.LBB20:
 340              	.LBI20:
1014:../Drivers/STM32L4xx_HAL_Driver/Inc/stm32l4xx_ll_gpio.h **** {
 341              		.loc 3 1014 22 discriminator 1 view .LVU88
 342              	.LBB21:
1016:../Drivers/STM32L4xx_HAL_Driver/Inc/stm32l4xx_ll_gpio.h ****   WRITE_REG(GPIOx->BSRR, ((odr & PinMask) << 16u) | (~odr & PinMask));
 343              		.loc 3 1016 3 discriminator 1 view .LVU89
1016:../Drivers/STM32L4xx_HAL_Driver/Inc/stm32l4xx_ll_gpio.h ****   WRITE_REG(GPIOx->BSRR, ((odr & PinMask) << 16u) | (~odr & PinMask));
 344              		.loc 3 1016 12 is_stmt 0 discriminator 1 view .LVU90
 345 0040 6369     		ldr	r3, [r4, #20]
 346              	.LVL20:
 347              		.loc 3 1017 3 is_stmt 1 discriminator 1 view .LVU91
 348 0042 1A04     		lsls	r2, r3, #16
 349 0044 02F40002 		and	r2, r2, #8388608
 350 0048 DB43     		mvns	r3, r3
 351              	.LVL21:
 352              		.loc 3 1017 3 is_stmt 0 discriminator 1 view .LVU92
 353 004a 03F08003 		and	r3, r3, #128
 354              	.LVL22:
 355              		.loc 3 1017 3 discriminator 1 view .LVU93
 356 004e 1343     		orrs	r3, r3, r2
 357 0050 A361     		str	r3, [r4, #24]
 358              	.LVL23:
 359              		.loc 3 1017 3 discriminator 1 view .LVU94
 360              	.LBE21:
 361              	.LBE20:
 112:../Core/Src/main.c **** 	  HAL_Delay(period_ms[index_v]);
 362              		.loc 1 112 4 is_stmt 1 discriminator 1 view .LVU95
 363              	.LBB22:
 364              	.LBI22:
1014:../Drivers/STM32L4xx_HAL_Driver/Inc/stm32l4xx_ll_gpio.h **** {
 365              		.loc 3 1014 22 discriminator 1 view .LVU96
 366              	.LBB23:
1016:../Drivers/STM32L4xx_HAL_Driver/Inc/stm32l4xx_ll_gpio.h ****   WRITE_REG(GPIOx->BSRR, ((odr & PinMask) << 16u) | (~odr & PinMask));
 367              		.loc 3 1016 3 discriminator 1 view .LVU97
1016:../Drivers/STM32L4xx_HAL_Driver/Inc/stm32l4xx_ll_gpio.h ****   WRITE_REG(GPIOx->BSRR, ((odr & PinMask) << 16u) | (~odr & PinMask));
 368              		.loc 3 1016 12 is_stmt 0 discriminator 1 view .LVU98
 369 0052 A4F58064 		sub	r4, r4, #1024
 370 0056 6369     		ldr	r3, [r4, #20]
 371              	.LVL24:
 372              		.loc 3 1017 3 is_stmt 1 discriminator 1 view .LVU99
 373 0058 1A04     		lsls	r2, r3, #16
 374 005a 02F40002 		and	r2, r2, #8388608
 375 005e DB43     		mvns	r3, r3
 376              	.LVL25:
 377              		.loc 3 1017 3 is_stmt 0 discriminator 1 view .LVU100
 378 0060 03F08003 		and	r3, r3, #128
 379              	.LVL26:
 380              		.loc 3 1017 3 discriminator 1 view .LVU101
 381 0064 1343     		orrs	r3, r3, r2
 382 0066 A361     		str	r3, [r4, #24]
 383              	.LVL27:
 384              		.loc 3 1017 3 discriminator 1 view .LVU102
 385              	.LBE23:
 386              	.LBE22:
ARM GAS  /tmp/ccwYF4dg.s 			page 34


 113:../Core/Src/main.c ****     LL_GPIO_TogglePin(GPIOB, LL_GPIO_PIN_7);
 387              		.loc 1 113 4 is_stmt 1 discriminator 1 view .LVU103
 113:../Core/Src/main.c ****     LL_GPIO_TogglePin(GPIOB, LL_GPIO_PIN_7);
 388              		.loc 1 113 23 is_stmt 0 discriminator 1 view .LVU104
 389 0068 3378     		ldrb	r3, [r6]	@ zero_extendqisi2
 390 006a DBB2     		uxtb	r3, r3
 391 006c 35F81300 		ldrh	r0, [r5, r3, lsl #1]
 113:../Core/Src/main.c ****     LL_GPIO_TogglePin(GPIOB, LL_GPIO_PIN_7);
 392              		.loc 1 113 4 discriminator 1 view .LVU105
 393 0070 80B2     		uxth	r0, r0
 394 0072 FFF7FEFF 		bl	HAL_Delay
 395              	.LVL28:
 114:../Core/Src/main.c **** 	  LL_GPIO_TogglePin(GPIOB, LL_GPIO_PIN_14);
 396              		.loc 1 114 5 is_stmt 1 discriminator 1 view .LVU106
 397              	.LBB24:
 398              	.LBI24:
1014:../Drivers/STM32L4xx_HAL_Driver/Inc/stm32l4xx_ll_gpio.h **** {
 399              		.loc 3 1014 22 discriminator 1 view .LVU107
 400              	.LBB25:
1016:../Drivers/STM32L4xx_HAL_Driver/Inc/stm32l4xx_ll_gpio.h ****   WRITE_REG(GPIOx->BSRR, ((odr & PinMask) << 16u) | (~odr & PinMask));
 401              		.loc 3 1016 3 discriminator 1 view .LVU108
1016:../Drivers/STM32L4xx_HAL_Driver/Inc/stm32l4xx_ll_gpio.h ****   WRITE_REG(GPIOx->BSRR, ((odr & PinMask) << 16u) | (~odr & PinMask));
 402              		.loc 3 1016 12 is_stmt 0 discriminator 1 view .LVU109
 403 0076 6369     		ldr	r3, [r4, #20]
 404              	.LVL29:
 405              		.loc 3 1017 3 is_stmt 1 discriminator 1 view .LVU110
 406 0078 1A04     		lsls	r2, r3, #16
 407 007a 02F40002 		and	r2, r2, #8388608
 408 007e DB43     		mvns	r3, r3
 409              	.LVL30:
 410              		.loc 3 1017 3 is_stmt 0 discriminator 1 view .LVU111
 411 0080 03F08003 		and	r3, r3, #128
 412              	.LVL31:
 413              		.loc 3 1017 3 discriminator 1 view .LVU112
 414 0084 1343     		orrs	r3, r3, r2
 415 0086 A361     		str	r3, [r4, #24]
 416              	.LVL32:
 417              		.loc 3 1017 3 discriminator 1 view .LVU113
 418              	.LBE25:
 419              	.LBE24:
 115:../Core/Src/main.c **** 	  HAL_Delay(period_ms[index_v]);
 420              		.loc 1 115 4 is_stmt 1 discriminator 1 view .LVU114
 421              	.LBB26:
 422              	.LBI26:
1014:../Drivers/STM32L4xx_HAL_Driver/Inc/stm32l4xx_ll_gpio.h **** {
 423              		.loc 3 1014 22 discriminator 1 view .LVU115
 424              	.LBB27:
1016:../Drivers/STM32L4xx_HAL_Driver/Inc/stm32l4xx_ll_gpio.h ****   WRITE_REG(GPIOx->BSRR, ((odr & PinMask) << 16u) | (~odr & PinMask));
 425              		.loc 3 1016 3 discriminator 1 view .LVU116
1016:../Drivers/STM32L4xx_HAL_Driver/Inc/stm32l4xx_ll_gpio.h ****   WRITE_REG(GPIOx->BSRR, ((odr & PinMask) << 16u) | (~odr & PinMask));
 426              		.loc 3 1016 12 is_stmt 0 discriminator 1 view .LVU117
 427 0088 6369     		ldr	r3, [r4, #20]
 428              	.LVL33:
 429              		.loc 3 1017 3 is_stmt 1 discriminator 1 view .LVU118
 430 008a 1A04     		lsls	r2, r3, #16
 431 008c 02F08042 		and	r2, r2, #1073741824
 432 0090 DB43     		mvns	r3, r3
ARM GAS  /tmp/ccwYF4dg.s 			page 35


 433              	.LVL34:
 434              		.loc 3 1017 3 is_stmt 0 discriminator 1 view .LVU119
 435 0092 03F48043 		and	r3, r3, #16384
 436              	.LVL35:
 437              		.loc 3 1017 3 discriminator 1 view .LVU120
 438 0096 1343     		orrs	r3, r3, r2
 439 0098 A361     		str	r3, [r4, #24]
 440              	.LVL36:
 441              		.loc 3 1017 3 discriminator 1 view .LVU121
 442              	.LBE27:
 443              	.LBE26:
 116:../Core/Src/main.c ****     LL_GPIO_TogglePin(GPIOB, LL_GPIO_PIN_14);
 444              		.loc 1 116 4 is_stmt 1 discriminator 1 view .LVU122
 116:../Core/Src/main.c ****     LL_GPIO_TogglePin(GPIOB, LL_GPIO_PIN_14);
 445              		.loc 1 116 23 is_stmt 0 discriminator 1 view .LVU123
 446 009a 3378     		ldrb	r3, [r6]	@ zero_extendqisi2
 447 009c DBB2     		uxtb	r3, r3
 448 009e 35F81300 		ldrh	r0, [r5, r3, lsl #1]
 116:../Core/Src/main.c ****     LL_GPIO_TogglePin(GPIOB, LL_GPIO_PIN_14);
 449              		.loc 1 116 4 discriminator 1 view .LVU124
 450 00a2 80B2     		uxth	r0, r0
 451 00a4 FFF7FEFF 		bl	HAL_Delay
 452              	.LVL37:
 117:../Core/Src/main.c ****     /* USER CODE END WHILE */
 453              		.loc 1 117 5 is_stmt 1 discriminator 1 view .LVU125
 454              	.LBB28:
 455              	.LBI28:
1014:../Drivers/STM32L4xx_HAL_Driver/Inc/stm32l4xx_ll_gpio.h **** {
 456              		.loc 3 1014 22 discriminator 1 view .LVU126
 457              	.LBB29:
1016:../Drivers/STM32L4xx_HAL_Driver/Inc/stm32l4xx_ll_gpio.h ****   WRITE_REG(GPIOx->BSRR, ((odr & PinMask) << 16u) | (~odr & PinMask));
 458              		.loc 3 1016 3 discriminator 1 view .LVU127
1016:../Drivers/STM32L4xx_HAL_Driver/Inc/stm32l4xx_ll_gpio.h ****   WRITE_REG(GPIOx->BSRR, ((odr & PinMask) << 16u) | (~odr & PinMask));
 459              		.loc 3 1016 12 is_stmt 0 discriminator 1 view .LVU128
 460 00a8 6369     		ldr	r3, [r4, #20]
 461              	.LVL38:
 462              		.loc 3 1017 3 is_stmt 1 discriminator 1 view .LVU129
 463 00aa 1A04     		lsls	r2, r3, #16
 464 00ac 02F08042 		and	r2, r2, #1073741824
 465 00b0 DB43     		mvns	r3, r3
 466              	.LVL39:
 467              		.loc 3 1017 3 is_stmt 0 discriminator 1 view .LVU130
 468 00b2 03F48043 		and	r3, r3, #16384
 469              	.LVL40:
 470              		.loc 3 1017 3 discriminator 1 view .LVU131
 471 00b6 1343     		orrs	r3, r3, r2
 472 00b8 A361     		str	r3, [r4, #24]
 473 00ba AEE7     		b	.L17
 474              	.L20:
 475              		.align	2
 476              	.L19:
 477 00bc 00080048 		.word	1207961600
 478 00c0 00000000 		.word	.LANCHOR0
 479 00c4 00000000 		.word	.LANCHOR1
 480              	.LBE29:
 481              	.LBE28:
 482              		.cfi_endproc
ARM GAS  /tmp/ccwYF4dg.s 			page 36


 483              	.LFE725:
 485              		.global	period_ms
 486              		.global	NUM_OF_FLASHING_PERIODS
 487              		.global	index_v
 488              		.global	ubButtonPress
 489              		.section	.bss.index_v,"aw",%nobits
 490              		.set	.LANCHOR0,. + 0
 493              	index_v:
 494 0000 00       		.space	1
 495              		.section	.bss.ubButtonPress,"aw",%nobits
 498              	ubButtonPress:
 499 0000 00       		.space	1
 500              		.section	.data.period_ms,"aw"
 501              		.align	2
 502              		.set	.LANCHOR1,. + 0
 505              	period_ms:
 506 0000 6F00     		.short	111
 507 0002 4D01     		.short	333
 508 0004 E703     		.short	999
 509              		.section	.rodata.NUM_OF_FLASHING_PERIODS,"a"
 512              	NUM_OF_FLASHING_PERIODS:
 513 0000 03       		.byte	3
 514              		.text
 515              	.Letext0:
 516              		.file 4 "/usr/lib/gcc/arm-none-eabi/10.3.1/include/stdint.h"
 517              		.file 5 "../Drivers/CMSIS/Device/ST/STM32L4xx/Include/stm32l4a6xx.h"
 518              		.file 6 "../Drivers/STM32L4xx_HAL_Driver/Inc/stm32l4xx_hal_rcc.h"
 519              		.file 7 "../Drivers/STM32L4xx_HAL_Driver/Inc/stm32l4xx_ll_dma.h"
 520              		.file 8 "../Drivers/STM32L4xx_HAL_Driver/Inc/stm32l4xx_hal_pwr_ex.h"
 521              		.file 9 "../Drivers/STM32L4xx_HAL_Driver/Inc/stm32l4xx_hal_pwr.h"
 522              		.file 10 "../Drivers/STM32L4xx_HAL_Driver/Inc/stm32l4xx_hal_rcc_ex.h"
 523              		.file 11 "../Drivers/STM32L4xx_HAL_Driver/Inc/stm32l4xx_hal.h"
 524              		.file 12 "../Core/Inc/gpio.h"
 525              		.file 13 "../Core/Inc/usart.h"
 526              		.file 14 "../Core/Inc/usb_otg.h"
 527              		.file 15 "../Drivers/STM32L4xx_HAL_Driver/Inc/stm32l4xx_hal_def.h"
 528              		.file 16 "<built-in>"
ARM GAS  /tmp/ccwYF4dg.s 			page 37

