ARM GAS  /tmp/ccJzOZLR.s 			page 1


   1              		.cpu cortex-m4
   2              		.eabi_attribute 27, 1
   3              		.eabi_attribute 28, 1
   4              		.eabi_attribute 20, 1
   5              		.eabi_attribute 21, 1
   6              		.eabi_attribute 23, 3
   7              		.eabi_attribute 24, 1
   8              		.eabi_attribute 25, 1
   9              		.eabi_attribute 26, 1
  10              		.eabi_attribute 30, 1
  11              		.eabi_attribute 34, 1
  12              		.eabi_attribute 18, 4
  13              		.file	"stm32l4xx_ll_usb.c"
  14              		.text
  15              	.Ltext0:
  16              		.cfi_sections	.debug_frame
  17              		.section	.text.USB_CoreReset,"ax",%progbits
  18              		.align	1
  19              		.arch armv7e-m
  20              		.syntax unified
  21              		.thumb
  22              		.thumb_func
  23              		.fpu fpv4-sp-d16
  25              	USB_CoreReset:
  26              	.LVL0:
  27              	.LFB166:
  28              		.file 1 "../Drivers/STM32L4xx_HAL_Driver/Src/stm32l4xx_ll_usb.c"
   1:../Drivers/STM32L4xx_HAL_Driver/Src/stm32l4xx_ll_usb.c **** /**
   2:../Drivers/STM32L4xx_HAL_Driver/Src/stm32l4xx_ll_usb.c ****   ******************************************************************************
   3:../Drivers/STM32L4xx_HAL_Driver/Src/stm32l4xx_ll_usb.c ****   * @file    stm32l4xx_ll_usb.c
   4:../Drivers/STM32L4xx_HAL_Driver/Src/stm32l4xx_ll_usb.c ****   * @author  MCD Application Team
   5:../Drivers/STM32L4xx_HAL_Driver/Src/stm32l4xx_ll_usb.c ****   * @brief   USB Low Layer HAL module driver.
   6:../Drivers/STM32L4xx_HAL_Driver/Src/stm32l4xx_ll_usb.c ****   *
   7:../Drivers/STM32L4xx_HAL_Driver/Src/stm32l4xx_ll_usb.c ****   *          This file provides firmware functions to manage the following
   8:../Drivers/STM32L4xx_HAL_Driver/Src/stm32l4xx_ll_usb.c ****   *          functionalities of the USB Peripheral Controller:
   9:../Drivers/STM32L4xx_HAL_Driver/Src/stm32l4xx_ll_usb.c ****   *           + Initialization/de-initialization functions
  10:../Drivers/STM32L4xx_HAL_Driver/Src/stm32l4xx_ll_usb.c ****   *           + I/O operation functions
  11:../Drivers/STM32L4xx_HAL_Driver/Src/stm32l4xx_ll_usb.c ****   *           + Peripheral Control functions
  12:../Drivers/STM32L4xx_HAL_Driver/Src/stm32l4xx_ll_usb.c ****   *           + Peripheral State functions
  13:../Drivers/STM32L4xx_HAL_Driver/Src/stm32l4xx_ll_usb.c ****   *
  14:../Drivers/STM32L4xx_HAL_Driver/Src/stm32l4xx_ll_usb.c ****   ******************************************************************************
  15:../Drivers/STM32L4xx_HAL_Driver/Src/stm32l4xx_ll_usb.c ****   * @attention
  16:../Drivers/STM32L4xx_HAL_Driver/Src/stm32l4xx_ll_usb.c ****   *
  17:../Drivers/STM32L4xx_HAL_Driver/Src/stm32l4xx_ll_usb.c ****   * Copyright (c) 2017 STMicroelectronics.
  18:../Drivers/STM32L4xx_HAL_Driver/Src/stm32l4xx_ll_usb.c ****   * All rights reserved.
  19:../Drivers/STM32L4xx_HAL_Driver/Src/stm32l4xx_ll_usb.c ****   *
  20:../Drivers/STM32L4xx_HAL_Driver/Src/stm32l4xx_ll_usb.c ****   * This software is licensed under terms that can be found in the LICENSE file
  21:../Drivers/STM32L4xx_HAL_Driver/Src/stm32l4xx_ll_usb.c ****   * in the root directory of this software component.
  22:../Drivers/STM32L4xx_HAL_Driver/Src/stm32l4xx_ll_usb.c ****   * If no LICENSE file comes with this software, it is provided AS-IS.
  23:../Drivers/STM32L4xx_HAL_Driver/Src/stm32l4xx_ll_usb.c ****   *
  24:../Drivers/STM32L4xx_HAL_Driver/Src/stm32l4xx_ll_usb.c ****   ******************************************************************************
  25:../Drivers/STM32L4xx_HAL_Driver/Src/stm32l4xx_ll_usb.c ****   @verbatim
  26:../Drivers/STM32L4xx_HAL_Driver/Src/stm32l4xx_ll_usb.c ****   ==============================================================================
  27:../Drivers/STM32L4xx_HAL_Driver/Src/stm32l4xx_ll_usb.c ****                     ##### How to use this driver #####
  28:../Drivers/STM32L4xx_HAL_Driver/Src/stm32l4xx_ll_usb.c ****   ==============================================================================
  29:../Drivers/STM32L4xx_HAL_Driver/Src/stm32l4xx_ll_usb.c ****     [..]
  30:../Drivers/STM32L4xx_HAL_Driver/Src/stm32l4xx_ll_usb.c ****       (#) Fill parameters of Init structure in USB_OTG_CfgTypeDef structure.
ARM GAS  /tmp/ccJzOZLR.s 			page 2


  31:../Drivers/STM32L4xx_HAL_Driver/Src/stm32l4xx_ll_usb.c **** 
  32:../Drivers/STM32L4xx_HAL_Driver/Src/stm32l4xx_ll_usb.c ****       (#) Call USB_CoreInit() API to initialize the USB Core peripheral.
  33:../Drivers/STM32L4xx_HAL_Driver/Src/stm32l4xx_ll_usb.c **** 
  34:../Drivers/STM32L4xx_HAL_Driver/Src/stm32l4xx_ll_usb.c ****       (#) The upper HAL HCD/PCD driver will call the right routines for its internal processes.
  35:../Drivers/STM32L4xx_HAL_Driver/Src/stm32l4xx_ll_usb.c **** 
  36:../Drivers/STM32L4xx_HAL_Driver/Src/stm32l4xx_ll_usb.c ****   @endverbatim
  37:../Drivers/STM32L4xx_HAL_Driver/Src/stm32l4xx_ll_usb.c **** 
  38:../Drivers/STM32L4xx_HAL_Driver/Src/stm32l4xx_ll_usb.c ****   ******************************************************************************
  39:../Drivers/STM32L4xx_HAL_Driver/Src/stm32l4xx_ll_usb.c ****   */
  40:../Drivers/STM32L4xx_HAL_Driver/Src/stm32l4xx_ll_usb.c **** 
  41:../Drivers/STM32L4xx_HAL_Driver/Src/stm32l4xx_ll_usb.c **** /* Includes ------------------------------------------------------------------*/
  42:../Drivers/STM32L4xx_HAL_Driver/Src/stm32l4xx_ll_usb.c **** #include "stm32l4xx_hal.h"
  43:../Drivers/STM32L4xx_HAL_Driver/Src/stm32l4xx_ll_usb.c **** 
  44:../Drivers/STM32L4xx_HAL_Driver/Src/stm32l4xx_ll_usb.c **** /** @addtogroup STM32L4xx_LL_USB_DRIVER
  45:../Drivers/STM32L4xx_HAL_Driver/Src/stm32l4xx_ll_usb.c ****   * @{
  46:../Drivers/STM32L4xx_HAL_Driver/Src/stm32l4xx_ll_usb.c ****   */
  47:../Drivers/STM32L4xx_HAL_Driver/Src/stm32l4xx_ll_usb.c **** 
  48:../Drivers/STM32L4xx_HAL_Driver/Src/stm32l4xx_ll_usb.c **** #if defined (HAL_PCD_MODULE_ENABLED) || defined (HAL_HCD_MODULE_ENABLED)
  49:../Drivers/STM32L4xx_HAL_Driver/Src/stm32l4xx_ll_usb.c **** #if defined (USB) || defined (USB_OTG_FS)
  50:../Drivers/STM32L4xx_HAL_Driver/Src/stm32l4xx_ll_usb.c **** /* Private typedef -----------------------------------------------------------*/
  51:../Drivers/STM32L4xx_HAL_Driver/Src/stm32l4xx_ll_usb.c **** /* Private define ------------------------------------------------------------*/
  52:../Drivers/STM32L4xx_HAL_Driver/Src/stm32l4xx_ll_usb.c **** /* Private macro -------------------------------------------------------------*/
  53:../Drivers/STM32L4xx_HAL_Driver/Src/stm32l4xx_ll_usb.c **** /* Private variables ---------------------------------------------------------*/
  54:../Drivers/STM32L4xx_HAL_Driver/Src/stm32l4xx_ll_usb.c **** /* Private function prototypes -----------------------------------------------*/
  55:../Drivers/STM32L4xx_HAL_Driver/Src/stm32l4xx_ll_usb.c **** /* Private functions ---------------------------------------------------------*/
  56:../Drivers/STM32L4xx_HAL_Driver/Src/stm32l4xx_ll_usb.c **** #if defined (USB_OTG_FS)
  57:../Drivers/STM32L4xx_HAL_Driver/Src/stm32l4xx_ll_usb.c **** static HAL_StatusTypeDef USB_CoreReset(USB_OTG_GlobalTypeDef *USBx);
  58:../Drivers/STM32L4xx_HAL_Driver/Src/stm32l4xx_ll_usb.c **** 
  59:../Drivers/STM32L4xx_HAL_Driver/Src/stm32l4xx_ll_usb.c **** /* Exported functions --------------------------------------------------------*/
  60:../Drivers/STM32L4xx_HAL_Driver/Src/stm32l4xx_ll_usb.c **** /** @defgroup USB_LL_Exported_Functions USB Low Layer Exported Functions
  61:../Drivers/STM32L4xx_HAL_Driver/Src/stm32l4xx_ll_usb.c ****   * @{
  62:../Drivers/STM32L4xx_HAL_Driver/Src/stm32l4xx_ll_usb.c ****   */
  63:../Drivers/STM32L4xx_HAL_Driver/Src/stm32l4xx_ll_usb.c **** 
  64:../Drivers/STM32L4xx_HAL_Driver/Src/stm32l4xx_ll_usb.c **** /** @defgroup USB_LL_Exported_Functions_Group1 Initialization/de-initialization functions
  65:../Drivers/STM32L4xx_HAL_Driver/Src/stm32l4xx_ll_usb.c ****   *  @brief    Initialization and Configuration functions
  66:../Drivers/STM32L4xx_HAL_Driver/Src/stm32l4xx_ll_usb.c ****   *
  67:../Drivers/STM32L4xx_HAL_Driver/Src/stm32l4xx_ll_usb.c **** @verbatim
  68:../Drivers/STM32L4xx_HAL_Driver/Src/stm32l4xx_ll_usb.c ****  ===============================================================================
  69:../Drivers/STM32L4xx_HAL_Driver/Src/stm32l4xx_ll_usb.c ****                       ##### Initialization/de-initialization functions #####
  70:../Drivers/STM32L4xx_HAL_Driver/Src/stm32l4xx_ll_usb.c ****  ===============================================================================
  71:../Drivers/STM32L4xx_HAL_Driver/Src/stm32l4xx_ll_usb.c **** 
  72:../Drivers/STM32L4xx_HAL_Driver/Src/stm32l4xx_ll_usb.c **** @endverbatim
  73:../Drivers/STM32L4xx_HAL_Driver/Src/stm32l4xx_ll_usb.c ****   * @{
  74:../Drivers/STM32L4xx_HAL_Driver/Src/stm32l4xx_ll_usb.c ****   */
  75:../Drivers/STM32L4xx_HAL_Driver/Src/stm32l4xx_ll_usb.c **** 
  76:../Drivers/STM32L4xx_HAL_Driver/Src/stm32l4xx_ll_usb.c **** /**
  77:../Drivers/STM32L4xx_HAL_Driver/Src/stm32l4xx_ll_usb.c ****   * @brief  Initializes the USB Core
  78:../Drivers/STM32L4xx_HAL_Driver/Src/stm32l4xx_ll_usb.c ****   * @param  USBx USB Instance
  79:../Drivers/STM32L4xx_HAL_Driver/Src/stm32l4xx_ll_usb.c ****   * @param  cfg pointer to a USB_OTG_CfgTypeDef structure that contains
  80:../Drivers/STM32L4xx_HAL_Driver/Src/stm32l4xx_ll_usb.c ****   *         the configuration information for the specified USBx peripheral.
  81:../Drivers/STM32L4xx_HAL_Driver/Src/stm32l4xx_ll_usb.c ****   * @retval HAL status
  82:../Drivers/STM32L4xx_HAL_Driver/Src/stm32l4xx_ll_usb.c ****   */
  83:../Drivers/STM32L4xx_HAL_Driver/Src/stm32l4xx_ll_usb.c **** HAL_StatusTypeDef USB_CoreInit(USB_OTG_GlobalTypeDef *USBx, USB_OTG_CfgTypeDef cfg)
  84:../Drivers/STM32L4xx_HAL_Driver/Src/stm32l4xx_ll_usb.c **** {
  85:../Drivers/STM32L4xx_HAL_Driver/Src/stm32l4xx_ll_usb.c ****   HAL_StatusTypeDef ret;
  86:../Drivers/STM32L4xx_HAL_Driver/Src/stm32l4xx_ll_usb.c **** 
  87:../Drivers/STM32L4xx_HAL_Driver/Src/stm32l4xx_ll_usb.c ****   /* Select FS Embedded PHY */
ARM GAS  /tmp/ccJzOZLR.s 			page 3


  88:../Drivers/STM32L4xx_HAL_Driver/Src/stm32l4xx_ll_usb.c ****   USBx->GUSBCFG |= USB_OTG_GUSBCFG_PHYSEL;
  89:../Drivers/STM32L4xx_HAL_Driver/Src/stm32l4xx_ll_usb.c **** 
  90:../Drivers/STM32L4xx_HAL_Driver/Src/stm32l4xx_ll_usb.c ****   /* Reset after a PHY select */
  91:../Drivers/STM32L4xx_HAL_Driver/Src/stm32l4xx_ll_usb.c ****   ret = USB_CoreReset(USBx);
  92:../Drivers/STM32L4xx_HAL_Driver/Src/stm32l4xx_ll_usb.c **** 
  93:../Drivers/STM32L4xx_HAL_Driver/Src/stm32l4xx_ll_usb.c ****   if (cfg.battery_charging_enable == 0U)
  94:../Drivers/STM32L4xx_HAL_Driver/Src/stm32l4xx_ll_usb.c ****   {
  95:../Drivers/STM32L4xx_HAL_Driver/Src/stm32l4xx_ll_usb.c ****     /* Activate the USB Transceiver */
  96:../Drivers/STM32L4xx_HAL_Driver/Src/stm32l4xx_ll_usb.c ****     USBx->GCCFG |= USB_OTG_GCCFG_PWRDWN;
  97:../Drivers/STM32L4xx_HAL_Driver/Src/stm32l4xx_ll_usb.c ****   }
  98:../Drivers/STM32L4xx_HAL_Driver/Src/stm32l4xx_ll_usb.c ****   else
  99:../Drivers/STM32L4xx_HAL_Driver/Src/stm32l4xx_ll_usb.c ****   {
 100:../Drivers/STM32L4xx_HAL_Driver/Src/stm32l4xx_ll_usb.c ****     /* Deactivate the USB Transceiver */
 101:../Drivers/STM32L4xx_HAL_Driver/Src/stm32l4xx_ll_usb.c ****     USBx->GCCFG &= ~(USB_OTG_GCCFG_PWRDWN);
 102:../Drivers/STM32L4xx_HAL_Driver/Src/stm32l4xx_ll_usb.c ****   }
 103:../Drivers/STM32L4xx_HAL_Driver/Src/stm32l4xx_ll_usb.c **** 
 104:../Drivers/STM32L4xx_HAL_Driver/Src/stm32l4xx_ll_usb.c ****   return ret;
 105:../Drivers/STM32L4xx_HAL_Driver/Src/stm32l4xx_ll_usb.c **** }
 106:../Drivers/STM32L4xx_HAL_Driver/Src/stm32l4xx_ll_usb.c **** 
 107:../Drivers/STM32L4xx_HAL_Driver/Src/stm32l4xx_ll_usb.c **** 
 108:../Drivers/STM32L4xx_HAL_Driver/Src/stm32l4xx_ll_usb.c **** /**
 109:../Drivers/STM32L4xx_HAL_Driver/Src/stm32l4xx_ll_usb.c ****   * @brief  Set the USB turnaround time
 110:../Drivers/STM32L4xx_HAL_Driver/Src/stm32l4xx_ll_usb.c ****   * @param  USBx USB Instance
 111:../Drivers/STM32L4xx_HAL_Driver/Src/stm32l4xx_ll_usb.c ****   * @param  hclk: AHB clock frequency
 112:../Drivers/STM32L4xx_HAL_Driver/Src/stm32l4xx_ll_usb.c ****   * @retval USB turnaround time In PHY Clocks number
 113:../Drivers/STM32L4xx_HAL_Driver/Src/stm32l4xx_ll_usb.c ****   */
 114:../Drivers/STM32L4xx_HAL_Driver/Src/stm32l4xx_ll_usb.c **** HAL_StatusTypeDef USB_SetTurnaroundTime(USB_OTG_GlobalTypeDef *USBx,
 115:../Drivers/STM32L4xx_HAL_Driver/Src/stm32l4xx_ll_usb.c ****                                         uint32_t hclk, uint8_t speed)
 116:../Drivers/STM32L4xx_HAL_Driver/Src/stm32l4xx_ll_usb.c **** {
 117:../Drivers/STM32L4xx_HAL_Driver/Src/stm32l4xx_ll_usb.c ****   uint32_t UsbTrd;
 118:../Drivers/STM32L4xx_HAL_Driver/Src/stm32l4xx_ll_usb.c **** 
 119:../Drivers/STM32L4xx_HAL_Driver/Src/stm32l4xx_ll_usb.c ****   /* The USBTRD is configured according to the tables below, depending on AHB frequency
 120:../Drivers/STM32L4xx_HAL_Driver/Src/stm32l4xx_ll_usb.c ****   used by application. In the low AHB frequency range it is used to stretch enough the USB response
 121:../Drivers/STM32L4xx_HAL_Driver/Src/stm32l4xx_ll_usb.c ****   time to IN tokens, the USB turnaround time, so to compensate for the longer AHB read access
 122:../Drivers/STM32L4xx_HAL_Driver/Src/stm32l4xx_ll_usb.c ****   latency to the Data FIFO */
 123:../Drivers/STM32L4xx_HAL_Driver/Src/stm32l4xx_ll_usb.c ****   if (speed == USBD_FS_SPEED)
 124:../Drivers/STM32L4xx_HAL_Driver/Src/stm32l4xx_ll_usb.c ****   {
 125:../Drivers/STM32L4xx_HAL_Driver/Src/stm32l4xx_ll_usb.c ****     if ((hclk >= 14200000U) && (hclk < 15000000U))
 126:../Drivers/STM32L4xx_HAL_Driver/Src/stm32l4xx_ll_usb.c ****     {
 127:../Drivers/STM32L4xx_HAL_Driver/Src/stm32l4xx_ll_usb.c ****       /* hclk Clock Range between 14.2-15 MHz */
 128:../Drivers/STM32L4xx_HAL_Driver/Src/stm32l4xx_ll_usb.c ****       UsbTrd = 0xFU;
 129:../Drivers/STM32L4xx_HAL_Driver/Src/stm32l4xx_ll_usb.c ****     }
 130:../Drivers/STM32L4xx_HAL_Driver/Src/stm32l4xx_ll_usb.c ****     else if ((hclk >= 15000000U) && (hclk < 16000000U))
 131:../Drivers/STM32L4xx_HAL_Driver/Src/stm32l4xx_ll_usb.c ****     {
 132:../Drivers/STM32L4xx_HAL_Driver/Src/stm32l4xx_ll_usb.c ****       /* hclk Clock Range between 15-16 MHz */
 133:../Drivers/STM32L4xx_HAL_Driver/Src/stm32l4xx_ll_usb.c ****       UsbTrd = 0xEU;
 134:../Drivers/STM32L4xx_HAL_Driver/Src/stm32l4xx_ll_usb.c ****     }
 135:../Drivers/STM32L4xx_HAL_Driver/Src/stm32l4xx_ll_usb.c ****     else if ((hclk >= 16000000U) && (hclk < 17200000U))
 136:../Drivers/STM32L4xx_HAL_Driver/Src/stm32l4xx_ll_usb.c ****     {
 137:../Drivers/STM32L4xx_HAL_Driver/Src/stm32l4xx_ll_usb.c ****       /* hclk Clock Range between 16-17.2 MHz */
 138:../Drivers/STM32L4xx_HAL_Driver/Src/stm32l4xx_ll_usb.c ****       UsbTrd = 0xDU;
 139:../Drivers/STM32L4xx_HAL_Driver/Src/stm32l4xx_ll_usb.c ****     }
 140:../Drivers/STM32L4xx_HAL_Driver/Src/stm32l4xx_ll_usb.c ****     else if ((hclk >= 17200000U) && (hclk < 18500000U))
 141:../Drivers/STM32L4xx_HAL_Driver/Src/stm32l4xx_ll_usb.c ****     {
 142:../Drivers/STM32L4xx_HAL_Driver/Src/stm32l4xx_ll_usb.c ****       /* hclk Clock Range between 17.2-18.5 MHz */
 143:../Drivers/STM32L4xx_HAL_Driver/Src/stm32l4xx_ll_usb.c ****       UsbTrd = 0xCU;
 144:../Drivers/STM32L4xx_HAL_Driver/Src/stm32l4xx_ll_usb.c ****     }
ARM GAS  /tmp/ccJzOZLR.s 			page 4


 145:../Drivers/STM32L4xx_HAL_Driver/Src/stm32l4xx_ll_usb.c ****     else if ((hclk >= 18500000U) && (hclk < 20000000U))
 146:../Drivers/STM32L4xx_HAL_Driver/Src/stm32l4xx_ll_usb.c ****     {
 147:../Drivers/STM32L4xx_HAL_Driver/Src/stm32l4xx_ll_usb.c ****       /* hclk Clock Range between 18.5-20 MHz */
 148:../Drivers/STM32L4xx_HAL_Driver/Src/stm32l4xx_ll_usb.c ****       UsbTrd = 0xBU;
 149:../Drivers/STM32L4xx_HAL_Driver/Src/stm32l4xx_ll_usb.c ****     }
 150:../Drivers/STM32L4xx_HAL_Driver/Src/stm32l4xx_ll_usb.c ****     else if ((hclk >= 20000000U) && (hclk < 21800000U))
 151:../Drivers/STM32L4xx_HAL_Driver/Src/stm32l4xx_ll_usb.c ****     {
 152:../Drivers/STM32L4xx_HAL_Driver/Src/stm32l4xx_ll_usb.c ****       /* hclk Clock Range between 20-21.8 MHz */
 153:../Drivers/STM32L4xx_HAL_Driver/Src/stm32l4xx_ll_usb.c ****       UsbTrd = 0xAU;
 154:../Drivers/STM32L4xx_HAL_Driver/Src/stm32l4xx_ll_usb.c ****     }
 155:../Drivers/STM32L4xx_HAL_Driver/Src/stm32l4xx_ll_usb.c ****     else if ((hclk >= 21800000U) && (hclk < 24000000U))
 156:../Drivers/STM32L4xx_HAL_Driver/Src/stm32l4xx_ll_usb.c ****     {
 157:../Drivers/STM32L4xx_HAL_Driver/Src/stm32l4xx_ll_usb.c ****       /* hclk Clock Range between 21.8-24 MHz */
 158:../Drivers/STM32L4xx_HAL_Driver/Src/stm32l4xx_ll_usb.c ****       UsbTrd = 0x9U;
 159:../Drivers/STM32L4xx_HAL_Driver/Src/stm32l4xx_ll_usb.c ****     }
 160:../Drivers/STM32L4xx_HAL_Driver/Src/stm32l4xx_ll_usb.c ****     else if ((hclk >= 24000000U) && (hclk < 27700000U))
 161:../Drivers/STM32L4xx_HAL_Driver/Src/stm32l4xx_ll_usb.c ****     {
 162:../Drivers/STM32L4xx_HAL_Driver/Src/stm32l4xx_ll_usb.c ****       /* hclk Clock Range between 24-27.7 MHz */
 163:../Drivers/STM32L4xx_HAL_Driver/Src/stm32l4xx_ll_usb.c ****       UsbTrd = 0x8U;
 164:../Drivers/STM32L4xx_HAL_Driver/Src/stm32l4xx_ll_usb.c ****     }
 165:../Drivers/STM32L4xx_HAL_Driver/Src/stm32l4xx_ll_usb.c ****     else if ((hclk >= 27700000U) && (hclk < 32000000U))
 166:../Drivers/STM32L4xx_HAL_Driver/Src/stm32l4xx_ll_usb.c ****     {
 167:../Drivers/STM32L4xx_HAL_Driver/Src/stm32l4xx_ll_usb.c ****       /* hclk Clock Range between 27.7-32 MHz */
 168:../Drivers/STM32L4xx_HAL_Driver/Src/stm32l4xx_ll_usb.c ****       UsbTrd = 0x7U;
 169:../Drivers/STM32L4xx_HAL_Driver/Src/stm32l4xx_ll_usb.c ****     }
 170:../Drivers/STM32L4xx_HAL_Driver/Src/stm32l4xx_ll_usb.c ****     else /* if(hclk >= 32000000) */
 171:../Drivers/STM32L4xx_HAL_Driver/Src/stm32l4xx_ll_usb.c ****     {
 172:../Drivers/STM32L4xx_HAL_Driver/Src/stm32l4xx_ll_usb.c ****       /* hclk Clock Range between 32-200 MHz */
 173:../Drivers/STM32L4xx_HAL_Driver/Src/stm32l4xx_ll_usb.c ****       UsbTrd = 0x6U;
 174:../Drivers/STM32L4xx_HAL_Driver/Src/stm32l4xx_ll_usb.c ****     }
 175:../Drivers/STM32L4xx_HAL_Driver/Src/stm32l4xx_ll_usb.c ****   }
 176:../Drivers/STM32L4xx_HAL_Driver/Src/stm32l4xx_ll_usb.c ****   else
 177:../Drivers/STM32L4xx_HAL_Driver/Src/stm32l4xx_ll_usb.c ****   {
 178:../Drivers/STM32L4xx_HAL_Driver/Src/stm32l4xx_ll_usb.c ****     UsbTrd = USBD_DEFAULT_TRDT_VALUE;
 179:../Drivers/STM32L4xx_HAL_Driver/Src/stm32l4xx_ll_usb.c ****   }
 180:../Drivers/STM32L4xx_HAL_Driver/Src/stm32l4xx_ll_usb.c **** 
 181:../Drivers/STM32L4xx_HAL_Driver/Src/stm32l4xx_ll_usb.c ****   USBx->GUSBCFG &= ~USB_OTG_GUSBCFG_TRDT;
 182:../Drivers/STM32L4xx_HAL_Driver/Src/stm32l4xx_ll_usb.c ****   USBx->GUSBCFG |= (uint32_t)((UsbTrd << 10) & USB_OTG_GUSBCFG_TRDT);
 183:../Drivers/STM32L4xx_HAL_Driver/Src/stm32l4xx_ll_usb.c **** 
 184:../Drivers/STM32L4xx_HAL_Driver/Src/stm32l4xx_ll_usb.c ****   return HAL_OK;
 185:../Drivers/STM32L4xx_HAL_Driver/Src/stm32l4xx_ll_usb.c **** }
 186:../Drivers/STM32L4xx_HAL_Driver/Src/stm32l4xx_ll_usb.c **** 
 187:../Drivers/STM32L4xx_HAL_Driver/Src/stm32l4xx_ll_usb.c **** /**
 188:../Drivers/STM32L4xx_HAL_Driver/Src/stm32l4xx_ll_usb.c ****   * @brief  USB_EnableGlobalInt
 189:../Drivers/STM32L4xx_HAL_Driver/Src/stm32l4xx_ll_usb.c ****   *         Enables the controller's Global Int in the AHB Config reg
 190:../Drivers/STM32L4xx_HAL_Driver/Src/stm32l4xx_ll_usb.c ****   * @param  USBx  Selected device
 191:../Drivers/STM32L4xx_HAL_Driver/Src/stm32l4xx_ll_usb.c ****   * @retval HAL status
 192:../Drivers/STM32L4xx_HAL_Driver/Src/stm32l4xx_ll_usb.c ****   */
 193:../Drivers/STM32L4xx_HAL_Driver/Src/stm32l4xx_ll_usb.c **** HAL_StatusTypeDef USB_EnableGlobalInt(USB_OTG_GlobalTypeDef *USBx)
 194:../Drivers/STM32L4xx_HAL_Driver/Src/stm32l4xx_ll_usb.c **** {
 195:../Drivers/STM32L4xx_HAL_Driver/Src/stm32l4xx_ll_usb.c ****   USBx->GAHBCFG |= USB_OTG_GAHBCFG_GINT;
 196:../Drivers/STM32L4xx_HAL_Driver/Src/stm32l4xx_ll_usb.c ****   return HAL_OK;
 197:../Drivers/STM32L4xx_HAL_Driver/Src/stm32l4xx_ll_usb.c **** }
 198:../Drivers/STM32L4xx_HAL_Driver/Src/stm32l4xx_ll_usb.c **** 
 199:../Drivers/STM32L4xx_HAL_Driver/Src/stm32l4xx_ll_usb.c **** /**
 200:../Drivers/STM32L4xx_HAL_Driver/Src/stm32l4xx_ll_usb.c ****   * @brief  USB_DisableGlobalInt
 201:../Drivers/STM32L4xx_HAL_Driver/Src/stm32l4xx_ll_usb.c ****   *         Disable the controller's Global Int in the AHB Config reg
ARM GAS  /tmp/ccJzOZLR.s 			page 5


 202:../Drivers/STM32L4xx_HAL_Driver/Src/stm32l4xx_ll_usb.c ****   * @param  USBx  Selected device
 203:../Drivers/STM32L4xx_HAL_Driver/Src/stm32l4xx_ll_usb.c ****   * @retval HAL status
 204:../Drivers/STM32L4xx_HAL_Driver/Src/stm32l4xx_ll_usb.c ****   */
 205:../Drivers/STM32L4xx_HAL_Driver/Src/stm32l4xx_ll_usb.c **** HAL_StatusTypeDef USB_DisableGlobalInt(USB_OTG_GlobalTypeDef *USBx)
 206:../Drivers/STM32L4xx_HAL_Driver/Src/stm32l4xx_ll_usb.c **** {
 207:../Drivers/STM32L4xx_HAL_Driver/Src/stm32l4xx_ll_usb.c ****   USBx->GAHBCFG &= ~USB_OTG_GAHBCFG_GINT;
 208:../Drivers/STM32L4xx_HAL_Driver/Src/stm32l4xx_ll_usb.c ****   return HAL_OK;
 209:../Drivers/STM32L4xx_HAL_Driver/Src/stm32l4xx_ll_usb.c **** }
 210:../Drivers/STM32L4xx_HAL_Driver/Src/stm32l4xx_ll_usb.c **** 
 211:../Drivers/STM32L4xx_HAL_Driver/Src/stm32l4xx_ll_usb.c **** /**
 212:../Drivers/STM32L4xx_HAL_Driver/Src/stm32l4xx_ll_usb.c ****   * @brief  USB_SetCurrentMode Set functional mode
 213:../Drivers/STM32L4xx_HAL_Driver/Src/stm32l4xx_ll_usb.c ****   * @param  USBx  Selected device
 214:../Drivers/STM32L4xx_HAL_Driver/Src/stm32l4xx_ll_usb.c ****   * @param  mode  current core mode
 215:../Drivers/STM32L4xx_HAL_Driver/Src/stm32l4xx_ll_usb.c ****   *          This parameter can be one of these values:
 216:../Drivers/STM32L4xx_HAL_Driver/Src/stm32l4xx_ll_usb.c ****   *            @arg USB_DEVICE_MODE Peripheral mode
 217:../Drivers/STM32L4xx_HAL_Driver/Src/stm32l4xx_ll_usb.c ****   *            @arg USB_HOST_MODE Host mode
 218:../Drivers/STM32L4xx_HAL_Driver/Src/stm32l4xx_ll_usb.c ****   * @retval HAL status
 219:../Drivers/STM32L4xx_HAL_Driver/Src/stm32l4xx_ll_usb.c ****   */
 220:../Drivers/STM32L4xx_HAL_Driver/Src/stm32l4xx_ll_usb.c **** HAL_StatusTypeDef USB_SetCurrentMode(USB_OTG_GlobalTypeDef *USBx, USB_ModeTypeDef mode)
 221:../Drivers/STM32L4xx_HAL_Driver/Src/stm32l4xx_ll_usb.c **** {
 222:../Drivers/STM32L4xx_HAL_Driver/Src/stm32l4xx_ll_usb.c ****   uint32_t ms = 0U;
 223:../Drivers/STM32L4xx_HAL_Driver/Src/stm32l4xx_ll_usb.c **** 
 224:../Drivers/STM32L4xx_HAL_Driver/Src/stm32l4xx_ll_usb.c ****   USBx->GUSBCFG &= ~(USB_OTG_GUSBCFG_FHMOD | USB_OTG_GUSBCFG_FDMOD);
 225:../Drivers/STM32L4xx_HAL_Driver/Src/stm32l4xx_ll_usb.c **** 
 226:../Drivers/STM32L4xx_HAL_Driver/Src/stm32l4xx_ll_usb.c ****   if (mode == USB_HOST_MODE)
 227:../Drivers/STM32L4xx_HAL_Driver/Src/stm32l4xx_ll_usb.c ****   {
 228:../Drivers/STM32L4xx_HAL_Driver/Src/stm32l4xx_ll_usb.c ****     USBx->GUSBCFG |= USB_OTG_GUSBCFG_FHMOD;
 229:../Drivers/STM32L4xx_HAL_Driver/Src/stm32l4xx_ll_usb.c **** 
 230:../Drivers/STM32L4xx_HAL_Driver/Src/stm32l4xx_ll_usb.c ****     do
 231:../Drivers/STM32L4xx_HAL_Driver/Src/stm32l4xx_ll_usb.c ****     {
 232:../Drivers/STM32L4xx_HAL_Driver/Src/stm32l4xx_ll_usb.c ****       HAL_Delay(1U);
 233:../Drivers/STM32L4xx_HAL_Driver/Src/stm32l4xx_ll_usb.c ****       ms++;
 234:../Drivers/STM32L4xx_HAL_Driver/Src/stm32l4xx_ll_usb.c ****     } while ((USB_GetMode(USBx) != (uint32_t)USB_HOST_MODE) && (ms < 50U));
 235:../Drivers/STM32L4xx_HAL_Driver/Src/stm32l4xx_ll_usb.c ****   }
 236:../Drivers/STM32L4xx_HAL_Driver/Src/stm32l4xx_ll_usb.c ****   else if (mode == USB_DEVICE_MODE)
 237:../Drivers/STM32L4xx_HAL_Driver/Src/stm32l4xx_ll_usb.c ****   {
 238:../Drivers/STM32L4xx_HAL_Driver/Src/stm32l4xx_ll_usb.c ****     USBx->GUSBCFG |= USB_OTG_GUSBCFG_FDMOD;
 239:../Drivers/STM32L4xx_HAL_Driver/Src/stm32l4xx_ll_usb.c **** 
 240:../Drivers/STM32L4xx_HAL_Driver/Src/stm32l4xx_ll_usb.c ****     do
 241:../Drivers/STM32L4xx_HAL_Driver/Src/stm32l4xx_ll_usb.c ****     {
 242:../Drivers/STM32L4xx_HAL_Driver/Src/stm32l4xx_ll_usb.c ****       HAL_Delay(1U);
 243:../Drivers/STM32L4xx_HAL_Driver/Src/stm32l4xx_ll_usb.c ****       ms++;
 244:../Drivers/STM32L4xx_HAL_Driver/Src/stm32l4xx_ll_usb.c ****     } while ((USB_GetMode(USBx) != (uint32_t)USB_DEVICE_MODE) && (ms < 50U));
 245:../Drivers/STM32L4xx_HAL_Driver/Src/stm32l4xx_ll_usb.c ****   }
 246:../Drivers/STM32L4xx_HAL_Driver/Src/stm32l4xx_ll_usb.c ****   else
 247:../Drivers/STM32L4xx_HAL_Driver/Src/stm32l4xx_ll_usb.c ****   {
 248:../Drivers/STM32L4xx_HAL_Driver/Src/stm32l4xx_ll_usb.c ****     return HAL_ERROR;
 249:../Drivers/STM32L4xx_HAL_Driver/Src/stm32l4xx_ll_usb.c ****   }
 250:../Drivers/STM32L4xx_HAL_Driver/Src/stm32l4xx_ll_usb.c **** 
 251:../Drivers/STM32L4xx_HAL_Driver/Src/stm32l4xx_ll_usb.c ****   if (ms == 50U)
 252:../Drivers/STM32L4xx_HAL_Driver/Src/stm32l4xx_ll_usb.c ****   {
 253:../Drivers/STM32L4xx_HAL_Driver/Src/stm32l4xx_ll_usb.c ****     return HAL_ERROR;
 254:../Drivers/STM32L4xx_HAL_Driver/Src/stm32l4xx_ll_usb.c ****   }
 255:../Drivers/STM32L4xx_HAL_Driver/Src/stm32l4xx_ll_usb.c **** 
 256:../Drivers/STM32L4xx_HAL_Driver/Src/stm32l4xx_ll_usb.c ****   return HAL_OK;
 257:../Drivers/STM32L4xx_HAL_Driver/Src/stm32l4xx_ll_usb.c **** }
 258:../Drivers/STM32L4xx_HAL_Driver/Src/stm32l4xx_ll_usb.c **** 
ARM GAS  /tmp/ccJzOZLR.s 			page 6


 259:../Drivers/STM32L4xx_HAL_Driver/Src/stm32l4xx_ll_usb.c **** /**
 260:../Drivers/STM32L4xx_HAL_Driver/Src/stm32l4xx_ll_usb.c ****   * @brief  USB_DevInit Initializes the USB_OTG controller registers
 261:../Drivers/STM32L4xx_HAL_Driver/Src/stm32l4xx_ll_usb.c ****   *         for device mode
 262:../Drivers/STM32L4xx_HAL_Driver/Src/stm32l4xx_ll_usb.c ****   * @param  USBx  Selected device
 263:../Drivers/STM32L4xx_HAL_Driver/Src/stm32l4xx_ll_usb.c ****   * @param  cfg   pointer to a USB_OTG_CfgTypeDef structure that contains
 264:../Drivers/STM32L4xx_HAL_Driver/Src/stm32l4xx_ll_usb.c ****   *         the configuration information for the specified USBx peripheral.
 265:../Drivers/STM32L4xx_HAL_Driver/Src/stm32l4xx_ll_usb.c ****   * @retval HAL status
 266:../Drivers/STM32L4xx_HAL_Driver/Src/stm32l4xx_ll_usb.c ****   */
 267:../Drivers/STM32L4xx_HAL_Driver/Src/stm32l4xx_ll_usb.c **** HAL_StatusTypeDef USB_DevInit(USB_OTG_GlobalTypeDef *USBx, USB_OTG_CfgTypeDef cfg)
 268:../Drivers/STM32L4xx_HAL_Driver/Src/stm32l4xx_ll_usb.c **** {
 269:../Drivers/STM32L4xx_HAL_Driver/Src/stm32l4xx_ll_usb.c ****   HAL_StatusTypeDef ret = HAL_OK;
 270:../Drivers/STM32L4xx_HAL_Driver/Src/stm32l4xx_ll_usb.c ****   uint32_t USBx_BASE = (uint32_t)USBx;
 271:../Drivers/STM32L4xx_HAL_Driver/Src/stm32l4xx_ll_usb.c ****   uint32_t i;
 272:../Drivers/STM32L4xx_HAL_Driver/Src/stm32l4xx_ll_usb.c **** 
 273:../Drivers/STM32L4xx_HAL_Driver/Src/stm32l4xx_ll_usb.c ****   for (i = 0U; i < 15U; i++)
 274:../Drivers/STM32L4xx_HAL_Driver/Src/stm32l4xx_ll_usb.c ****   {
 275:../Drivers/STM32L4xx_HAL_Driver/Src/stm32l4xx_ll_usb.c ****     USBx->DIEPTXF[i] = 0U;
 276:../Drivers/STM32L4xx_HAL_Driver/Src/stm32l4xx_ll_usb.c ****   }
 277:../Drivers/STM32L4xx_HAL_Driver/Src/stm32l4xx_ll_usb.c **** 
 278:../Drivers/STM32L4xx_HAL_Driver/Src/stm32l4xx_ll_usb.c ****   /* VBUS Sensing setup */
 279:../Drivers/STM32L4xx_HAL_Driver/Src/stm32l4xx_ll_usb.c ****   if (cfg.vbus_sensing_enable == 0U)
 280:../Drivers/STM32L4xx_HAL_Driver/Src/stm32l4xx_ll_usb.c ****   {
 281:../Drivers/STM32L4xx_HAL_Driver/Src/stm32l4xx_ll_usb.c ****     USBx_DEVICE->DCTL |= USB_OTG_DCTL_SDIS;
 282:../Drivers/STM32L4xx_HAL_Driver/Src/stm32l4xx_ll_usb.c **** 
 283:../Drivers/STM32L4xx_HAL_Driver/Src/stm32l4xx_ll_usb.c ****     /* Deactivate VBUS Sensing B */
 284:../Drivers/STM32L4xx_HAL_Driver/Src/stm32l4xx_ll_usb.c ****     USBx->GCCFG &= ~USB_OTG_GCCFG_VBDEN;
 285:../Drivers/STM32L4xx_HAL_Driver/Src/stm32l4xx_ll_usb.c **** 
 286:../Drivers/STM32L4xx_HAL_Driver/Src/stm32l4xx_ll_usb.c ****     /* B-peripheral session valid override enable */
 287:../Drivers/STM32L4xx_HAL_Driver/Src/stm32l4xx_ll_usb.c ****     USBx->GOTGCTL |= USB_OTG_GOTGCTL_BVALOEN;
 288:../Drivers/STM32L4xx_HAL_Driver/Src/stm32l4xx_ll_usb.c ****     USBx->GOTGCTL |= USB_OTG_GOTGCTL_BVALOVAL;
 289:../Drivers/STM32L4xx_HAL_Driver/Src/stm32l4xx_ll_usb.c ****   }
 290:../Drivers/STM32L4xx_HAL_Driver/Src/stm32l4xx_ll_usb.c ****   else
 291:../Drivers/STM32L4xx_HAL_Driver/Src/stm32l4xx_ll_usb.c ****   {
 292:../Drivers/STM32L4xx_HAL_Driver/Src/stm32l4xx_ll_usb.c ****     /* Enable HW VBUS sensing */
 293:../Drivers/STM32L4xx_HAL_Driver/Src/stm32l4xx_ll_usb.c ****     USBx->GCCFG |= USB_OTG_GCCFG_VBDEN;
 294:../Drivers/STM32L4xx_HAL_Driver/Src/stm32l4xx_ll_usb.c ****   }
 295:../Drivers/STM32L4xx_HAL_Driver/Src/stm32l4xx_ll_usb.c **** 
 296:../Drivers/STM32L4xx_HAL_Driver/Src/stm32l4xx_ll_usb.c ****   /* Restart the Phy Clock */
 297:../Drivers/STM32L4xx_HAL_Driver/Src/stm32l4xx_ll_usb.c ****   USBx_PCGCCTL = 0U;
 298:../Drivers/STM32L4xx_HAL_Driver/Src/stm32l4xx_ll_usb.c **** 
 299:../Drivers/STM32L4xx_HAL_Driver/Src/stm32l4xx_ll_usb.c ****   /* Device mode configuration */
 300:../Drivers/STM32L4xx_HAL_Driver/Src/stm32l4xx_ll_usb.c ****   USBx_DEVICE->DCFG |= DCFG_FRAME_INTERVAL_80;
 301:../Drivers/STM32L4xx_HAL_Driver/Src/stm32l4xx_ll_usb.c **** 
 302:../Drivers/STM32L4xx_HAL_Driver/Src/stm32l4xx_ll_usb.c ****   /* Set Core speed to Full speed mode */
 303:../Drivers/STM32L4xx_HAL_Driver/Src/stm32l4xx_ll_usb.c ****   (void)USB_SetDevSpeed(USBx, USB_OTG_SPEED_FULL);
 304:../Drivers/STM32L4xx_HAL_Driver/Src/stm32l4xx_ll_usb.c **** 
 305:../Drivers/STM32L4xx_HAL_Driver/Src/stm32l4xx_ll_usb.c ****   /* Flush the FIFOs */
 306:../Drivers/STM32L4xx_HAL_Driver/Src/stm32l4xx_ll_usb.c ****   if (USB_FlushTxFifo(USBx, 0x10U) != HAL_OK) /* all Tx FIFOs */
 307:../Drivers/STM32L4xx_HAL_Driver/Src/stm32l4xx_ll_usb.c ****   {
 308:../Drivers/STM32L4xx_HAL_Driver/Src/stm32l4xx_ll_usb.c ****     ret = HAL_ERROR;
 309:../Drivers/STM32L4xx_HAL_Driver/Src/stm32l4xx_ll_usb.c ****   }
 310:../Drivers/STM32L4xx_HAL_Driver/Src/stm32l4xx_ll_usb.c **** 
 311:../Drivers/STM32L4xx_HAL_Driver/Src/stm32l4xx_ll_usb.c ****   if (USB_FlushRxFifo(USBx) != HAL_OK)
 312:../Drivers/STM32L4xx_HAL_Driver/Src/stm32l4xx_ll_usb.c ****   {
 313:../Drivers/STM32L4xx_HAL_Driver/Src/stm32l4xx_ll_usb.c ****     ret = HAL_ERROR;
 314:../Drivers/STM32L4xx_HAL_Driver/Src/stm32l4xx_ll_usb.c ****   }
 315:../Drivers/STM32L4xx_HAL_Driver/Src/stm32l4xx_ll_usb.c **** 
ARM GAS  /tmp/ccJzOZLR.s 			page 7


 316:../Drivers/STM32L4xx_HAL_Driver/Src/stm32l4xx_ll_usb.c ****   /* Clear all pending Device Interrupts */
 317:../Drivers/STM32L4xx_HAL_Driver/Src/stm32l4xx_ll_usb.c ****   USBx_DEVICE->DIEPMSK = 0U;
 318:../Drivers/STM32L4xx_HAL_Driver/Src/stm32l4xx_ll_usb.c ****   USBx_DEVICE->DOEPMSK = 0U;
 319:../Drivers/STM32L4xx_HAL_Driver/Src/stm32l4xx_ll_usb.c ****   USBx_DEVICE->DAINTMSK = 0U;
 320:../Drivers/STM32L4xx_HAL_Driver/Src/stm32l4xx_ll_usb.c **** 
 321:../Drivers/STM32L4xx_HAL_Driver/Src/stm32l4xx_ll_usb.c ****   for (i = 0U; i < cfg.dev_endpoints; i++)
 322:../Drivers/STM32L4xx_HAL_Driver/Src/stm32l4xx_ll_usb.c ****   {
 323:../Drivers/STM32L4xx_HAL_Driver/Src/stm32l4xx_ll_usb.c ****     if ((USBx_INEP(i)->DIEPCTL & USB_OTG_DIEPCTL_EPENA) == USB_OTG_DIEPCTL_EPENA)
 324:../Drivers/STM32L4xx_HAL_Driver/Src/stm32l4xx_ll_usb.c ****     {
 325:../Drivers/STM32L4xx_HAL_Driver/Src/stm32l4xx_ll_usb.c ****       if (i == 0U)
 326:../Drivers/STM32L4xx_HAL_Driver/Src/stm32l4xx_ll_usb.c ****       {
 327:../Drivers/STM32L4xx_HAL_Driver/Src/stm32l4xx_ll_usb.c ****         USBx_INEP(i)->DIEPCTL = USB_OTG_DIEPCTL_SNAK;
 328:../Drivers/STM32L4xx_HAL_Driver/Src/stm32l4xx_ll_usb.c ****       }
 329:../Drivers/STM32L4xx_HAL_Driver/Src/stm32l4xx_ll_usb.c ****       else
 330:../Drivers/STM32L4xx_HAL_Driver/Src/stm32l4xx_ll_usb.c ****       {
 331:../Drivers/STM32L4xx_HAL_Driver/Src/stm32l4xx_ll_usb.c ****         USBx_INEP(i)->DIEPCTL = USB_OTG_DIEPCTL_EPDIS | USB_OTG_DIEPCTL_SNAK;
 332:../Drivers/STM32L4xx_HAL_Driver/Src/stm32l4xx_ll_usb.c ****       }
 333:../Drivers/STM32L4xx_HAL_Driver/Src/stm32l4xx_ll_usb.c ****     }
 334:../Drivers/STM32L4xx_HAL_Driver/Src/stm32l4xx_ll_usb.c ****     else
 335:../Drivers/STM32L4xx_HAL_Driver/Src/stm32l4xx_ll_usb.c ****     {
 336:../Drivers/STM32L4xx_HAL_Driver/Src/stm32l4xx_ll_usb.c ****       USBx_INEP(i)->DIEPCTL = 0U;
 337:../Drivers/STM32L4xx_HAL_Driver/Src/stm32l4xx_ll_usb.c ****     }
 338:../Drivers/STM32L4xx_HAL_Driver/Src/stm32l4xx_ll_usb.c **** 
 339:../Drivers/STM32L4xx_HAL_Driver/Src/stm32l4xx_ll_usb.c ****     USBx_INEP(i)->DIEPTSIZ = 0U;
 340:../Drivers/STM32L4xx_HAL_Driver/Src/stm32l4xx_ll_usb.c ****     USBx_INEP(i)->DIEPINT  = 0xFB7FU;
 341:../Drivers/STM32L4xx_HAL_Driver/Src/stm32l4xx_ll_usb.c ****   }
 342:../Drivers/STM32L4xx_HAL_Driver/Src/stm32l4xx_ll_usb.c **** 
 343:../Drivers/STM32L4xx_HAL_Driver/Src/stm32l4xx_ll_usb.c ****   for (i = 0U; i < cfg.dev_endpoints; i++)
 344:../Drivers/STM32L4xx_HAL_Driver/Src/stm32l4xx_ll_usb.c ****   {
 345:../Drivers/STM32L4xx_HAL_Driver/Src/stm32l4xx_ll_usb.c ****     if ((USBx_OUTEP(i)->DOEPCTL & USB_OTG_DOEPCTL_EPENA) == USB_OTG_DOEPCTL_EPENA)
 346:../Drivers/STM32L4xx_HAL_Driver/Src/stm32l4xx_ll_usb.c ****     {
 347:../Drivers/STM32L4xx_HAL_Driver/Src/stm32l4xx_ll_usb.c ****       if (i == 0U)
 348:../Drivers/STM32L4xx_HAL_Driver/Src/stm32l4xx_ll_usb.c ****       {
 349:../Drivers/STM32L4xx_HAL_Driver/Src/stm32l4xx_ll_usb.c ****         USBx_OUTEP(i)->DOEPCTL = USB_OTG_DOEPCTL_SNAK;
 350:../Drivers/STM32L4xx_HAL_Driver/Src/stm32l4xx_ll_usb.c ****       }
 351:../Drivers/STM32L4xx_HAL_Driver/Src/stm32l4xx_ll_usb.c ****       else
 352:../Drivers/STM32L4xx_HAL_Driver/Src/stm32l4xx_ll_usb.c ****       {
 353:../Drivers/STM32L4xx_HAL_Driver/Src/stm32l4xx_ll_usb.c ****         USBx_OUTEP(i)->DOEPCTL = USB_OTG_DOEPCTL_EPDIS | USB_OTG_DOEPCTL_SNAK;
 354:../Drivers/STM32L4xx_HAL_Driver/Src/stm32l4xx_ll_usb.c ****       }
 355:../Drivers/STM32L4xx_HAL_Driver/Src/stm32l4xx_ll_usb.c ****     }
 356:../Drivers/STM32L4xx_HAL_Driver/Src/stm32l4xx_ll_usb.c ****     else
 357:../Drivers/STM32L4xx_HAL_Driver/Src/stm32l4xx_ll_usb.c ****     {
 358:../Drivers/STM32L4xx_HAL_Driver/Src/stm32l4xx_ll_usb.c ****       USBx_OUTEP(i)->DOEPCTL = 0U;
 359:../Drivers/STM32L4xx_HAL_Driver/Src/stm32l4xx_ll_usb.c ****     }
 360:../Drivers/STM32L4xx_HAL_Driver/Src/stm32l4xx_ll_usb.c **** 
 361:../Drivers/STM32L4xx_HAL_Driver/Src/stm32l4xx_ll_usb.c ****     USBx_OUTEP(i)->DOEPTSIZ = 0U;
 362:../Drivers/STM32L4xx_HAL_Driver/Src/stm32l4xx_ll_usb.c ****     USBx_OUTEP(i)->DOEPINT  = 0xFB7FU;
 363:../Drivers/STM32L4xx_HAL_Driver/Src/stm32l4xx_ll_usb.c ****   }
 364:../Drivers/STM32L4xx_HAL_Driver/Src/stm32l4xx_ll_usb.c **** 
 365:../Drivers/STM32L4xx_HAL_Driver/Src/stm32l4xx_ll_usb.c ****   USBx_DEVICE->DIEPMSK &= ~(USB_OTG_DIEPMSK_TXFURM);
 366:../Drivers/STM32L4xx_HAL_Driver/Src/stm32l4xx_ll_usb.c **** 
 367:../Drivers/STM32L4xx_HAL_Driver/Src/stm32l4xx_ll_usb.c ****   /* Disable all interrupts. */
 368:../Drivers/STM32L4xx_HAL_Driver/Src/stm32l4xx_ll_usb.c ****   USBx->GINTMSK = 0U;
 369:../Drivers/STM32L4xx_HAL_Driver/Src/stm32l4xx_ll_usb.c **** 
 370:../Drivers/STM32L4xx_HAL_Driver/Src/stm32l4xx_ll_usb.c ****   /* Clear any pending interrupts */
 371:../Drivers/STM32L4xx_HAL_Driver/Src/stm32l4xx_ll_usb.c ****   USBx->GINTSTS = 0xBFFFFFFFU;
 372:../Drivers/STM32L4xx_HAL_Driver/Src/stm32l4xx_ll_usb.c **** 
ARM GAS  /tmp/ccJzOZLR.s 			page 8


 373:../Drivers/STM32L4xx_HAL_Driver/Src/stm32l4xx_ll_usb.c ****   /* Enable the common interrupts */
 374:../Drivers/STM32L4xx_HAL_Driver/Src/stm32l4xx_ll_usb.c ****   USBx->GINTMSK |= USB_OTG_GINTMSK_RXFLVLM;
 375:../Drivers/STM32L4xx_HAL_Driver/Src/stm32l4xx_ll_usb.c **** 
 376:../Drivers/STM32L4xx_HAL_Driver/Src/stm32l4xx_ll_usb.c ****   /* Enable interrupts matching to the Device mode ONLY */
 377:../Drivers/STM32L4xx_HAL_Driver/Src/stm32l4xx_ll_usb.c ****   USBx->GINTMSK |= USB_OTG_GINTMSK_USBSUSPM | USB_OTG_GINTMSK_USBRST |
 378:../Drivers/STM32L4xx_HAL_Driver/Src/stm32l4xx_ll_usb.c ****                    USB_OTG_GINTMSK_ENUMDNEM | USB_OTG_GINTMSK_IEPINT |
 379:../Drivers/STM32L4xx_HAL_Driver/Src/stm32l4xx_ll_usb.c ****                    USB_OTG_GINTMSK_OEPINT   | USB_OTG_GINTMSK_IISOIXFRM |
 380:../Drivers/STM32L4xx_HAL_Driver/Src/stm32l4xx_ll_usb.c ****                    USB_OTG_GINTMSK_PXFRM_IISOOXFRM | USB_OTG_GINTMSK_WUIM;
 381:../Drivers/STM32L4xx_HAL_Driver/Src/stm32l4xx_ll_usb.c **** 
 382:../Drivers/STM32L4xx_HAL_Driver/Src/stm32l4xx_ll_usb.c ****   if (cfg.Sof_enable != 0U)
 383:../Drivers/STM32L4xx_HAL_Driver/Src/stm32l4xx_ll_usb.c ****   {
 384:../Drivers/STM32L4xx_HAL_Driver/Src/stm32l4xx_ll_usb.c ****     USBx->GINTMSK |= USB_OTG_GINTMSK_SOFM;
 385:../Drivers/STM32L4xx_HAL_Driver/Src/stm32l4xx_ll_usb.c ****   }
 386:../Drivers/STM32L4xx_HAL_Driver/Src/stm32l4xx_ll_usb.c **** 
 387:../Drivers/STM32L4xx_HAL_Driver/Src/stm32l4xx_ll_usb.c ****   if (cfg.vbus_sensing_enable == 1U)
 388:../Drivers/STM32L4xx_HAL_Driver/Src/stm32l4xx_ll_usb.c ****   {
 389:../Drivers/STM32L4xx_HAL_Driver/Src/stm32l4xx_ll_usb.c ****     USBx->GINTMSK |= (USB_OTG_GINTMSK_SRQIM | USB_OTG_GINTMSK_OTGINT);
 390:../Drivers/STM32L4xx_HAL_Driver/Src/stm32l4xx_ll_usb.c ****   }
 391:../Drivers/STM32L4xx_HAL_Driver/Src/stm32l4xx_ll_usb.c **** 
 392:../Drivers/STM32L4xx_HAL_Driver/Src/stm32l4xx_ll_usb.c ****   return ret;
 393:../Drivers/STM32L4xx_HAL_Driver/Src/stm32l4xx_ll_usb.c **** }
 394:../Drivers/STM32L4xx_HAL_Driver/Src/stm32l4xx_ll_usb.c **** 
 395:../Drivers/STM32L4xx_HAL_Driver/Src/stm32l4xx_ll_usb.c **** /**
 396:../Drivers/STM32L4xx_HAL_Driver/Src/stm32l4xx_ll_usb.c ****   * @brief  USB_FlushTxFifo Flush a Tx FIFO
 397:../Drivers/STM32L4xx_HAL_Driver/Src/stm32l4xx_ll_usb.c ****   * @param  USBx  Selected device
 398:../Drivers/STM32L4xx_HAL_Driver/Src/stm32l4xx_ll_usb.c ****   * @param  num  FIFO number
 399:../Drivers/STM32L4xx_HAL_Driver/Src/stm32l4xx_ll_usb.c ****   *         This parameter can be a value from 1 to 15
 400:../Drivers/STM32L4xx_HAL_Driver/Src/stm32l4xx_ll_usb.c ****             15 means Flush all Tx FIFOs
 401:../Drivers/STM32L4xx_HAL_Driver/Src/stm32l4xx_ll_usb.c ****   * @retval HAL status
 402:../Drivers/STM32L4xx_HAL_Driver/Src/stm32l4xx_ll_usb.c ****   */
 403:../Drivers/STM32L4xx_HAL_Driver/Src/stm32l4xx_ll_usb.c **** HAL_StatusTypeDef USB_FlushTxFifo(USB_OTG_GlobalTypeDef *USBx, uint32_t num)
 404:../Drivers/STM32L4xx_HAL_Driver/Src/stm32l4xx_ll_usb.c **** {
 405:../Drivers/STM32L4xx_HAL_Driver/Src/stm32l4xx_ll_usb.c ****   __IO uint32_t count = 0U;
 406:../Drivers/STM32L4xx_HAL_Driver/Src/stm32l4xx_ll_usb.c **** 
 407:../Drivers/STM32L4xx_HAL_Driver/Src/stm32l4xx_ll_usb.c ****   /* Wait for AHB master IDLE state. */
 408:../Drivers/STM32L4xx_HAL_Driver/Src/stm32l4xx_ll_usb.c ****   do
 409:../Drivers/STM32L4xx_HAL_Driver/Src/stm32l4xx_ll_usb.c ****   {
 410:../Drivers/STM32L4xx_HAL_Driver/Src/stm32l4xx_ll_usb.c ****     count++;
 411:../Drivers/STM32L4xx_HAL_Driver/Src/stm32l4xx_ll_usb.c **** 
 412:../Drivers/STM32L4xx_HAL_Driver/Src/stm32l4xx_ll_usb.c ****     if (count > 200000U)
 413:../Drivers/STM32L4xx_HAL_Driver/Src/stm32l4xx_ll_usb.c ****     {
 414:../Drivers/STM32L4xx_HAL_Driver/Src/stm32l4xx_ll_usb.c ****       return HAL_TIMEOUT;
 415:../Drivers/STM32L4xx_HAL_Driver/Src/stm32l4xx_ll_usb.c ****     }
 416:../Drivers/STM32L4xx_HAL_Driver/Src/stm32l4xx_ll_usb.c ****   } while ((USBx->GRSTCTL & USB_OTG_GRSTCTL_AHBIDL) == 0U);
 417:../Drivers/STM32L4xx_HAL_Driver/Src/stm32l4xx_ll_usb.c **** 
 418:../Drivers/STM32L4xx_HAL_Driver/Src/stm32l4xx_ll_usb.c ****   /* Flush TX Fifo */
 419:../Drivers/STM32L4xx_HAL_Driver/Src/stm32l4xx_ll_usb.c ****   count = 0U;
 420:../Drivers/STM32L4xx_HAL_Driver/Src/stm32l4xx_ll_usb.c ****   USBx->GRSTCTL = (USB_OTG_GRSTCTL_TXFFLSH | (num << 6));
 421:../Drivers/STM32L4xx_HAL_Driver/Src/stm32l4xx_ll_usb.c **** 
 422:../Drivers/STM32L4xx_HAL_Driver/Src/stm32l4xx_ll_usb.c ****   do
 423:../Drivers/STM32L4xx_HAL_Driver/Src/stm32l4xx_ll_usb.c ****   {
 424:../Drivers/STM32L4xx_HAL_Driver/Src/stm32l4xx_ll_usb.c ****     count++;
 425:../Drivers/STM32L4xx_HAL_Driver/Src/stm32l4xx_ll_usb.c **** 
 426:../Drivers/STM32L4xx_HAL_Driver/Src/stm32l4xx_ll_usb.c ****     if (count > 200000U)
 427:../Drivers/STM32L4xx_HAL_Driver/Src/stm32l4xx_ll_usb.c ****     {
 428:../Drivers/STM32L4xx_HAL_Driver/Src/stm32l4xx_ll_usb.c ****       return HAL_TIMEOUT;
 429:../Drivers/STM32L4xx_HAL_Driver/Src/stm32l4xx_ll_usb.c ****     }
ARM GAS  /tmp/ccJzOZLR.s 			page 9


 430:../Drivers/STM32L4xx_HAL_Driver/Src/stm32l4xx_ll_usb.c ****   } while ((USBx->GRSTCTL & USB_OTG_GRSTCTL_TXFFLSH) == USB_OTG_GRSTCTL_TXFFLSH);
 431:../Drivers/STM32L4xx_HAL_Driver/Src/stm32l4xx_ll_usb.c **** 
 432:../Drivers/STM32L4xx_HAL_Driver/Src/stm32l4xx_ll_usb.c ****   return HAL_OK;
 433:../Drivers/STM32L4xx_HAL_Driver/Src/stm32l4xx_ll_usb.c **** }
 434:../Drivers/STM32L4xx_HAL_Driver/Src/stm32l4xx_ll_usb.c **** 
 435:../Drivers/STM32L4xx_HAL_Driver/Src/stm32l4xx_ll_usb.c **** /**
 436:../Drivers/STM32L4xx_HAL_Driver/Src/stm32l4xx_ll_usb.c ****   * @brief  USB_FlushRxFifo  Flush Rx FIFO
 437:../Drivers/STM32L4xx_HAL_Driver/Src/stm32l4xx_ll_usb.c ****   * @param  USBx  Selected device
 438:../Drivers/STM32L4xx_HAL_Driver/Src/stm32l4xx_ll_usb.c ****   * @retval HAL status
 439:../Drivers/STM32L4xx_HAL_Driver/Src/stm32l4xx_ll_usb.c ****   */
 440:../Drivers/STM32L4xx_HAL_Driver/Src/stm32l4xx_ll_usb.c **** HAL_StatusTypeDef USB_FlushRxFifo(USB_OTG_GlobalTypeDef *USBx)
 441:../Drivers/STM32L4xx_HAL_Driver/Src/stm32l4xx_ll_usb.c **** {
 442:../Drivers/STM32L4xx_HAL_Driver/Src/stm32l4xx_ll_usb.c ****   __IO uint32_t count = 0U;
 443:../Drivers/STM32L4xx_HAL_Driver/Src/stm32l4xx_ll_usb.c **** 
 444:../Drivers/STM32L4xx_HAL_Driver/Src/stm32l4xx_ll_usb.c ****   /* Wait for AHB master IDLE state. */
 445:../Drivers/STM32L4xx_HAL_Driver/Src/stm32l4xx_ll_usb.c ****   do
 446:../Drivers/STM32L4xx_HAL_Driver/Src/stm32l4xx_ll_usb.c ****   {
 447:../Drivers/STM32L4xx_HAL_Driver/Src/stm32l4xx_ll_usb.c ****     count++;
 448:../Drivers/STM32L4xx_HAL_Driver/Src/stm32l4xx_ll_usb.c **** 
 449:../Drivers/STM32L4xx_HAL_Driver/Src/stm32l4xx_ll_usb.c ****     if (count > 200000U)
 450:../Drivers/STM32L4xx_HAL_Driver/Src/stm32l4xx_ll_usb.c ****     {
 451:../Drivers/STM32L4xx_HAL_Driver/Src/stm32l4xx_ll_usb.c ****       return HAL_TIMEOUT;
 452:../Drivers/STM32L4xx_HAL_Driver/Src/stm32l4xx_ll_usb.c ****     }
 453:../Drivers/STM32L4xx_HAL_Driver/Src/stm32l4xx_ll_usb.c ****   } while ((USBx->GRSTCTL & USB_OTG_GRSTCTL_AHBIDL) == 0U);
 454:../Drivers/STM32L4xx_HAL_Driver/Src/stm32l4xx_ll_usb.c **** 
 455:../Drivers/STM32L4xx_HAL_Driver/Src/stm32l4xx_ll_usb.c ****   /* Flush RX Fifo */
 456:../Drivers/STM32L4xx_HAL_Driver/Src/stm32l4xx_ll_usb.c ****   count = 0U;
 457:../Drivers/STM32L4xx_HAL_Driver/Src/stm32l4xx_ll_usb.c ****   USBx->GRSTCTL = USB_OTG_GRSTCTL_RXFFLSH;
 458:../Drivers/STM32L4xx_HAL_Driver/Src/stm32l4xx_ll_usb.c **** 
 459:../Drivers/STM32L4xx_HAL_Driver/Src/stm32l4xx_ll_usb.c ****   do
 460:../Drivers/STM32L4xx_HAL_Driver/Src/stm32l4xx_ll_usb.c ****   {
 461:../Drivers/STM32L4xx_HAL_Driver/Src/stm32l4xx_ll_usb.c ****     count++;
 462:../Drivers/STM32L4xx_HAL_Driver/Src/stm32l4xx_ll_usb.c **** 
 463:../Drivers/STM32L4xx_HAL_Driver/Src/stm32l4xx_ll_usb.c ****     if (count > 200000U)
 464:../Drivers/STM32L4xx_HAL_Driver/Src/stm32l4xx_ll_usb.c ****     {
 465:../Drivers/STM32L4xx_HAL_Driver/Src/stm32l4xx_ll_usb.c ****       return HAL_TIMEOUT;
 466:../Drivers/STM32L4xx_HAL_Driver/Src/stm32l4xx_ll_usb.c ****     }
 467:../Drivers/STM32L4xx_HAL_Driver/Src/stm32l4xx_ll_usb.c ****   } while ((USBx->GRSTCTL & USB_OTG_GRSTCTL_RXFFLSH) == USB_OTG_GRSTCTL_RXFFLSH);
 468:../Drivers/STM32L4xx_HAL_Driver/Src/stm32l4xx_ll_usb.c **** 
 469:../Drivers/STM32L4xx_HAL_Driver/Src/stm32l4xx_ll_usb.c ****   return HAL_OK;
 470:../Drivers/STM32L4xx_HAL_Driver/Src/stm32l4xx_ll_usb.c **** }
 471:../Drivers/STM32L4xx_HAL_Driver/Src/stm32l4xx_ll_usb.c **** 
 472:../Drivers/STM32L4xx_HAL_Driver/Src/stm32l4xx_ll_usb.c **** /**
 473:../Drivers/STM32L4xx_HAL_Driver/Src/stm32l4xx_ll_usb.c ****   * @brief  USB_SetDevSpeed  Initializes the DevSpd field of DCFG register
 474:../Drivers/STM32L4xx_HAL_Driver/Src/stm32l4xx_ll_usb.c ****   *         depending the PHY type and the enumeration speed of the device.
 475:../Drivers/STM32L4xx_HAL_Driver/Src/stm32l4xx_ll_usb.c ****   * @param  USBx  Selected device
 476:../Drivers/STM32L4xx_HAL_Driver/Src/stm32l4xx_ll_usb.c ****   * @param  speed  device speed
 477:../Drivers/STM32L4xx_HAL_Driver/Src/stm32l4xx_ll_usb.c ****   *          This parameter can be one of these values:
 478:../Drivers/STM32L4xx_HAL_Driver/Src/stm32l4xx_ll_usb.c ****   *            @arg USB_OTG_SPEED_FULL: Full speed mode
 479:../Drivers/STM32L4xx_HAL_Driver/Src/stm32l4xx_ll_usb.c ****   * @retval  Hal status
 480:../Drivers/STM32L4xx_HAL_Driver/Src/stm32l4xx_ll_usb.c ****   */
 481:../Drivers/STM32L4xx_HAL_Driver/Src/stm32l4xx_ll_usb.c **** HAL_StatusTypeDef USB_SetDevSpeed(USB_OTG_GlobalTypeDef *USBx, uint8_t speed)
 482:../Drivers/STM32L4xx_HAL_Driver/Src/stm32l4xx_ll_usb.c **** {
 483:../Drivers/STM32L4xx_HAL_Driver/Src/stm32l4xx_ll_usb.c ****   uint32_t USBx_BASE = (uint32_t)USBx;
 484:../Drivers/STM32L4xx_HAL_Driver/Src/stm32l4xx_ll_usb.c **** 
 485:../Drivers/STM32L4xx_HAL_Driver/Src/stm32l4xx_ll_usb.c ****   USBx_DEVICE->DCFG |= speed;
 486:../Drivers/STM32L4xx_HAL_Driver/Src/stm32l4xx_ll_usb.c ****   return HAL_OK;
ARM GAS  /tmp/ccJzOZLR.s 			page 10


 487:../Drivers/STM32L4xx_HAL_Driver/Src/stm32l4xx_ll_usb.c **** }
 488:../Drivers/STM32L4xx_HAL_Driver/Src/stm32l4xx_ll_usb.c **** 
 489:../Drivers/STM32L4xx_HAL_Driver/Src/stm32l4xx_ll_usb.c **** /**
 490:../Drivers/STM32L4xx_HAL_Driver/Src/stm32l4xx_ll_usb.c ****   * @brief  USB_GetDevSpeed  Return the Dev Speed
 491:../Drivers/STM32L4xx_HAL_Driver/Src/stm32l4xx_ll_usb.c ****   * @param  USBx  Selected device
 492:../Drivers/STM32L4xx_HAL_Driver/Src/stm32l4xx_ll_usb.c ****   * @retval speed  device speed
 493:../Drivers/STM32L4xx_HAL_Driver/Src/stm32l4xx_ll_usb.c ****   *          This parameter can be one of these values:
 494:../Drivers/STM32L4xx_HAL_Driver/Src/stm32l4xx_ll_usb.c ****   *            @arg USBD_FS_SPEED: Full speed mode
 495:../Drivers/STM32L4xx_HAL_Driver/Src/stm32l4xx_ll_usb.c ****   */
 496:../Drivers/STM32L4xx_HAL_Driver/Src/stm32l4xx_ll_usb.c **** uint8_t USB_GetDevSpeed(USB_OTG_GlobalTypeDef *USBx)
 497:../Drivers/STM32L4xx_HAL_Driver/Src/stm32l4xx_ll_usb.c **** {
 498:../Drivers/STM32L4xx_HAL_Driver/Src/stm32l4xx_ll_usb.c ****   uint32_t USBx_BASE = (uint32_t)USBx;
 499:../Drivers/STM32L4xx_HAL_Driver/Src/stm32l4xx_ll_usb.c ****   uint8_t speed;
 500:../Drivers/STM32L4xx_HAL_Driver/Src/stm32l4xx_ll_usb.c ****   uint32_t DevEnumSpeed = USBx_DEVICE->DSTS & USB_OTG_DSTS_ENUMSPD;
 501:../Drivers/STM32L4xx_HAL_Driver/Src/stm32l4xx_ll_usb.c **** 
 502:../Drivers/STM32L4xx_HAL_Driver/Src/stm32l4xx_ll_usb.c ****   if ((DevEnumSpeed == DSTS_ENUMSPD_FS_PHY_30MHZ_OR_60MHZ) ||
 503:../Drivers/STM32L4xx_HAL_Driver/Src/stm32l4xx_ll_usb.c ****       (DevEnumSpeed == DSTS_ENUMSPD_FS_PHY_48MHZ))
 504:../Drivers/STM32L4xx_HAL_Driver/Src/stm32l4xx_ll_usb.c ****   {
 505:../Drivers/STM32L4xx_HAL_Driver/Src/stm32l4xx_ll_usb.c ****     speed = USBD_FS_SPEED;
 506:../Drivers/STM32L4xx_HAL_Driver/Src/stm32l4xx_ll_usb.c ****   }
 507:../Drivers/STM32L4xx_HAL_Driver/Src/stm32l4xx_ll_usb.c ****   else
 508:../Drivers/STM32L4xx_HAL_Driver/Src/stm32l4xx_ll_usb.c ****   {
 509:../Drivers/STM32L4xx_HAL_Driver/Src/stm32l4xx_ll_usb.c ****     speed = 0xFU;
 510:../Drivers/STM32L4xx_HAL_Driver/Src/stm32l4xx_ll_usb.c ****   }
 511:../Drivers/STM32L4xx_HAL_Driver/Src/stm32l4xx_ll_usb.c **** 
 512:../Drivers/STM32L4xx_HAL_Driver/Src/stm32l4xx_ll_usb.c ****   return speed;
 513:../Drivers/STM32L4xx_HAL_Driver/Src/stm32l4xx_ll_usb.c **** }
 514:../Drivers/STM32L4xx_HAL_Driver/Src/stm32l4xx_ll_usb.c **** 
 515:../Drivers/STM32L4xx_HAL_Driver/Src/stm32l4xx_ll_usb.c **** /**
 516:../Drivers/STM32L4xx_HAL_Driver/Src/stm32l4xx_ll_usb.c ****   * @brief  Activate and configure an endpoint
 517:../Drivers/STM32L4xx_HAL_Driver/Src/stm32l4xx_ll_usb.c ****   * @param  USBx  Selected device
 518:../Drivers/STM32L4xx_HAL_Driver/Src/stm32l4xx_ll_usb.c ****   * @param  ep pointer to endpoint structure
 519:../Drivers/STM32L4xx_HAL_Driver/Src/stm32l4xx_ll_usb.c ****   * @retval HAL status
 520:../Drivers/STM32L4xx_HAL_Driver/Src/stm32l4xx_ll_usb.c ****   */
 521:../Drivers/STM32L4xx_HAL_Driver/Src/stm32l4xx_ll_usb.c **** HAL_StatusTypeDef USB_ActivateEndpoint(USB_OTG_GlobalTypeDef *USBx, USB_OTG_EPTypeDef *ep)
 522:../Drivers/STM32L4xx_HAL_Driver/Src/stm32l4xx_ll_usb.c **** {
 523:../Drivers/STM32L4xx_HAL_Driver/Src/stm32l4xx_ll_usb.c ****   uint32_t USBx_BASE = (uint32_t)USBx;
 524:../Drivers/STM32L4xx_HAL_Driver/Src/stm32l4xx_ll_usb.c ****   uint32_t epnum = (uint32_t)ep->num;
 525:../Drivers/STM32L4xx_HAL_Driver/Src/stm32l4xx_ll_usb.c **** 
 526:../Drivers/STM32L4xx_HAL_Driver/Src/stm32l4xx_ll_usb.c ****   if (ep->is_in == 1U)
 527:../Drivers/STM32L4xx_HAL_Driver/Src/stm32l4xx_ll_usb.c ****   {
 528:../Drivers/STM32L4xx_HAL_Driver/Src/stm32l4xx_ll_usb.c ****     USBx_DEVICE->DAINTMSK |= USB_OTG_DAINTMSK_IEPM & (uint32_t)(1UL << (ep->num & EP_ADDR_MSK));
 529:../Drivers/STM32L4xx_HAL_Driver/Src/stm32l4xx_ll_usb.c **** 
 530:../Drivers/STM32L4xx_HAL_Driver/Src/stm32l4xx_ll_usb.c ****     if ((USBx_INEP(epnum)->DIEPCTL & USB_OTG_DIEPCTL_USBAEP) == 0U)
 531:../Drivers/STM32L4xx_HAL_Driver/Src/stm32l4xx_ll_usb.c ****     {
 532:../Drivers/STM32L4xx_HAL_Driver/Src/stm32l4xx_ll_usb.c ****       USBx_INEP(epnum)->DIEPCTL |= (ep->maxpacket & USB_OTG_DIEPCTL_MPSIZ) |
 533:../Drivers/STM32L4xx_HAL_Driver/Src/stm32l4xx_ll_usb.c ****                                    ((uint32_t)ep->type << 18) | (epnum << 22) |
 534:../Drivers/STM32L4xx_HAL_Driver/Src/stm32l4xx_ll_usb.c ****                                    USB_OTG_DIEPCTL_SD0PID_SEVNFRM |
 535:../Drivers/STM32L4xx_HAL_Driver/Src/stm32l4xx_ll_usb.c ****                                    USB_OTG_DIEPCTL_USBAEP;
 536:../Drivers/STM32L4xx_HAL_Driver/Src/stm32l4xx_ll_usb.c ****     }
 537:../Drivers/STM32L4xx_HAL_Driver/Src/stm32l4xx_ll_usb.c ****   }
 538:../Drivers/STM32L4xx_HAL_Driver/Src/stm32l4xx_ll_usb.c ****   else
 539:../Drivers/STM32L4xx_HAL_Driver/Src/stm32l4xx_ll_usb.c ****   {
 540:../Drivers/STM32L4xx_HAL_Driver/Src/stm32l4xx_ll_usb.c ****     USBx_DEVICE->DAINTMSK |= USB_OTG_DAINTMSK_OEPM & ((uint32_t)(1UL << (ep->num & EP_ADDR_MSK)) <<
 541:../Drivers/STM32L4xx_HAL_Driver/Src/stm32l4xx_ll_usb.c **** 
 542:../Drivers/STM32L4xx_HAL_Driver/Src/stm32l4xx_ll_usb.c ****     if (((USBx_OUTEP(epnum)->DOEPCTL) & USB_OTG_DOEPCTL_USBAEP) == 0U)
 543:../Drivers/STM32L4xx_HAL_Driver/Src/stm32l4xx_ll_usb.c ****     {
ARM GAS  /tmp/ccJzOZLR.s 			page 11


 544:../Drivers/STM32L4xx_HAL_Driver/Src/stm32l4xx_ll_usb.c ****       USBx_OUTEP(epnum)->DOEPCTL |= (ep->maxpacket & USB_OTG_DOEPCTL_MPSIZ) |
 545:../Drivers/STM32L4xx_HAL_Driver/Src/stm32l4xx_ll_usb.c ****                                     ((uint32_t)ep->type << 18) |
 546:../Drivers/STM32L4xx_HAL_Driver/Src/stm32l4xx_ll_usb.c ****                                     USB_OTG_DIEPCTL_SD0PID_SEVNFRM |
 547:../Drivers/STM32L4xx_HAL_Driver/Src/stm32l4xx_ll_usb.c ****                                     USB_OTG_DOEPCTL_USBAEP;
 548:../Drivers/STM32L4xx_HAL_Driver/Src/stm32l4xx_ll_usb.c ****     }
 549:../Drivers/STM32L4xx_HAL_Driver/Src/stm32l4xx_ll_usb.c ****   }
 550:../Drivers/STM32L4xx_HAL_Driver/Src/stm32l4xx_ll_usb.c ****   return HAL_OK;
 551:../Drivers/STM32L4xx_HAL_Driver/Src/stm32l4xx_ll_usb.c **** }
 552:../Drivers/STM32L4xx_HAL_Driver/Src/stm32l4xx_ll_usb.c **** 
 553:../Drivers/STM32L4xx_HAL_Driver/Src/stm32l4xx_ll_usb.c **** /**
 554:../Drivers/STM32L4xx_HAL_Driver/Src/stm32l4xx_ll_usb.c ****   * @brief  Activate and configure a dedicated endpoint
 555:../Drivers/STM32L4xx_HAL_Driver/Src/stm32l4xx_ll_usb.c ****   * @param  USBx  Selected device
 556:../Drivers/STM32L4xx_HAL_Driver/Src/stm32l4xx_ll_usb.c ****   * @param  ep pointer to endpoint structure
 557:../Drivers/STM32L4xx_HAL_Driver/Src/stm32l4xx_ll_usb.c ****   * @retval HAL status
 558:../Drivers/STM32L4xx_HAL_Driver/Src/stm32l4xx_ll_usb.c ****   */
 559:../Drivers/STM32L4xx_HAL_Driver/Src/stm32l4xx_ll_usb.c **** HAL_StatusTypeDef USB_ActivateDedicatedEndpoint(USB_OTG_GlobalTypeDef *USBx, USB_OTG_EPTypeDef *ep)
 560:../Drivers/STM32L4xx_HAL_Driver/Src/stm32l4xx_ll_usb.c **** {
 561:../Drivers/STM32L4xx_HAL_Driver/Src/stm32l4xx_ll_usb.c ****   uint32_t USBx_BASE = (uint32_t)USBx;
 562:../Drivers/STM32L4xx_HAL_Driver/Src/stm32l4xx_ll_usb.c ****   uint32_t epnum = (uint32_t)ep->num;
 563:../Drivers/STM32L4xx_HAL_Driver/Src/stm32l4xx_ll_usb.c **** 
 564:../Drivers/STM32L4xx_HAL_Driver/Src/stm32l4xx_ll_usb.c ****   /* Read DEPCTLn register */
 565:../Drivers/STM32L4xx_HAL_Driver/Src/stm32l4xx_ll_usb.c ****   if (ep->is_in == 1U)
 566:../Drivers/STM32L4xx_HAL_Driver/Src/stm32l4xx_ll_usb.c ****   {
 567:../Drivers/STM32L4xx_HAL_Driver/Src/stm32l4xx_ll_usb.c ****     if (((USBx_INEP(epnum)->DIEPCTL) & USB_OTG_DIEPCTL_USBAEP) == 0U)
 568:../Drivers/STM32L4xx_HAL_Driver/Src/stm32l4xx_ll_usb.c ****     {
 569:../Drivers/STM32L4xx_HAL_Driver/Src/stm32l4xx_ll_usb.c ****       USBx_INEP(epnum)->DIEPCTL |= (ep->maxpacket & USB_OTG_DIEPCTL_MPSIZ) |
 570:../Drivers/STM32L4xx_HAL_Driver/Src/stm32l4xx_ll_usb.c ****                                    ((uint32_t)ep->type << 18) | (epnum << 22) |
 571:../Drivers/STM32L4xx_HAL_Driver/Src/stm32l4xx_ll_usb.c ****                                    USB_OTG_DIEPCTL_SD0PID_SEVNFRM |
 572:../Drivers/STM32L4xx_HAL_Driver/Src/stm32l4xx_ll_usb.c ****                                    USB_OTG_DIEPCTL_USBAEP;
 573:../Drivers/STM32L4xx_HAL_Driver/Src/stm32l4xx_ll_usb.c ****     }
 574:../Drivers/STM32L4xx_HAL_Driver/Src/stm32l4xx_ll_usb.c **** 
 575:../Drivers/STM32L4xx_HAL_Driver/Src/stm32l4xx_ll_usb.c ****     USBx_DEVICE->DEACHMSK |= USB_OTG_DAINTMSK_IEPM & (uint32_t)(1UL << (ep->num & EP_ADDR_MSK));
 576:../Drivers/STM32L4xx_HAL_Driver/Src/stm32l4xx_ll_usb.c ****   }
 577:../Drivers/STM32L4xx_HAL_Driver/Src/stm32l4xx_ll_usb.c ****   else
 578:../Drivers/STM32L4xx_HAL_Driver/Src/stm32l4xx_ll_usb.c ****   {
 579:../Drivers/STM32L4xx_HAL_Driver/Src/stm32l4xx_ll_usb.c ****     if (((USBx_OUTEP(epnum)->DOEPCTL) & USB_OTG_DOEPCTL_USBAEP) == 0U)
 580:../Drivers/STM32L4xx_HAL_Driver/Src/stm32l4xx_ll_usb.c ****     {
 581:../Drivers/STM32L4xx_HAL_Driver/Src/stm32l4xx_ll_usb.c ****       USBx_OUTEP(epnum)->DOEPCTL |= (ep->maxpacket & USB_OTG_DOEPCTL_MPSIZ) |
 582:../Drivers/STM32L4xx_HAL_Driver/Src/stm32l4xx_ll_usb.c ****                                     ((uint32_t)ep->type << 18) | (epnum << 22) |
 583:../Drivers/STM32L4xx_HAL_Driver/Src/stm32l4xx_ll_usb.c ****                                     USB_OTG_DOEPCTL_USBAEP;
 584:../Drivers/STM32L4xx_HAL_Driver/Src/stm32l4xx_ll_usb.c ****     }
 585:../Drivers/STM32L4xx_HAL_Driver/Src/stm32l4xx_ll_usb.c **** 
 586:../Drivers/STM32L4xx_HAL_Driver/Src/stm32l4xx_ll_usb.c ****     USBx_DEVICE->DEACHMSK |= USB_OTG_DAINTMSK_OEPM & ((uint32_t)(1UL << (ep->num & EP_ADDR_MSK)) <<
 587:../Drivers/STM32L4xx_HAL_Driver/Src/stm32l4xx_ll_usb.c ****   }
 588:../Drivers/STM32L4xx_HAL_Driver/Src/stm32l4xx_ll_usb.c **** 
 589:../Drivers/STM32L4xx_HAL_Driver/Src/stm32l4xx_ll_usb.c ****   return HAL_OK;
 590:../Drivers/STM32L4xx_HAL_Driver/Src/stm32l4xx_ll_usb.c **** }
 591:../Drivers/STM32L4xx_HAL_Driver/Src/stm32l4xx_ll_usb.c **** 
 592:../Drivers/STM32L4xx_HAL_Driver/Src/stm32l4xx_ll_usb.c **** /**
 593:../Drivers/STM32L4xx_HAL_Driver/Src/stm32l4xx_ll_usb.c ****   * @brief  De-activate and de-initialize an endpoint
 594:../Drivers/STM32L4xx_HAL_Driver/Src/stm32l4xx_ll_usb.c ****   * @param  USBx  Selected device
 595:../Drivers/STM32L4xx_HAL_Driver/Src/stm32l4xx_ll_usb.c ****   * @param  ep pointer to endpoint structure
 596:../Drivers/STM32L4xx_HAL_Driver/Src/stm32l4xx_ll_usb.c ****   * @retval HAL status
 597:../Drivers/STM32L4xx_HAL_Driver/Src/stm32l4xx_ll_usb.c ****   */
 598:../Drivers/STM32L4xx_HAL_Driver/Src/stm32l4xx_ll_usb.c **** HAL_StatusTypeDef USB_DeactivateEndpoint(USB_OTG_GlobalTypeDef *USBx, USB_OTG_EPTypeDef *ep)
 599:../Drivers/STM32L4xx_HAL_Driver/Src/stm32l4xx_ll_usb.c **** {
 600:../Drivers/STM32L4xx_HAL_Driver/Src/stm32l4xx_ll_usb.c ****   uint32_t USBx_BASE = (uint32_t)USBx;
ARM GAS  /tmp/ccJzOZLR.s 			page 12


 601:../Drivers/STM32L4xx_HAL_Driver/Src/stm32l4xx_ll_usb.c ****   uint32_t epnum = (uint32_t)ep->num;
 602:../Drivers/STM32L4xx_HAL_Driver/Src/stm32l4xx_ll_usb.c **** 
 603:../Drivers/STM32L4xx_HAL_Driver/Src/stm32l4xx_ll_usb.c ****   /* Read DEPCTLn register */
 604:../Drivers/STM32L4xx_HAL_Driver/Src/stm32l4xx_ll_usb.c ****   if (ep->is_in == 1U)
 605:../Drivers/STM32L4xx_HAL_Driver/Src/stm32l4xx_ll_usb.c ****   {
 606:../Drivers/STM32L4xx_HAL_Driver/Src/stm32l4xx_ll_usb.c ****     if ((USBx_INEP(epnum)->DIEPCTL & USB_OTG_DIEPCTL_EPENA) == USB_OTG_DIEPCTL_EPENA)
 607:../Drivers/STM32L4xx_HAL_Driver/Src/stm32l4xx_ll_usb.c ****     {
 608:../Drivers/STM32L4xx_HAL_Driver/Src/stm32l4xx_ll_usb.c ****       USBx_INEP(epnum)->DIEPCTL |= USB_OTG_DIEPCTL_SNAK;
 609:../Drivers/STM32L4xx_HAL_Driver/Src/stm32l4xx_ll_usb.c ****       USBx_INEP(epnum)->DIEPCTL |= USB_OTG_DIEPCTL_EPDIS;
 610:../Drivers/STM32L4xx_HAL_Driver/Src/stm32l4xx_ll_usb.c ****     }
 611:../Drivers/STM32L4xx_HAL_Driver/Src/stm32l4xx_ll_usb.c **** 
 612:../Drivers/STM32L4xx_HAL_Driver/Src/stm32l4xx_ll_usb.c ****     USBx_DEVICE->DEACHMSK &= ~(USB_OTG_DAINTMSK_IEPM & (uint32_t)(1UL << (ep->num & EP_ADDR_MSK)));
 613:../Drivers/STM32L4xx_HAL_Driver/Src/stm32l4xx_ll_usb.c ****     USBx_DEVICE->DAINTMSK &= ~(USB_OTG_DAINTMSK_IEPM & (uint32_t)(1UL << (ep->num & EP_ADDR_MSK)));
 614:../Drivers/STM32L4xx_HAL_Driver/Src/stm32l4xx_ll_usb.c ****     USBx_INEP(epnum)->DIEPCTL &= ~(USB_OTG_DIEPCTL_USBAEP |
 615:../Drivers/STM32L4xx_HAL_Driver/Src/stm32l4xx_ll_usb.c ****                                    USB_OTG_DIEPCTL_MPSIZ |
 616:../Drivers/STM32L4xx_HAL_Driver/Src/stm32l4xx_ll_usb.c ****                                    USB_OTG_DIEPCTL_TXFNUM |
 617:../Drivers/STM32L4xx_HAL_Driver/Src/stm32l4xx_ll_usb.c ****                                    USB_OTG_DIEPCTL_SD0PID_SEVNFRM |
 618:../Drivers/STM32L4xx_HAL_Driver/Src/stm32l4xx_ll_usb.c ****                                    USB_OTG_DIEPCTL_EPTYP);
 619:../Drivers/STM32L4xx_HAL_Driver/Src/stm32l4xx_ll_usb.c ****   }
 620:../Drivers/STM32L4xx_HAL_Driver/Src/stm32l4xx_ll_usb.c ****   else
 621:../Drivers/STM32L4xx_HAL_Driver/Src/stm32l4xx_ll_usb.c ****   {
 622:../Drivers/STM32L4xx_HAL_Driver/Src/stm32l4xx_ll_usb.c ****     if ((USBx_OUTEP(epnum)->DOEPCTL & USB_OTG_DOEPCTL_EPENA) == USB_OTG_DOEPCTL_EPENA)
 623:../Drivers/STM32L4xx_HAL_Driver/Src/stm32l4xx_ll_usb.c ****     {
 624:../Drivers/STM32L4xx_HAL_Driver/Src/stm32l4xx_ll_usb.c ****       USBx_OUTEP(epnum)->DOEPCTL |= USB_OTG_DOEPCTL_SNAK;
 625:../Drivers/STM32L4xx_HAL_Driver/Src/stm32l4xx_ll_usb.c ****       USBx_OUTEP(epnum)->DOEPCTL |= USB_OTG_DOEPCTL_EPDIS;
 626:../Drivers/STM32L4xx_HAL_Driver/Src/stm32l4xx_ll_usb.c ****     }
 627:../Drivers/STM32L4xx_HAL_Driver/Src/stm32l4xx_ll_usb.c **** 
 628:../Drivers/STM32L4xx_HAL_Driver/Src/stm32l4xx_ll_usb.c ****     USBx_DEVICE->DEACHMSK &= ~(USB_OTG_DAINTMSK_OEPM & ((uint32_t)(1UL << (ep->num & EP_ADDR_MSK)) 
 629:../Drivers/STM32L4xx_HAL_Driver/Src/stm32l4xx_ll_usb.c ****     USBx_DEVICE->DAINTMSK &= ~(USB_OTG_DAINTMSK_OEPM & ((uint32_t)(1UL << (ep->num & EP_ADDR_MSK)) 
 630:../Drivers/STM32L4xx_HAL_Driver/Src/stm32l4xx_ll_usb.c ****     USBx_OUTEP(epnum)->DOEPCTL &= ~(USB_OTG_DOEPCTL_USBAEP |
 631:../Drivers/STM32L4xx_HAL_Driver/Src/stm32l4xx_ll_usb.c ****                                     USB_OTG_DOEPCTL_MPSIZ |
 632:../Drivers/STM32L4xx_HAL_Driver/Src/stm32l4xx_ll_usb.c ****                                     USB_OTG_DOEPCTL_SD0PID_SEVNFRM |
 633:../Drivers/STM32L4xx_HAL_Driver/Src/stm32l4xx_ll_usb.c ****                                     USB_OTG_DOEPCTL_EPTYP);
 634:../Drivers/STM32L4xx_HAL_Driver/Src/stm32l4xx_ll_usb.c ****   }
 635:../Drivers/STM32L4xx_HAL_Driver/Src/stm32l4xx_ll_usb.c **** 
 636:../Drivers/STM32L4xx_HAL_Driver/Src/stm32l4xx_ll_usb.c ****   return HAL_OK;
 637:../Drivers/STM32L4xx_HAL_Driver/Src/stm32l4xx_ll_usb.c **** }
 638:../Drivers/STM32L4xx_HAL_Driver/Src/stm32l4xx_ll_usb.c **** 
 639:../Drivers/STM32L4xx_HAL_Driver/Src/stm32l4xx_ll_usb.c **** /**
 640:../Drivers/STM32L4xx_HAL_Driver/Src/stm32l4xx_ll_usb.c ****   * @brief  De-activate and de-initialize a dedicated endpoint
 641:../Drivers/STM32L4xx_HAL_Driver/Src/stm32l4xx_ll_usb.c ****   * @param  USBx  Selected device
 642:../Drivers/STM32L4xx_HAL_Driver/Src/stm32l4xx_ll_usb.c ****   * @param  ep pointer to endpoint structure
 643:../Drivers/STM32L4xx_HAL_Driver/Src/stm32l4xx_ll_usb.c ****   * @retval HAL status
 644:../Drivers/STM32L4xx_HAL_Driver/Src/stm32l4xx_ll_usb.c ****   */
 645:../Drivers/STM32L4xx_HAL_Driver/Src/stm32l4xx_ll_usb.c **** HAL_StatusTypeDef USB_DeactivateDedicatedEndpoint(USB_OTG_GlobalTypeDef *USBx, USB_OTG_EPTypeDef *e
 646:../Drivers/STM32L4xx_HAL_Driver/Src/stm32l4xx_ll_usb.c **** {
 647:../Drivers/STM32L4xx_HAL_Driver/Src/stm32l4xx_ll_usb.c ****   uint32_t USBx_BASE = (uint32_t)USBx;
 648:../Drivers/STM32L4xx_HAL_Driver/Src/stm32l4xx_ll_usb.c ****   uint32_t epnum = (uint32_t)ep->num;
 649:../Drivers/STM32L4xx_HAL_Driver/Src/stm32l4xx_ll_usb.c **** 
 650:../Drivers/STM32L4xx_HAL_Driver/Src/stm32l4xx_ll_usb.c ****   /* Read DEPCTLn register */
 651:../Drivers/STM32L4xx_HAL_Driver/Src/stm32l4xx_ll_usb.c ****   if (ep->is_in == 1U)
 652:../Drivers/STM32L4xx_HAL_Driver/Src/stm32l4xx_ll_usb.c ****   {
 653:../Drivers/STM32L4xx_HAL_Driver/Src/stm32l4xx_ll_usb.c ****     if ((USBx_INEP(epnum)->DIEPCTL & USB_OTG_DIEPCTL_EPENA) == USB_OTG_DIEPCTL_EPENA)
 654:../Drivers/STM32L4xx_HAL_Driver/Src/stm32l4xx_ll_usb.c ****     {
 655:../Drivers/STM32L4xx_HAL_Driver/Src/stm32l4xx_ll_usb.c ****       USBx_INEP(epnum)->DIEPCTL  |= USB_OTG_DIEPCTL_SNAK;
 656:../Drivers/STM32L4xx_HAL_Driver/Src/stm32l4xx_ll_usb.c ****       USBx_INEP(epnum)->DIEPCTL  |= USB_OTG_DIEPCTL_EPDIS;
 657:../Drivers/STM32L4xx_HAL_Driver/Src/stm32l4xx_ll_usb.c ****     }
ARM GAS  /tmp/ccJzOZLR.s 			page 13


 658:../Drivers/STM32L4xx_HAL_Driver/Src/stm32l4xx_ll_usb.c **** 
 659:../Drivers/STM32L4xx_HAL_Driver/Src/stm32l4xx_ll_usb.c ****     USBx_INEP(epnum)->DIEPCTL &= ~ USB_OTG_DIEPCTL_USBAEP;
 660:../Drivers/STM32L4xx_HAL_Driver/Src/stm32l4xx_ll_usb.c ****     USBx_DEVICE->DAINTMSK &= ~(USB_OTG_DAINTMSK_IEPM & (uint32_t)(1UL << (ep->num & EP_ADDR_MSK)));
 661:../Drivers/STM32L4xx_HAL_Driver/Src/stm32l4xx_ll_usb.c ****   }
 662:../Drivers/STM32L4xx_HAL_Driver/Src/stm32l4xx_ll_usb.c ****   else
 663:../Drivers/STM32L4xx_HAL_Driver/Src/stm32l4xx_ll_usb.c ****   {
 664:../Drivers/STM32L4xx_HAL_Driver/Src/stm32l4xx_ll_usb.c ****     if ((USBx_OUTEP(epnum)->DOEPCTL & USB_OTG_DOEPCTL_EPENA) == USB_OTG_DOEPCTL_EPENA)
 665:../Drivers/STM32L4xx_HAL_Driver/Src/stm32l4xx_ll_usb.c ****     {
 666:../Drivers/STM32L4xx_HAL_Driver/Src/stm32l4xx_ll_usb.c ****       USBx_OUTEP(epnum)->DOEPCTL  |= USB_OTG_DOEPCTL_SNAK;
 667:../Drivers/STM32L4xx_HAL_Driver/Src/stm32l4xx_ll_usb.c ****       USBx_OUTEP(epnum)->DOEPCTL  |= USB_OTG_DOEPCTL_EPDIS;
 668:../Drivers/STM32L4xx_HAL_Driver/Src/stm32l4xx_ll_usb.c ****     }
 669:../Drivers/STM32L4xx_HAL_Driver/Src/stm32l4xx_ll_usb.c **** 
 670:../Drivers/STM32L4xx_HAL_Driver/Src/stm32l4xx_ll_usb.c ****     USBx_OUTEP(epnum)->DOEPCTL &= ~USB_OTG_DOEPCTL_USBAEP;
 671:../Drivers/STM32L4xx_HAL_Driver/Src/stm32l4xx_ll_usb.c ****     USBx_DEVICE->DAINTMSK &= ~(USB_OTG_DAINTMSK_OEPM & ((uint32_t)(1UL << (ep->num & EP_ADDR_MSK)) 
 672:../Drivers/STM32L4xx_HAL_Driver/Src/stm32l4xx_ll_usb.c ****   }
 673:../Drivers/STM32L4xx_HAL_Driver/Src/stm32l4xx_ll_usb.c **** 
 674:../Drivers/STM32L4xx_HAL_Driver/Src/stm32l4xx_ll_usb.c ****   return HAL_OK;
 675:../Drivers/STM32L4xx_HAL_Driver/Src/stm32l4xx_ll_usb.c **** }
 676:../Drivers/STM32L4xx_HAL_Driver/Src/stm32l4xx_ll_usb.c **** 
 677:../Drivers/STM32L4xx_HAL_Driver/Src/stm32l4xx_ll_usb.c **** /**
 678:../Drivers/STM32L4xx_HAL_Driver/Src/stm32l4xx_ll_usb.c ****   * @brief  USB_EPStartXfer : setup and starts a transfer over an EP
 679:../Drivers/STM32L4xx_HAL_Driver/Src/stm32l4xx_ll_usb.c ****   * @param  USBx  Selected device
 680:../Drivers/STM32L4xx_HAL_Driver/Src/stm32l4xx_ll_usb.c ****   * @param  ep pointer to endpoint structure
 681:../Drivers/STM32L4xx_HAL_Driver/Src/stm32l4xx_ll_usb.c ****   * @retval HAL status
 682:../Drivers/STM32L4xx_HAL_Driver/Src/stm32l4xx_ll_usb.c ****   */
 683:../Drivers/STM32L4xx_HAL_Driver/Src/stm32l4xx_ll_usb.c **** HAL_StatusTypeDef USB_EPStartXfer(USB_OTG_GlobalTypeDef *USBx, USB_OTG_EPTypeDef *ep)
 684:../Drivers/STM32L4xx_HAL_Driver/Src/stm32l4xx_ll_usb.c **** {
 685:../Drivers/STM32L4xx_HAL_Driver/Src/stm32l4xx_ll_usb.c ****   uint32_t USBx_BASE = (uint32_t)USBx;
 686:../Drivers/STM32L4xx_HAL_Driver/Src/stm32l4xx_ll_usb.c ****   uint32_t epnum = (uint32_t)ep->num;
 687:../Drivers/STM32L4xx_HAL_Driver/Src/stm32l4xx_ll_usb.c ****   uint16_t pktcnt;
 688:../Drivers/STM32L4xx_HAL_Driver/Src/stm32l4xx_ll_usb.c **** 
 689:../Drivers/STM32L4xx_HAL_Driver/Src/stm32l4xx_ll_usb.c ****   /* IN endpoint */
 690:../Drivers/STM32L4xx_HAL_Driver/Src/stm32l4xx_ll_usb.c ****   if (ep->is_in == 1U)
 691:../Drivers/STM32L4xx_HAL_Driver/Src/stm32l4xx_ll_usb.c ****   {
 692:../Drivers/STM32L4xx_HAL_Driver/Src/stm32l4xx_ll_usb.c ****     /* Zero Length Packet? */
 693:../Drivers/STM32L4xx_HAL_Driver/Src/stm32l4xx_ll_usb.c ****     if (ep->xfer_len == 0U)
 694:../Drivers/STM32L4xx_HAL_Driver/Src/stm32l4xx_ll_usb.c ****     {
 695:../Drivers/STM32L4xx_HAL_Driver/Src/stm32l4xx_ll_usb.c ****       USBx_INEP(epnum)->DIEPTSIZ &= ~(USB_OTG_DIEPTSIZ_PKTCNT);
 696:../Drivers/STM32L4xx_HAL_Driver/Src/stm32l4xx_ll_usb.c ****       USBx_INEP(epnum)->DIEPTSIZ |= (USB_OTG_DIEPTSIZ_PKTCNT & (1U << 19));
 697:../Drivers/STM32L4xx_HAL_Driver/Src/stm32l4xx_ll_usb.c ****       USBx_INEP(epnum)->DIEPTSIZ &= ~(USB_OTG_DIEPTSIZ_XFRSIZ);
 698:../Drivers/STM32L4xx_HAL_Driver/Src/stm32l4xx_ll_usb.c ****     }
 699:../Drivers/STM32L4xx_HAL_Driver/Src/stm32l4xx_ll_usb.c ****     else
 700:../Drivers/STM32L4xx_HAL_Driver/Src/stm32l4xx_ll_usb.c ****     {
 701:../Drivers/STM32L4xx_HAL_Driver/Src/stm32l4xx_ll_usb.c ****       /* Program the transfer size and packet count
 702:../Drivers/STM32L4xx_HAL_Driver/Src/stm32l4xx_ll_usb.c ****       * as follows: xfersize = N * maxpacket +
 703:../Drivers/STM32L4xx_HAL_Driver/Src/stm32l4xx_ll_usb.c ****       * short_packet pktcnt = N + (short_packet
 704:../Drivers/STM32L4xx_HAL_Driver/Src/stm32l4xx_ll_usb.c ****       * exist ? 1 : 0)
 705:../Drivers/STM32L4xx_HAL_Driver/Src/stm32l4xx_ll_usb.c ****       */
 706:../Drivers/STM32L4xx_HAL_Driver/Src/stm32l4xx_ll_usb.c ****       USBx_INEP(epnum)->DIEPTSIZ &= ~(USB_OTG_DIEPTSIZ_XFRSIZ);
 707:../Drivers/STM32L4xx_HAL_Driver/Src/stm32l4xx_ll_usb.c ****       USBx_INEP(epnum)->DIEPTSIZ &= ~(USB_OTG_DIEPTSIZ_PKTCNT);
 708:../Drivers/STM32L4xx_HAL_Driver/Src/stm32l4xx_ll_usb.c ****       USBx_INEP(epnum)->DIEPTSIZ |= (USB_OTG_DIEPTSIZ_PKTCNT &
 709:../Drivers/STM32L4xx_HAL_Driver/Src/stm32l4xx_ll_usb.c ****                                      (((ep->xfer_len + ep->maxpacket - 1U) / ep->maxpacket) << 19))
 710:../Drivers/STM32L4xx_HAL_Driver/Src/stm32l4xx_ll_usb.c **** 
 711:../Drivers/STM32L4xx_HAL_Driver/Src/stm32l4xx_ll_usb.c ****       USBx_INEP(epnum)->DIEPTSIZ |= (USB_OTG_DIEPTSIZ_XFRSIZ & ep->xfer_len);
 712:../Drivers/STM32L4xx_HAL_Driver/Src/stm32l4xx_ll_usb.c **** 
 713:../Drivers/STM32L4xx_HAL_Driver/Src/stm32l4xx_ll_usb.c ****       if (ep->type == EP_TYPE_ISOC)
 714:../Drivers/STM32L4xx_HAL_Driver/Src/stm32l4xx_ll_usb.c ****       {
ARM GAS  /tmp/ccJzOZLR.s 			page 14


 715:../Drivers/STM32L4xx_HAL_Driver/Src/stm32l4xx_ll_usb.c ****         USBx_INEP(epnum)->DIEPTSIZ &= ~(USB_OTG_DIEPTSIZ_MULCNT);
 716:../Drivers/STM32L4xx_HAL_Driver/Src/stm32l4xx_ll_usb.c ****         USBx_INEP(epnum)->DIEPTSIZ |= (USB_OTG_DIEPTSIZ_MULCNT & (1U << 29));
 717:../Drivers/STM32L4xx_HAL_Driver/Src/stm32l4xx_ll_usb.c ****       }
 718:../Drivers/STM32L4xx_HAL_Driver/Src/stm32l4xx_ll_usb.c ****     }
 719:../Drivers/STM32L4xx_HAL_Driver/Src/stm32l4xx_ll_usb.c ****     /* EP enable, IN data in FIFO */
 720:../Drivers/STM32L4xx_HAL_Driver/Src/stm32l4xx_ll_usb.c ****     USBx_INEP(epnum)->DIEPCTL |= (USB_OTG_DIEPCTL_CNAK | USB_OTG_DIEPCTL_EPENA);
 721:../Drivers/STM32L4xx_HAL_Driver/Src/stm32l4xx_ll_usb.c **** 
 722:../Drivers/STM32L4xx_HAL_Driver/Src/stm32l4xx_ll_usb.c ****     if (ep->type != EP_TYPE_ISOC)
 723:../Drivers/STM32L4xx_HAL_Driver/Src/stm32l4xx_ll_usb.c ****     {
 724:../Drivers/STM32L4xx_HAL_Driver/Src/stm32l4xx_ll_usb.c ****       /* Enable the Tx FIFO Empty Interrupt for this EP */
 725:../Drivers/STM32L4xx_HAL_Driver/Src/stm32l4xx_ll_usb.c ****       if (ep->xfer_len > 0U)
 726:../Drivers/STM32L4xx_HAL_Driver/Src/stm32l4xx_ll_usb.c ****       {
 727:../Drivers/STM32L4xx_HAL_Driver/Src/stm32l4xx_ll_usb.c ****         USBx_DEVICE->DIEPEMPMSK |= 1UL << (ep->num & EP_ADDR_MSK);
 728:../Drivers/STM32L4xx_HAL_Driver/Src/stm32l4xx_ll_usb.c ****       }
 729:../Drivers/STM32L4xx_HAL_Driver/Src/stm32l4xx_ll_usb.c ****     }
 730:../Drivers/STM32L4xx_HAL_Driver/Src/stm32l4xx_ll_usb.c ****     else
 731:../Drivers/STM32L4xx_HAL_Driver/Src/stm32l4xx_ll_usb.c ****     {
 732:../Drivers/STM32L4xx_HAL_Driver/Src/stm32l4xx_ll_usb.c ****       if ((USBx_DEVICE->DSTS & (1U << 8)) == 0U)
 733:../Drivers/STM32L4xx_HAL_Driver/Src/stm32l4xx_ll_usb.c ****       {
 734:../Drivers/STM32L4xx_HAL_Driver/Src/stm32l4xx_ll_usb.c ****         USBx_INEP(epnum)->DIEPCTL |= USB_OTG_DIEPCTL_SODDFRM;
 735:../Drivers/STM32L4xx_HAL_Driver/Src/stm32l4xx_ll_usb.c ****       }
 736:../Drivers/STM32L4xx_HAL_Driver/Src/stm32l4xx_ll_usb.c ****       else
 737:../Drivers/STM32L4xx_HAL_Driver/Src/stm32l4xx_ll_usb.c ****       {
 738:../Drivers/STM32L4xx_HAL_Driver/Src/stm32l4xx_ll_usb.c ****         USBx_INEP(epnum)->DIEPCTL |= USB_OTG_DIEPCTL_SD0PID_SEVNFRM;
 739:../Drivers/STM32L4xx_HAL_Driver/Src/stm32l4xx_ll_usb.c ****       }
 740:../Drivers/STM32L4xx_HAL_Driver/Src/stm32l4xx_ll_usb.c **** 
 741:../Drivers/STM32L4xx_HAL_Driver/Src/stm32l4xx_ll_usb.c ****       (void)USB_WritePacket(USBx, ep->xfer_buff, ep->num, (uint16_t)ep->xfer_len);
 742:../Drivers/STM32L4xx_HAL_Driver/Src/stm32l4xx_ll_usb.c ****     }
 743:../Drivers/STM32L4xx_HAL_Driver/Src/stm32l4xx_ll_usb.c ****   }
 744:../Drivers/STM32L4xx_HAL_Driver/Src/stm32l4xx_ll_usb.c ****   else /* OUT endpoint */
 745:../Drivers/STM32L4xx_HAL_Driver/Src/stm32l4xx_ll_usb.c ****   {
 746:../Drivers/STM32L4xx_HAL_Driver/Src/stm32l4xx_ll_usb.c ****     /* Program the transfer size and packet count as follows:
 747:../Drivers/STM32L4xx_HAL_Driver/Src/stm32l4xx_ll_usb.c ****     * pktcnt = N
 748:../Drivers/STM32L4xx_HAL_Driver/Src/stm32l4xx_ll_usb.c ****     * xfersize = N * maxpacket
 749:../Drivers/STM32L4xx_HAL_Driver/Src/stm32l4xx_ll_usb.c ****     */
 750:../Drivers/STM32L4xx_HAL_Driver/Src/stm32l4xx_ll_usb.c ****     USBx_OUTEP(epnum)->DOEPTSIZ &= ~(USB_OTG_DOEPTSIZ_XFRSIZ);
 751:../Drivers/STM32L4xx_HAL_Driver/Src/stm32l4xx_ll_usb.c ****     USBx_OUTEP(epnum)->DOEPTSIZ &= ~(USB_OTG_DOEPTSIZ_PKTCNT);
 752:../Drivers/STM32L4xx_HAL_Driver/Src/stm32l4xx_ll_usb.c **** 
 753:../Drivers/STM32L4xx_HAL_Driver/Src/stm32l4xx_ll_usb.c ****     if (ep->xfer_len == 0U)
 754:../Drivers/STM32L4xx_HAL_Driver/Src/stm32l4xx_ll_usb.c ****     {
 755:../Drivers/STM32L4xx_HAL_Driver/Src/stm32l4xx_ll_usb.c ****       USBx_OUTEP(epnum)->DOEPTSIZ |= (USB_OTG_DOEPTSIZ_XFRSIZ & ep->maxpacket);
 756:../Drivers/STM32L4xx_HAL_Driver/Src/stm32l4xx_ll_usb.c ****       USBx_OUTEP(epnum)->DOEPTSIZ |= (USB_OTG_DOEPTSIZ_PKTCNT & (1U << 19));
 757:../Drivers/STM32L4xx_HAL_Driver/Src/stm32l4xx_ll_usb.c ****     }
 758:../Drivers/STM32L4xx_HAL_Driver/Src/stm32l4xx_ll_usb.c ****     else
 759:../Drivers/STM32L4xx_HAL_Driver/Src/stm32l4xx_ll_usb.c ****     {
 760:../Drivers/STM32L4xx_HAL_Driver/Src/stm32l4xx_ll_usb.c ****       pktcnt = (uint16_t)((ep->xfer_len + ep->maxpacket - 1U) / ep->maxpacket);
 761:../Drivers/STM32L4xx_HAL_Driver/Src/stm32l4xx_ll_usb.c ****       ep->xfer_size = ep->maxpacket * pktcnt;
 762:../Drivers/STM32L4xx_HAL_Driver/Src/stm32l4xx_ll_usb.c **** 
 763:../Drivers/STM32L4xx_HAL_Driver/Src/stm32l4xx_ll_usb.c ****       USBx_OUTEP(epnum)->DOEPTSIZ |= USB_OTG_DOEPTSIZ_PKTCNT & ((uint32_t)pktcnt << 19);
 764:../Drivers/STM32L4xx_HAL_Driver/Src/stm32l4xx_ll_usb.c ****       USBx_OUTEP(epnum)->DOEPTSIZ |= USB_OTG_DOEPTSIZ_XFRSIZ & ep->xfer_size;
 765:../Drivers/STM32L4xx_HAL_Driver/Src/stm32l4xx_ll_usb.c ****     }
 766:../Drivers/STM32L4xx_HAL_Driver/Src/stm32l4xx_ll_usb.c **** 
 767:../Drivers/STM32L4xx_HAL_Driver/Src/stm32l4xx_ll_usb.c ****     if (ep->type == EP_TYPE_ISOC)
 768:../Drivers/STM32L4xx_HAL_Driver/Src/stm32l4xx_ll_usb.c ****     {
 769:../Drivers/STM32L4xx_HAL_Driver/Src/stm32l4xx_ll_usb.c ****       if ((USBx_DEVICE->DSTS & (1U << 8)) == 0U)
 770:../Drivers/STM32L4xx_HAL_Driver/Src/stm32l4xx_ll_usb.c ****       {
 771:../Drivers/STM32L4xx_HAL_Driver/Src/stm32l4xx_ll_usb.c ****         USBx_OUTEP(epnum)->DOEPCTL |= USB_OTG_DOEPCTL_SODDFRM;
ARM GAS  /tmp/ccJzOZLR.s 			page 15


 772:../Drivers/STM32L4xx_HAL_Driver/Src/stm32l4xx_ll_usb.c ****       }
 773:../Drivers/STM32L4xx_HAL_Driver/Src/stm32l4xx_ll_usb.c ****       else
 774:../Drivers/STM32L4xx_HAL_Driver/Src/stm32l4xx_ll_usb.c ****       {
 775:../Drivers/STM32L4xx_HAL_Driver/Src/stm32l4xx_ll_usb.c ****         USBx_OUTEP(epnum)->DOEPCTL |= USB_OTG_DOEPCTL_SD0PID_SEVNFRM;
 776:../Drivers/STM32L4xx_HAL_Driver/Src/stm32l4xx_ll_usb.c ****       }
 777:../Drivers/STM32L4xx_HAL_Driver/Src/stm32l4xx_ll_usb.c ****     }
 778:../Drivers/STM32L4xx_HAL_Driver/Src/stm32l4xx_ll_usb.c ****     /* EP enable */
 779:../Drivers/STM32L4xx_HAL_Driver/Src/stm32l4xx_ll_usb.c ****     USBx_OUTEP(epnum)->DOEPCTL |= (USB_OTG_DOEPCTL_CNAK | USB_OTG_DOEPCTL_EPENA);
 780:../Drivers/STM32L4xx_HAL_Driver/Src/stm32l4xx_ll_usb.c ****   }
 781:../Drivers/STM32L4xx_HAL_Driver/Src/stm32l4xx_ll_usb.c **** 
 782:../Drivers/STM32L4xx_HAL_Driver/Src/stm32l4xx_ll_usb.c ****   return HAL_OK;
 783:../Drivers/STM32L4xx_HAL_Driver/Src/stm32l4xx_ll_usb.c **** }
 784:../Drivers/STM32L4xx_HAL_Driver/Src/stm32l4xx_ll_usb.c **** 
 785:../Drivers/STM32L4xx_HAL_Driver/Src/stm32l4xx_ll_usb.c **** /**
 786:../Drivers/STM32L4xx_HAL_Driver/Src/stm32l4xx_ll_usb.c ****   * @brief  USB_EP0StartXfer : setup and starts a transfer over the EP  0
 787:../Drivers/STM32L4xx_HAL_Driver/Src/stm32l4xx_ll_usb.c ****   * @param  USBx  Selected device
 788:../Drivers/STM32L4xx_HAL_Driver/Src/stm32l4xx_ll_usb.c ****   * @param  ep pointer to endpoint structure
 789:../Drivers/STM32L4xx_HAL_Driver/Src/stm32l4xx_ll_usb.c ****   * @retval HAL status
 790:../Drivers/STM32L4xx_HAL_Driver/Src/stm32l4xx_ll_usb.c ****   */
 791:../Drivers/STM32L4xx_HAL_Driver/Src/stm32l4xx_ll_usb.c **** HAL_StatusTypeDef USB_EP0StartXfer(USB_OTG_GlobalTypeDef *USBx, USB_OTG_EPTypeDef *ep)
 792:../Drivers/STM32L4xx_HAL_Driver/Src/stm32l4xx_ll_usb.c **** {
 793:../Drivers/STM32L4xx_HAL_Driver/Src/stm32l4xx_ll_usb.c ****   uint32_t USBx_BASE = (uint32_t)USBx;
 794:../Drivers/STM32L4xx_HAL_Driver/Src/stm32l4xx_ll_usb.c ****   uint32_t epnum = (uint32_t)ep->num;
 795:../Drivers/STM32L4xx_HAL_Driver/Src/stm32l4xx_ll_usb.c **** 
 796:../Drivers/STM32L4xx_HAL_Driver/Src/stm32l4xx_ll_usb.c ****   /* IN endpoint */
 797:../Drivers/STM32L4xx_HAL_Driver/Src/stm32l4xx_ll_usb.c ****   if (ep->is_in == 1U)
 798:../Drivers/STM32L4xx_HAL_Driver/Src/stm32l4xx_ll_usb.c ****   {
 799:../Drivers/STM32L4xx_HAL_Driver/Src/stm32l4xx_ll_usb.c ****     /* Zero Length Packet? */
 800:../Drivers/STM32L4xx_HAL_Driver/Src/stm32l4xx_ll_usb.c ****     if (ep->xfer_len == 0U)
 801:../Drivers/STM32L4xx_HAL_Driver/Src/stm32l4xx_ll_usb.c ****     {
 802:../Drivers/STM32L4xx_HAL_Driver/Src/stm32l4xx_ll_usb.c ****       USBx_INEP(epnum)->DIEPTSIZ &= ~(USB_OTG_DIEPTSIZ_PKTCNT);
 803:../Drivers/STM32L4xx_HAL_Driver/Src/stm32l4xx_ll_usb.c ****       USBx_INEP(epnum)->DIEPTSIZ |= (USB_OTG_DIEPTSIZ_PKTCNT & (1U << 19));
 804:../Drivers/STM32L4xx_HAL_Driver/Src/stm32l4xx_ll_usb.c ****       USBx_INEP(epnum)->DIEPTSIZ &= ~(USB_OTG_DIEPTSIZ_XFRSIZ);
 805:../Drivers/STM32L4xx_HAL_Driver/Src/stm32l4xx_ll_usb.c ****     }
 806:../Drivers/STM32L4xx_HAL_Driver/Src/stm32l4xx_ll_usb.c ****     else
 807:../Drivers/STM32L4xx_HAL_Driver/Src/stm32l4xx_ll_usb.c ****     {
 808:../Drivers/STM32L4xx_HAL_Driver/Src/stm32l4xx_ll_usb.c ****       /* Program the transfer size and packet count
 809:../Drivers/STM32L4xx_HAL_Driver/Src/stm32l4xx_ll_usb.c ****       * as follows: xfersize = N * maxpacket +
 810:../Drivers/STM32L4xx_HAL_Driver/Src/stm32l4xx_ll_usb.c ****       * short_packet pktcnt = N + (short_packet
 811:../Drivers/STM32L4xx_HAL_Driver/Src/stm32l4xx_ll_usb.c ****       * exist ? 1 : 0)
 812:../Drivers/STM32L4xx_HAL_Driver/Src/stm32l4xx_ll_usb.c ****       */
 813:../Drivers/STM32L4xx_HAL_Driver/Src/stm32l4xx_ll_usb.c ****       USBx_INEP(epnum)->DIEPTSIZ &= ~(USB_OTG_DIEPTSIZ_XFRSIZ);
 814:../Drivers/STM32L4xx_HAL_Driver/Src/stm32l4xx_ll_usb.c ****       USBx_INEP(epnum)->DIEPTSIZ &= ~(USB_OTG_DIEPTSIZ_PKTCNT);
 815:../Drivers/STM32L4xx_HAL_Driver/Src/stm32l4xx_ll_usb.c **** 
 816:../Drivers/STM32L4xx_HAL_Driver/Src/stm32l4xx_ll_usb.c ****       if (ep->xfer_len > ep->maxpacket)
 817:../Drivers/STM32L4xx_HAL_Driver/Src/stm32l4xx_ll_usb.c ****       {
 818:../Drivers/STM32L4xx_HAL_Driver/Src/stm32l4xx_ll_usb.c ****         ep->xfer_len = ep->maxpacket;
 819:../Drivers/STM32L4xx_HAL_Driver/Src/stm32l4xx_ll_usb.c ****       }
 820:../Drivers/STM32L4xx_HAL_Driver/Src/stm32l4xx_ll_usb.c ****       USBx_INEP(epnum)->DIEPTSIZ |= (USB_OTG_DIEPTSIZ_PKTCNT & (1U << 19));
 821:../Drivers/STM32L4xx_HAL_Driver/Src/stm32l4xx_ll_usb.c ****       USBx_INEP(epnum)->DIEPTSIZ |= (USB_OTG_DIEPTSIZ_XFRSIZ & ep->xfer_len);
 822:../Drivers/STM32L4xx_HAL_Driver/Src/stm32l4xx_ll_usb.c ****     }
 823:../Drivers/STM32L4xx_HAL_Driver/Src/stm32l4xx_ll_usb.c **** 
 824:../Drivers/STM32L4xx_HAL_Driver/Src/stm32l4xx_ll_usb.c ****     /* EP enable, IN data in FIFO */
 825:../Drivers/STM32L4xx_HAL_Driver/Src/stm32l4xx_ll_usb.c ****     USBx_INEP(epnum)->DIEPCTL |= (USB_OTG_DIEPCTL_CNAK | USB_OTG_DIEPCTL_EPENA);
 826:../Drivers/STM32L4xx_HAL_Driver/Src/stm32l4xx_ll_usb.c **** 
 827:../Drivers/STM32L4xx_HAL_Driver/Src/stm32l4xx_ll_usb.c ****     /* Enable the Tx FIFO Empty Interrupt for this EP */
 828:../Drivers/STM32L4xx_HAL_Driver/Src/stm32l4xx_ll_usb.c ****     if (ep->xfer_len > 0U)
ARM GAS  /tmp/ccJzOZLR.s 			page 16


 829:../Drivers/STM32L4xx_HAL_Driver/Src/stm32l4xx_ll_usb.c ****     {
 830:../Drivers/STM32L4xx_HAL_Driver/Src/stm32l4xx_ll_usb.c ****       USBx_DEVICE->DIEPEMPMSK |= 1UL << (ep->num & EP_ADDR_MSK);
 831:../Drivers/STM32L4xx_HAL_Driver/Src/stm32l4xx_ll_usb.c ****     }
 832:../Drivers/STM32L4xx_HAL_Driver/Src/stm32l4xx_ll_usb.c ****   }
 833:../Drivers/STM32L4xx_HAL_Driver/Src/stm32l4xx_ll_usb.c ****   else /* OUT endpoint */
 834:../Drivers/STM32L4xx_HAL_Driver/Src/stm32l4xx_ll_usb.c ****   {
 835:../Drivers/STM32L4xx_HAL_Driver/Src/stm32l4xx_ll_usb.c ****     /* Program the transfer size and packet count as follows:
 836:../Drivers/STM32L4xx_HAL_Driver/Src/stm32l4xx_ll_usb.c ****     * pktcnt = N
 837:../Drivers/STM32L4xx_HAL_Driver/Src/stm32l4xx_ll_usb.c ****     * xfersize = N * maxpacket
 838:../Drivers/STM32L4xx_HAL_Driver/Src/stm32l4xx_ll_usb.c ****     */
 839:../Drivers/STM32L4xx_HAL_Driver/Src/stm32l4xx_ll_usb.c ****     USBx_OUTEP(epnum)->DOEPTSIZ &= ~(USB_OTG_DOEPTSIZ_XFRSIZ);
 840:../Drivers/STM32L4xx_HAL_Driver/Src/stm32l4xx_ll_usb.c ****     USBx_OUTEP(epnum)->DOEPTSIZ &= ~(USB_OTG_DOEPTSIZ_PKTCNT);
 841:../Drivers/STM32L4xx_HAL_Driver/Src/stm32l4xx_ll_usb.c **** 
 842:../Drivers/STM32L4xx_HAL_Driver/Src/stm32l4xx_ll_usb.c ****     if (ep->xfer_len > 0U)
 843:../Drivers/STM32L4xx_HAL_Driver/Src/stm32l4xx_ll_usb.c ****     {
 844:../Drivers/STM32L4xx_HAL_Driver/Src/stm32l4xx_ll_usb.c ****       ep->xfer_len = ep->maxpacket;
 845:../Drivers/STM32L4xx_HAL_Driver/Src/stm32l4xx_ll_usb.c ****     }
 846:../Drivers/STM32L4xx_HAL_Driver/Src/stm32l4xx_ll_usb.c **** 
 847:../Drivers/STM32L4xx_HAL_Driver/Src/stm32l4xx_ll_usb.c ****     /* Store transfer size, for EP0 this is equal to endpoint max packet size */
 848:../Drivers/STM32L4xx_HAL_Driver/Src/stm32l4xx_ll_usb.c ****     ep->xfer_size = ep->maxpacket;
 849:../Drivers/STM32L4xx_HAL_Driver/Src/stm32l4xx_ll_usb.c **** 
 850:../Drivers/STM32L4xx_HAL_Driver/Src/stm32l4xx_ll_usb.c ****     USBx_OUTEP(epnum)->DOEPTSIZ |= (USB_OTG_DOEPTSIZ_PKTCNT & (1U << 19));
 851:../Drivers/STM32L4xx_HAL_Driver/Src/stm32l4xx_ll_usb.c ****     USBx_OUTEP(epnum)->DOEPTSIZ |= (USB_OTG_DOEPTSIZ_XFRSIZ & ep->xfer_size);
 852:../Drivers/STM32L4xx_HAL_Driver/Src/stm32l4xx_ll_usb.c **** 
 853:../Drivers/STM32L4xx_HAL_Driver/Src/stm32l4xx_ll_usb.c ****     /* EP enable */
 854:../Drivers/STM32L4xx_HAL_Driver/Src/stm32l4xx_ll_usb.c ****     USBx_OUTEP(epnum)->DOEPCTL |= (USB_OTG_DOEPCTL_CNAK | USB_OTG_DOEPCTL_EPENA);
 855:../Drivers/STM32L4xx_HAL_Driver/Src/stm32l4xx_ll_usb.c ****   }
 856:../Drivers/STM32L4xx_HAL_Driver/Src/stm32l4xx_ll_usb.c **** 
 857:../Drivers/STM32L4xx_HAL_Driver/Src/stm32l4xx_ll_usb.c ****   return HAL_OK;
 858:../Drivers/STM32L4xx_HAL_Driver/Src/stm32l4xx_ll_usb.c **** }
 859:../Drivers/STM32L4xx_HAL_Driver/Src/stm32l4xx_ll_usb.c **** 
 860:../Drivers/STM32L4xx_HAL_Driver/Src/stm32l4xx_ll_usb.c **** 
 861:../Drivers/STM32L4xx_HAL_Driver/Src/stm32l4xx_ll_usb.c **** /**
 862:../Drivers/STM32L4xx_HAL_Driver/Src/stm32l4xx_ll_usb.c ****    * @brief  USB_EPStoptXfer  Stop transfer on an EP
 863:../Drivers/STM32L4xx_HAL_Driver/Src/stm32l4xx_ll_usb.c ****    * @param  USBx  usb device instance
 864:../Drivers/STM32L4xx_HAL_Driver/Src/stm32l4xx_ll_usb.c ****    * @param  ep pointer to endpoint structure
 865:../Drivers/STM32L4xx_HAL_Driver/Src/stm32l4xx_ll_usb.c ****    * @retval HAL status
 866:../Drivers/STM32L4xx_HAL_Driver/Src/stm32l4xx_ll_usb.c ****    */
 867:../Drivers/STM32L4xx_HAL_Driver/Src/stm32l4xx_ll_usb.c **** HAL_StatusTypeDef USB_EPStopXfer(USB_OTG_GlobalTypeDef *USBx, USB_OTG_EPTypeDef *ep)
 868:../Drivers/STM32L4xx_HAL_Driver/Src/stm32l4xx_ll_usb.c **** {
 869:../Drivers/STM32L4xx_HAL_Driver/Src/stm32l4xx_ll_usb.c ****   __IO uint32_t count = 0U;
 870:../Drivers/STM32L4xx_HAL_Driver/Src/stm32l4xx_ll_usb.c ****   HAL_StatusTypeDef ret = HAL_OK;
 871:../Drivers/STM32L4xx_HAL_Driver/Src/stm32l4xx_ll_usb.c ****   uint32_t USBx_BASE = (uint32_t)USBx;
 872:../Drivers/STM32L4xx_HAL_Driver/Src/stm32l4xx_ll_usb.c **** 
 873:../Drivers/STM32L4xx_HAL_Driver/Src/stm32l4xx_ll_usb.c ****   /* IN endpoint */
 874:../Drivers/STM32L4xx_HAL_Driver/Src/stm32l4xx_ll_usb.c ****   if (ep->is_in == 1U)
 875:../Drivers/STM32L4xx_HAL_Driver/Src/stm32l4xx_ll_usb.c ****   {
 876:../Drivers/STM32L4xx_HAL_Driver/Src/stm32l4xx_ll_usb.c ****     /* EP enable, IN data in FIFO */
 877:../Drivers/STM32L4xx_HAL_Driver/Src/stm32l4xx_ll_usb.c ****     if (((USBx_INEP(ep->num)->DIEPCTL) & USB_OTG_DIEPCTL_EPENA) == USB_OTG_DIEPCTL_EPENA)
 878:../Drivers/STM32L4xx_HAL_Driver/Src/stm32l4xx_ll_usb.c ****     {
 879:../Drivers/STM32L4xx_HAL_Driver/Src/stm32l4xx_ll_usb.c ****       USBx_INEP(ep->num)->DIEPCTL |= (USB_OTG_DIEPCTL_SNAK);
 880:../Drivers/STM32L4xx_HAL_Driver/Src/stm32l4xx_ll_usb.c ****       USBx_INEP(ep->num)->DIEPCTL |= (USB_OTG_DIEPCTL_EPDIS);
 881:../Drivers/STM32L4xx_HAL_Driver/Src/stm32l4xx_ll_usb.c **** 
 882:../Drivers/STM32L4xx_HAL_Driver/Src/stm32l4xx_ll_usb.c ****       do
 883:../Drivers/STM32L4xx_HAL_Driver/Src/stm32l4xx_ll_usb.c ****       {
 884:../Drivers/STM32L4xx_HAL_Driver/Src/stm32l4xx_ll_usb.c ****         count++;
 885:../Drivers/STM32L4xx_HAL_Driver/Src/stm32l4xx_ll_usb.c **** 
ARM GAS  /tmp/ccJzOZLR.s 			page 17


 886:../Drivers/STM32L4xx_HAL_Driver/Src/stm32l4xx_ll_usb.c ****         if (count > 10000U)
 887:../Drivers/STM32L4xx_HAL_Driver/Src/stm32l4xx_ll_usb.c ****         {
 888:../Drivers/STM32L4xx_HAL_Driver/Src/stm32l4xx_ll_usb.c ****           ret = HAL_ERROR;
 889:../Drivers/STM32L4xx_HAL_Driver/Src/stm32l4xx_ll_usb.c ****           break;
 890:../Drivers/STM32L4xx_HAL_Driver/Src/stm32l4xx_ll_usb.c ****         }
 891:../Drivers/STM32L4xx_HAL_Driver/Src/stm32l4xx_ll_usb.c ****       } while (((USBx_INEP(ep->num)->DIEPCTL) & USB_OTG_DIEPCTL_EPENA) ==  USB_OTG_DIEPCTL_EPENA);
 892:../Drivers/STM32L4xx_HAL_Driver/Src/stm32l4xx_ll_usb.c ****     }
 893:../Drivers/STM32L4xx_HAL_Driver/Src/stm32l4xx_ll_usb.c ****   }
 894:../Drivers/STM32L4xx_HAL_Driver/Src/stm32l4xx_ll_usb.c ****   else /* OUT endpoint */
 895:../Drivers/STM32L4xx_HAL_Driver/Src/stm32l4xx_ll_usb.c ****   {
 896:../Drivers/STM32L4xx_HAL_Driver/Src/stm32l4xx_ll_usb.c ****     if (((USBx_OUTEP(ep->num)->DOEPCTL) & USB_OTG_DOEPCTL_EPENA) == USB_OTG_DOEPCTL_EPENA)
 897:../Drivers/STM32L4xx_HAL_Driver/Src/stm32l4xx_ll_usb.c ****     {
 898:../Drivers/STM32L4xx_HAL_Driver/Src/stm32l4xx_ll_usb.c ****       USBx_OUTEP(ep->num)->DOEPCTL |= (USB_OTG_DOEPCTL_SNAK);
 899:../Drivers/STM32L4xx_HAL_Driver/Src/stm32l4xx_ll_usb.c ****       USBx_OUTEP(ep->num)->DOEPCTL |= (USB_OTG_DOEPCTL_EPDIS);
 900:../Drivers/STM32L4xx_HAL_Driver/Src/stm32l4xx_ll_usb.c **** 
 901:../Drivers/STM32L4xx_HAL_Driver/Src/stm32l4xx_ll_usb.c ****       do
 902:../Drivers/STM32L4xx_HAL_Driver/Src/stm32l4xx_ll_usb.c ****       {
 903:../Drivers/STM32L4xx_HAL_Driver/Src/stm32l4xx_ll_usb.c ****         count++;
 904:../Drivers/STM32L4xx_HAL_Driver/Src/stm32l4xx_ll_usb.c **** 
 905:../Drivers/STM32L4xx_HAL_Driver/Src/stm32l4xx_ll_usb.c ****         if (count > 10000U)
 906:../Drivers/STM32L4xx_HAL_Driver/Src/stm32l4xx_ll_usb.c ****         {
 907:../Drivers/STM32L4xx_HAL_Driver/Src/stm32l4xx_ll_usb.c ****           ret = HAL_ERROR;
 908:../Drivers/STM32L4xx_HAL_Driver/Src/stm32l4xx_ll_usb.c ****           break;
 909:../Drivers/STM32L4xx_HAL_Driver/Src/stm32l4xx_ll_usb.c ****         }
 910:../Drivers/STM32L4xx_HAL_Driver/Src/stm32l4xx_ll_usb.c ****       } while (((USBx_OUTEP(ep->num)->DOEPCTL) & USB_OTG_DOEPCTL_EPENA) ==  USB_OTG_DOEPCTL_EPENA);
 911:../Drivers/STM32L4xx_HAL_Driver/Src/stm32l4xx_ll_usb.c ****     }
 912:../Drivers/STM32L4xx_HAL_Driver/Src/stm32l4xx_ll_usb.c ****   }
 913:../Drivers/STM32L4xx_HAL_Driver/Src/stm32l4xx_ll_usb.c **** 
 914:../Drivers/STM32L4xx_HAL_Driver/Src/stm32l4xx_ll_usb.c ****   return ret;
 915:../Drivers/STM32L4xx_HAL_Driver/Src/stm32l4xx_ll_usb.c **** }
 916:../Drivers/STM32L4xx_HAL_Driver/Src/stm32l4xx_ll_usb.c **** 
 917:../Drivers/STM32L4xx_HAL_Driver/Src/stm32l4xx_ll_usb.c **** 
 918:../Drivers/STM32L4xx_HAL_Driver/Src/stm32l4xx_ll_usb.c **** /**
 919:../Drivers/STM32L4xx_HAL_Driver/Src/stm32l4xx_ll_usb.c ****   * @brief  USB_WritePacket : Writes a packet into the Tx FIFO associated
 920:../Drivers/STM32L4xx_HAL_Driver/Src/stm32l4xx_ll_usb.c ****   *         with the EP/channel
 921:../Drivers/STM32L4xx_HAL_Driver/Src/stm32l4xx_ll_usb.c ****   * @param  USBx  Selected device
 922:../Drivers/STM32L4xx_HAL_Driver/Src/stm32l4xx_ll_usb.c ****   * @param  src   pointer to source buffer
 923:../Drivers/STM32L4xx_HAL_Driver/Src/stm32l4xx_ll_usb.c ****   * @param  ch_ep_num  endpoint or host channel number
 924:../Drivers/STM32L4xx_HAL_Driver/Src/stm32l4xx_ll_usb.c ****   * @param  len  Number of bytes to write
 925:../Drivers/STM32L4xx_HAL_Driver/Src/stm32l4xx_ll_usb.c ****   * @retval HAL status
 926:../Drivers/STM32L4xx_HAL_Driver/Src/stm32l4xx_ll_usb.c ****   */
 927:../Drivers/STM32L4xx_HAL_Driver/Src/stm32l4xx_ll_usb.c **** HAL_StatusTypeDef USB_WritePacket(USB_OTG_GlobalTypeDef *USBx, uint8_t *src,
 928:../Drivers/STM32L4xx_HAL_Driver/Src/stm32l4xx_ll_usb.c ****                                   uint8_t ch_ep_num, uint16_t len)
 929:../Drivers/STM32L4xx_HAL_Driver/Src/stm32l4xx_ll_usb.c **** {
 930:../Drivers/STM32L4xx_HAL_Driver/Src/stm32l4xx_ll_usb.c ****   uint32_t USBx_BASE = (uint32_t)USBx;
 931:../Drivers/STM32L4xx_HAL_Driver/Src/stm32l4xx_ll_usb.c ****   uint8_t *pSrc = src;
 932:../Drivers/STM32L4xx_HAL_Driver/Src/stm32l4xx_ll_usb.c ****   uint32_t count32b;
 933:../Drivers/STM32L4xx_HAL_Driver/Src/stm32l4xx_ll_usb.c ****   uint32_t i;
 934:../Drivers/STM32L4xx_HAL_Driver/Src/stm32l4xx_ll_usb.c **** 
 935:../Drivers/STM32L4xx_HAL_Driver/Src/stm32l4xx_ll_usb.c ****   count32b = ((uint32_t)len + 3U) / 4U;
 936:../Drivers/STM32L4xx_HAL_Driver/Src/stm32l4xx_ll_usb.c ****   for (i = 0U; i < count32b; i++)
 937:../Drivers/STM32L4xx_HAL_Driver/Src/stm32l4xx_ll_usb.c ****   {
 938:../Drivers/STM32L4xx_HAL_Driver/Src/stm32l4xx_ll_usb.c ****     USBx_DFIFO((uint32_t)ch_ep_num) = __UNALIGNED_UINT32_READ(pSrc);
 939:../Drivers/STM32L4xx_HAL_Driver/Src/stm32l4xx_ll_usb.c ****     pSrc++;
 940:../Drivers/STM32L4xx_HAL_Driver/Src/stm32l4xx_ll_usb.c ****     pSrc++;
 941:../Drivers/STM32L4xx_HAL_Driver/Src/stm32l4xx_ll_usb.c ****     pSrc++;
 942:../Drivers/STM32L4xx_HAL_Driver/Src/stm32l4xx_ll_usb.c ****     pSrc++;
ARM GAS  /tmp/ccJzOZLR.s 			page 18


 943:../Drivers/STM32L4xx_HAL_Driver/Src/stm32l4xx_ll_usb.c ****   }
 944:../Drivers/STM32L4xx_HAL_Driver/Src/stm32l4xx_ll_usb.c **** 
 945:../Drivers/STM32L4xx_HAL_Driver/Src/stm32l4xx_ll_usb.c ****   return HAL_OK;
 946:../Drivers/STM32L4xx_HAL_Driver/Src/stm32l4xx_ll_usb.c **** }
 947:../Drivers/STM32L4xx_HAL_Driver/Src/stm32l4xx_ll_usb.c **** 
 948:../Drivers/STM32L4xx_HAL_Driver/Src/stm32l4xx_ll_usb.c **** /**
 949:../Drivers/STM32L4xx_HAL_Driver/Src/stm32l4xx_ll_usb.c ****   * @brief  USB_ReadPacket : read a packet from the RX FIFO
 950:../Drivers/STM32L4xx_HAL_Driver/Src/stm32l4xx_ll_usb.c ****   * @param  USBx  Selected device
 951:../Drivers/STM32L4xx_HAL_Driver/Src/stm32l4xx_ll_usb.c ****   * @param  dest  source pointer
 952:../Drivers/STM32L4xx_HAL_Driver/Src/stm32l4xx_ll_usb.c ****   * @param  len  Number of bytes to read
 953:../Drivers/STM32L4xx_HAL_Driver/Src/stm32l4xx_ll_usb.c ****   * @retval pointer to destination buffer
 954:../Drivers/STM32L4xx_HAL_Driver/Src/stm32l4xx_ll_usb.c ****   */
 955:../Drivers/STM32L4xx_HAL_Driver/Src/stm32l4xx_ll_usb.c **** void *USB_ReadPacket(USB_OTG_GlobalTypeDef *USBx, uint8_t *dest, uint16_t len)
 956:../Drivers/STM32L4xx_HAL_Driver/Src/stm32l4xx_ll_usb.c **** {
 957:../Drivers/STM32L4xx_HAL_Driver/Src/stm32l4xx_ll_usb.c ****   uint32_t USBx_BASE = (uint32_t)USBx;
 958:../Drivers/STM32L4xx_HAL_Driver/Src/stm32l4xx_ll_usb.c ****   uint8_t *pDest = dest;
 959:../Drivers/STM32L4xx_HAL_Driver/Src/stm32l4xx_ll_usb.c ****   uint32_t pData;
 960:../Drivers/STM32L4xx_HAL_Driver/Src/stm32l4xx_ll_usb.c ****   uint32_t i;
 961:../Drivers/STM32L4xx_HAL_Driver/Src/stm32l4xx_ll_usb.c ****   uint32_t count32b = (uint32_t)len >> 2U;
 962:../Drivers/STM32L4xx_HAL_Driver/Src/stm32l4xx_ll_usb.c ****   uint16_t remaining_bytes = len % 4U;
 963:../Drivers/STM32L4xx_HAL_Driver/Src/stm32l4xx_ll_usb.c **** 
 964:../Drivers/STM32L4xx_HAL_Driver/Src/stm32l4xx_ll_usb.c ****   for (i = 0U; i < count32b; i++)
 965:../Drivers/STM32L4xx_HAL_Driver/Src/stm32l4xx_ll_usb.c ****   {
 966:../Drivers/STM32L4xx_HAL_Driver/Src/stm32l4xx_ll_usb.c ****     __UNALIGNED_UINT32_WRITE(pDest, USBx_DFIFO(0U));
 967:../Drivers/STM32L4xx_HAL_Driver/Src/stm32l4xx_ll_usb.c ****     pDest++;
 968:../Drivers/STM32L4xx_HAL_Driver/Src/stm32l4xx_ll_usb.c ****     pDest++;
 969:../Drivers/STM32L4xx_HAL_Driver/Src/stm32l4xx_ll_usb.c ****     pDest++;
 970:../Drivers/STM32L4xx_HAL_Driver/Src/stm32l4xx_ll_usb.c ****     pDest++;
 971:../Drivers/STM32L4xx_HAL_Driver/Src/stm32l4xx_ll_usb.c ****   }
 972:../Drivers/STM32L4xx_HAL_Driver/Src/stm32l4xx_ll_usb.c **** 
 973:../Drivers/STM32L4xx_HAL_Driver/Src/stm32l4xx_ll_usb.c ****   /* When Number of data is not word aligned, read the remaining byte */
 974:../Drivers/STM32L4xx_HAL_Driver/Src/stm32l4xx_ll_usb.c ****   if (remaining_bytes != 0U)
 975:../Drivers/STM32L4xx_HAL_Driver/Src/stm32l4xx_ll_usb.c ****   {
 976:../Drivers/STM32L4xx_HAL_Driver/Src/stm32l4xx_ll_usb.c ****     i = 0U;
 977:../Drivers/STM32L4xx_HAL_Driver/Src/stm32l4xx_ll_usb.c ****     __UNALIGNED_UINT32_WRITE(&pData, USBx_DFIFO(0U));
 978:../Drivers/STM32L4xx_HAL_Driver/Src/stm32l4xx_ll_usb.c **** 
 979:../Drivers/STM32L4xx_HAL_Driver/Src/stm32l4xx_ll_usb.c ****     do
 980:../Drivers/STM32L4xx_HAL_Driver/Src/stm32l4xx_ll_usb.c ****     {
 981:../Drivers/STM32L4xx_HAL_Driver/Src/stm32l4xx_ll_usb.c ****       *(uint8_t *)pDest = (uint8_t)(pData >> (8U * (uint8_t)(i)));
 982:../Drivers/STM32L4xx_HAL_Driver/Src/stm32l4xx_ll_usb.c ****       i++;
 983:../Drivers/STM32L4xx_HAL_Driver/Src/stm32l4xx_ll_usb.c ****       pDest++;
 984:../Drivers/STM32L4xx_HAL_Driver/Src/stm32l4xx_ll_usb.c ****       remaining_bytes--;
 985:../Drivers/STM32L4xx_HAL_Driver/Src/stm32l4xx_ll_usb.c ****     } while (remaining_bytes != 0U);
 986:../Drivers/STM32L4xx_HAL_Driver/Src/stm32l4xx_ll_usb.c ****   }
 987:../Drivers/STM32L4xx_HAL_Driver/Src/stm32l4xx_ll_usb.c **** 
 988:../Drivers/STM32L4xx_HAL_Driver/Src/stm32l4xx_ll_usb.c ****   return ((void *)pDest);
 989:../Drivers/STM32L4xx_HAL_Driver/Src/stm32l4xx_ll_usb.c **** }
 990:../Drivers/STM32L4xx_HAL_Driver/Src/stm32l4xx_ll_usb.c **** 
 991:../Drivers/STM32L4xx_HAL_Driver/Src/stm32l4xx_ll_usb.c **** /**
 992:../Drivers/STM32L4xx_HAL_Driver/Src/stm32l4xx_ll_usb.c ****   * @brief  USB_EPSetStall : set a stall condition over an EP
 993:../Drivers/STM32L4xx_HAL_Driver/Src/stm32l4xx_ll_usb.c ****   * @param  USBx  Selected device
 994:../Drivers/STM32L4xx_HAL_Driver/Src/stm32l4xx_ll_usb.c ****   * @param  ep pointer to endpoint structure
 995:../Drivers/STM32L4xx_HAL_Driver/Src/stm32l4xx_ll_usb.c ****   * @retval HAL status
 996:../Drivers/STM32L4xx_HAL_Driver/Src/stm32l4xx_ll_usb.c ****   */
 997:../Drivers/STM32L4xx_HAL_Driver/Src/stm32l4xx_ll_usb.c **** HAL_StatusTypeDef USB_EPSetStall(USB_OTG_GlobalTypeDef *USBx, USB_OTG_EPTypeDef *ep)
 998:../Drivers/STM32L4xx_HAL_Driver/Src/stm32l4xx_ll_usb.c **** {
 999:../Drivers/STM32L4xx_HAL_Driver/Src/stm32l4xx_ll_usb.c ****   uint32_t USBx_BASE = (uint32_t)USBx;
ARM GAS  /tmp/ccJzOZLR.s 			page 19


1000:../Drivers/STM32L4xx_HAL_Driver/Src/stm32l4xx_ll_usb.c ****   uint32_t epnum = (uint32_t)ep->num;
1001:../Drivers/STM32L4xx_HAL_Driver/Src/stm32l4xx_ll_usb.c **** 
1002:../Drivers/STM32L4xx_HAL_Driver/Src/stm32l4xx_ll_usb.c ****   if (ep->is_in == 1U)
1003:../Drivers/STM32L4xx_HAL_Driver/Src/stm32l4xx_ll_usb.c ****   {
1004:../Drivers/STM32L4xx_HAL_Driver/Src/stm32l4xx_ll_usb.c ****     if (((USBx_INEP(epnum)->DIEPCTL & USB_OTG_DIEPCTL_EPENA) == 0U) && (epnum != 0U))
1005:../Drivers/STM32L4xx_HAL_Driver/Src/stm32l4xx_ll_usb.c ****     {
1006:../Drivers/STM32L4xx_HAL_Driver/Src/stm32l4xx_ll_usb.c ****       USBx_INEP(epnum)->DIEPCTL &= ~(USB_OTG_DIEPCTL_EPDIS);
1007:../Drivers/STM32L4xx_HAL_Driver/Src/stm32l4xx_ll_usb.c ****     }
1008:../Drivers/STM32L4xx_HAL_Driver/Src/stm32l4xx_ll_usb.c ****     USBx_INEP(epnum)->DIEPCTL |= USB_OTG_DIEPCTL_STALL;
1009:../Drivers/STM32L4xx_HAL_Driver/Src/stm32l4xx_ll_usb.c ****   }
1010:../Drivers/STM32L4xx_HAL_Driver/Src/stm32l4xx_ll_usb.c ****   else
1011:../Drivers/STM32L4xx_HAL_Driver/Src/stm32l4xx_ll_usb.c ****   {
1012:../Drivers/STM32L4xx_HAL_Driver/Src/stm32l4xx_ll_usb.c ****     if (((USBx_OUTEP(epnum)->DOEPCTL & USB_OTG_DOEPCTL_EPENA) == 0U) && (epnum != 0U))
1013:../Drivers/STM32L4xx_HAL_Driver/Src/stm32l4xx_ll_usb.c ****     {
1014:../Drivers/STM32L4xx_HAL_Driver/Src/stm32l4xx_ll_usb.c ****       USBx_OUTEP(epnum)->DOEPCTL &= ~(USB_OTG_DOEPCTL_EPDIS);
1015:../Drivers/STM32L4xx_HAL_Driver/Src/stm32l4xx_ll_usb.c ****     }
1016:../Drivers/STM32L4xx_HAL_Driver/Src/stm32l4xx_ll_usb.c ****     USBx_OUTEP(epnum)->DOEPCTL |= USB_OTG_DOEPCTL_STALL;
1017:../Drivers/STM32L4xx_HAL_Driver/Src/stm32l4xx_ll_usb.c ****   }
1018:../Drivers/STM32L4xx_HAL_Driver/Src/stm32l4xx_ll_usb.c **** 
1019:../Drivers/STM32L4xx_HAL_Driver/Src/stm32l4xx_ll_usb.c ****   return HAL_OK;
1020:../Drivers/STM32L4xx_HAL_Driver/Src/stm32l4xx_ll_usb.c **** }
1021:../Drivers/STM32L4xx_HAL_Driver/Src/stm32l4xx_ll_usb.c **** 
1022:../Drivers/STM32L4xx_HAL_Driver/Src/stm32l4xx_ll_usb.c **** /**
1023:../Drivers/STM32L4xx_HAL_Driver/Src/stm32l4xx_ll_usb.c ****   * @brief  USB_EPClearStall : Clear a stall condition over an EP
1024:../Drivers/STM32L4xx_HAL_Driver/Src/stm32l4xx_ll_usb.c ****   * @param  USBx  Selected device
1025:../Drivers/STM32L4xx_HAL_Driver/Src/stm32l4xx_ll_usb.c ****   * @param  ep pointer to endpoint structure
1026:../Drivers/STM32L4xx_HAL_Driver/Src/stm32l4xx_ll_usb.c ****   * @retval HAL status
1027:../Drivers/STM32L4xx_HAL_Driver/Src/stm32l4xx_ll_usb.c ****   */
1028:../Drivers/STM32L4xx_HAL_Driver/Src/stm32l4xx_ll_usb.c **** HAL_StatusTypeDef USB_EPClearStall(USB_OTG_GlobalTypeDef *USBx, USB_OTG_EPTypeDef *ep)
1029:../Drivers/STM32L4xx_HAL_Driver/Src/stm32l4xx_ll_usb.c **** {
1030:../Drivers/STM32L4xx_HAL_Driver/Src/stm32l4xx_ll_usb.c ****   uint32_t USBx_BASE = (uint32_t)USBx;
1031:../Drivers/STM32L4xx_HAL_Driver/Src/stm32l4xx_ll_usb.c ****   uint32_t epnum = (uint32_t)ep->num;
1032:../Drivers/STM32L4xx_HAL_Driver/Src/stm32l4xx_ll_usb.c **** 
1033:../Drivers/STM32L4xx_HAL_Driver/Src/stm32l4xx_ll_usb.c ****   if (ep->is_in == 1U)
1034:../Drivers/STM32L4xx_HAL_Driver/Src/stm32l4xx_ll_usb.c ****   {
1035:../Drivers/STM32L4xx_HAL_Driver/Src/stm32l4xx_ll_usb.c ****     USBx_INEP(epnum)->DIEPCTL &= ~USB_OTG_DIEPCTL_STALL;
1036:../Drivers/STM32L4xx_HAL_Driver/Src/stm32l4xx_ll_usb.c ****     if ((ep->type == EP_TYPE_INTR) || (ep->type == EP_TYPE_BULK))
1037:../Drivers/STM32L4xx_HAL_Driver/Src/stm32l4xx_ll_usb.c ****     {
1038:../Drivers/STM32L4xx_HAL_Driver/Src/stm32l4xx_ll_usb.c ****       USBx_INEP(epnum)->DIEPCTL |= USB_OTG_DIEPCTL_SD0PID_SEVNFRM; /* DATA0 */
1039:../Drivers/STM32L4xx_HAL_Driver/Src/stm32l4xx_ll_usb.c ****     }
1040:../Drivers/STM32L4xx_HAL_Driver/Src/stm32l4xx_ll_usb.c ****   }
1041:../Drivers/STM32L4xx_HAL_Driver/Src/stm32l4xx_ll_usb.c ****   else
1042:../Drivers/STM32L4xx_HAL_Driver/Src/stm32l4xx_ll_usb.c ****   {
1043:../Drivers/STM32L4xx_HAL_Driver/Src/stm32l4xx_ll_usb.c ****     USBx_OUTEP(epnum)->DOEPCTL &= ~USB_OTG_DOEPCTL_STALL;
1044:../Drivers/STM32L4xx_HAL_Driver/Src/stm32l4xx_ll_usb.c ****     if ((ep->type == EP_TYPE_INTR) || (ep->type == EP_TYPE_BULK))
1045:../Drivers/STM32L4xx_HAL_Driver/Src/stm32l4xx_ll_usb.c ****     {
1046:../Drivers/STM32L4xx_HAL_Driver/Src/stm32l4xx_ll_usb.c ****       USBx_OUTEP(epnum)->DOEPCTL |= USB_OTG_DOEPCTL_SD0PID_SEVNFRM; /* DATA0 */
1047:../Drivers/STM32L4xx_HAL_Driver/Src/stm32l4xx_ll_usb.c ****     }
1048:../Drivers/STM32L4xx_HAL_Driver/Src/stm32l4xx_ll_usb.c ****   }
1049:../Drivers/STM32L4xx_HAL_Driver/Src/stm32l4xx_ll_usb.c ****   return HAL_OK;
1050:../Drivers/STM32L4xx_HAL_Driver/Src/stm32l4xx_ll_usb.c **** }
1051:../Drivers/STM32L4xx_HAL_Driver/Src/stm32l4xx_ll_usb.c **** 
1052:../Drivers/STM32L4xx_HAL_Driver/Src/stm32l4xx_ll_usb.c **** /**
1053:../Drivers/STM32L4xx_HAL_Driver/Src/stm32l4xx_ll_usb.c ****   * @brief  USB_StopDevice : Stop the usb device mode
1054:../Drivers/STM32L4xx_HAL_Driver/Src/stm32l4xx_ll_usb.c ****   * @param  USBx  Selected device
1055:../Drivers/STM32L4xx_HAL_Driver/Src/stm32l4xx_ll_usb.c ****   * @retval HAL status
1056:../Drivers/STM32L4xx_HAL_Driver/Src/stm32l4xx_ll_usb.c ****   */
ARM GAS  /tmp/ccJzOZLR.s 			page 20


1057:../Drivers/STM32L4xx_HAL_Driver/Src/stm32l4xx_ll_usb.c **** HAL_StatusTypeDef USB_StopDevice(USB_OTG_GlobalTypeDef *USBx)
1058:../Drivers/STM32L4xx_HAL_Driver/Src/stm32l4xx_ll_usb.c **** {
1059:../Drivers/STM32L4xx_HAL_Driver/Src/stm32l4xx_ll_usb.c ****   HAL_StatusTypeDef ret;
1060:../Drivers/STM32L4xx_HAL_Driver/Src/stm32l4xx_ll_usb.c ****   uint32_t USBx_BASE = (uint32_t)USBx;
1061:../Drivers/STM32L4xx_HAL_Driver/Src/stm32l4xx_ll_usb.c ****   uint32_t i;
1062:../Drivers/STM32L4xx_HAL_Driver/Src/stm32l4xx_ll_usb.c **** 
1063:../Drivers/STM32L4xx_HAL_Driver/Src/stm32l4xx_ll_usb.c ****   /* Clear Pending interrupt */
1064:../Drivers/STM32L4xx_HAL_Driver/Src/stm32l4xx_ll_usb.c ****   for (i = 0U; i < 15U; i++)
1065:../Drivers/STM32L4xx_HAL_Driver/Src/stm32l4xx_ll_usb.c ****   {
1066:../Drivers/STM32L4xx_HAL_Driver/Src/stm32l4xx_ll_usb.c ****     USBx_INEP(i)->DIEPINT = 0xFB7FU;
1067:../Drivers/STM32L4xx_HAL_Driver/Src/stm32l4xx_ll_usb.c ****     USBx_OUTEP(i)->DOEPINT = 0xFB7FU;
1068:../Drivers/STM32L4xx_HAL_Driver/Src/stm32l4xx_ll_usb.c ****   }
1069:../Drivers/STM32L4xx_HAL_Driver/Src/stm32l4xx_ll_usb.c **** 
1070:../Drivers/STM32L4xx_HAL_Driver/Src/stm32l4xx_ll_usb.c ****   /* Clear interrupt masks */
1071:../Drivers/STM32L4xx_HAL_Driver/Src/stm32l4xx_ll_usb.c ****   USBx_DEVICE->DIEPMSK  = 0U;
1072:../Drivers/STM32L4xx_HAL_Driver/Src/stm32l4xx_ll_usb.c ****   USBx_DEVICE->DOEPMSK  = 0U;
1073:../Drivers/STM32L4xx_HAL_Driver/Src/stm32l4xx_ll_usb.c ****   USBx_DEVICE->DAINTMSK = 0U;
1074:../Drivers/STM32L4xx_HAL_Driver/Src/stm32l4xx_ll_usb.c **** 
1075:../Drivers/STM32L4xx_HAL_Driver/Src/stm32l4xx_ll_usb.c ****   /* Flush the FIFO */
1076:../Drivers/STM32L4xx_HAL_Driver/Src/stm32l4xx_ll_usb.c ****   ret = USB_FlushRxFifo(USBx);
1077:../Drivers/STM32L4xx_HAL_Driver/Src/stm32l4xx_ll_usb.c ****   if (ret != HAL_OK)
1078:../Drivers/STM32L4xx_HAL_Driver/Src/stm32l4xx_ll_usb.c ****   {
1079:../Drivers/STM32L4xx_HAL_Driver/Src/stm32l4xx_ll_usb.c ****     return ret;
1080:../Drivers/STM32L4xx_HAL_Driver/Src/stm32l4xx_ll_usb.c ****   }
1081:../Drivers/STM32L4xx_HAL_Driver/Src/stm32l4xx_ll_usb.c **** 
1082:../Drivers/STM32L4xx_HAL_Driver/Src/stm32l4xx_ll_usb.c ****   ret = USB_FlushTxFifo(USBx,  0x10U);
1083:../Drivers/STM32L4xx_HAL_Driver/Src/stm32l4xx_ll_usb.c ****   if (ret != HAL_OK)
1084:../Drivers/STM32L4xx_HAL_Driver/Src/stm32l4xx_ll_usb.c ****   {
1085:../Drivers/STM32L4xx_HAL_Driver/Src/stm32l4xx_ll_usb.c ****     return ret;
1086:../Drivers/STM32L4xx_HAL_Driver/Src/stm32l4xx_ll_usb.c ****   }
1087:../Drivers/STM32L4xx_HAL_Driver/Src/stm32l4xx_ll_usb.c **** 
1088:../Drivers/STM32L4xx_HAL_Driver/Src/stm32l4xx_ll_usb.c ****   return ret;
1089:../Drivers/STM32L4xx_HAL_Driver/Src/stm32l4xx_ll_usb.c **** }
1090:../Drivers/STM32L4xx_HAL_Driver/Src/stm32l4xx_ll_usb.c **** 
1091:../Drivers/STM32L4xx_HAL_Driver/Src/stm32l4xx_ll_usb.c **** /**
1092:../Drivers/STM32L4xx_HAL_Driver/Src/stm32l4xx_ll_usb.c ****   * @brief  USB_SetDevAddress : Stop the usb device mode
1093:../Drivers/STM32L4xx_HAL_Driver/Src/stm32l4xx_ll_usb.c ****   * @param  USBx  Selected device
1094:../Drivers/STM32L4xx_HAL_Driver/Src/stm32l4xx_ll_usb.c ****   * @param  address  new device address to be assigned
1095:../Drivers/STM32L4xx_HAL_Driver/Src/stm32l4xx_ll_usb.c ****   *          This parameter can be a value from 0 to 255
1096:../Drivers/STM32L4xx_HAL_Driver/Src/stm32l4xx_ll_usb.c ****   * @retval HAL status
1097:../Drivers/STM32L4xx_HAL_Driver/Src/stm32l4xx_ll_usb.c ****   */
1098:../Drivers/STM32L4xx_HAL_Driver/Src/stm32l4xx_ll_usb.c **** HAL_StatusTypeDef  USB_SetDevAddress(USB_OTG_GlobalTypeDef *USBx, uint8_t address)
1099:../Drivers/STM32L4xx_HAL_Driver/Src/stm32l4xx_ll_usb.c **** {
1100:../Drivers/STM32L4xx_HAL_Driver/Src/stm32l4xx_ll_usb.c ****   uint32_t USBx_BASE = (uint32_t)USBx;
1101:../Drivers/STM32L4xx_HAL_Driver/Src/stm32l4xx_ll_usb.c **** 
1102:../Drivers/STM32L4xx_HAL_Driver/Src/stm32l4xx_ll_usb.c ****   USBx_DEVICE->DCFG &= ~(USB_OTG_DCFG_DAD);
1103:../Drivers/STM32L4xx_HAL_Driver/Src/stm32l4xx_ll_usb.c ****   USBx_DEVICE->DCFG |= ((uint32_t)address << 4) & USB_OTG_DCFG_DAD;
1104:../Drivers/STM32L4xx_HAL_Driver/Src/stm32l4xx_ll_usb.c **** 
1105:../Drivers/STM32L4xx_HAL_Driver/Src/stm32l4xx_ll_usb.c ****   return HAL_OK;
1106:../Drivers/STM32L4xx_HAL_Driver/Src/stm32l4xx_ll_usb.c **** }
1107:../Drivers/STM32L4xx_HAL_Driver/Src/stm32l4xx_ll_usb.c **** 
1108:../Drivers/STM32L4xx_HAL_Driver/Src/stm32l4xx_ll_usb.c **** /**
1109:../Drivers/STM32L4xx_HAL_Driver/Src/stm32l4xx_ll_usb.c ****   * @brief  USB_DevConnect : Connect the USB device by enabling Rpu
1110:../Drivers/STM32L4xx_HAL_Driver/Src/stm32l4xx_ll_usb.c ****   * @param  USBx  Selected device
1111:../Drivers/STM32L4xx_HAL_Driver/Src/stm32l4xx_ll_usb.c ****   * @retval HAL status
1112:../Drivers/STM32L4xx_HAL_Driver/Src/stm32l4xx_ll_usb.c ****   */
1113:../Drivers/STM32L4xx_HAL_Driver/Src/stm32l4xx_ll_usb.c **** HAL_StatusTypeDef  USB_DevConnect(USB_OTG_GlobalTypeDef *USBx)
ARM GAS  /tmp/ccJzOZLR.s 			page 21


1114:../Drivers/STM32L4xx_HAL_Driver/Src/stm32l4xx_ll_usb.c **** {
1115:../Drivers/STM32L4xx_HAL_Driver/Src/stm32l4xx_ll_usb.c ****   uint32_t USBx_BASE = (uint32_t)USBx;
1116:../Drivers/STM32L4xx_HAL_Driver/Src/stm32l4xx_ll_usb.c **** 
1117:../Drivers/STM32L4xx_HAL_Driver/Src/stm32l4xx_ll_usb.c ****   /* In case phy is stopped, ensure to ungate and restore the phy CLK */
1118:../Drivers/STM32L4xx_HAL_Driver/Src/stm32l4xx_ll_usb.c ****   USBx_PCGCCTL &= ~(USB_OTG_PCGCCTL_STOPCLK | USB_OTG_PCGCCTL_GATECLK);
1119:../Drivers/STM32L4xx_HAL_Driver/Src/stm32l4xx_ll_usb.c **** 
1120:../Drivers/STM32L4xx_HAL_Driver/Src/stm32l4xx_ll_usb.c ****   USBx_DEVICE->DCTL &= ~USB_OTG_DCTL_SDIS;
1121:../Drivers/STM32L4xx_HAL_Driver/Src/stm32l4xx_ll_usb.c **** 
1122:../Drivers/STM32L4xx_HAL_Driver/Src/stm32l4xx_ll_usb.c ****   return HAL_OK;
1123:../Drivers/STM32L4xx_HAL_Driver/Src/stm32l4xx_ll_usb.c **** }
1124:../Drivers/STM32L4xx_HAL_Driver/Src/stm32l4xx_ll_usb.c **** 
1125:../Drivers/STM32L4xx_HAL_Driver/Src/stm32l4xx_ll_usb.c **** /**
1126:../Drivers/STM32L4xx_HAL_Driver/Src/stm32l4xx_ll_usb.c ****   * @brief  USB_DevDisconnect : Disconnect the USB device by disabling Rpu
1127:../Drivers/STM32L4xx_HAL_Driver/Src/stm32l4xx_ll_usb.c ****   * @param  USBx  Selected device
1128:../Drivers/STM32L4xx_HAL_Driver/Src/stm32l4xx_ll_usb.c ****   * @retval HAL status
1129:../Drivers/STM32L4xx_HAL_Driver/Src/stm32l4xx_ll_usb.c ****   */
1130:../Drivers/STM32L4xx_HAL_Driver/Src/stm32l4xx_ll_usb.c **** HAL_StatusTypeDef  USB_DevDisconnect(USB_OTG_GlobalTypeDef *USBx)
1131:../Drivers/STM32L4xx_HAL_Driver/Src/stm32l4xx_ll_usb.c **** {
1132:../Drivers/STM32L4xx_HAL_Driver/Src/stm32l4xx_ll_usb.c ****   uint32_t USBx_BASE = (uint32_t)USBx;
1133:../Drivers/STM32L4xx_HAL_Driver/Src/stm32l4xx_ll_usb.c **** 
1134:../Drivers/STM32L4xx_HAL_Driver/Src/stm32l4xx_ll_usb.c ****   /* In case phy is stopped, ensure to ungate and restore the phy CLK */
1135:../Drivers/STM32L4xx_HAL_Driver/Src/stm32l4xx_ll_usb.c ****   USBx_PCGCCTL &= ~(USB_OTG_PCGCCTL_STOPCLK | USB_OTG_PCGCCTL_GATECLK);
1136:../Drivers/STM32L4xx_HAL_Driver/Src/stm32l4xx_ll_usb.c **** 
1137:../Drivers/STM32L4xx_HAL_Driver/Src/stm32l4xx_ll_usb.c ****   USBx_DEVICE->DCTL |= USB_OTG_DCTL_SDIS;
1138:../Drivers/STM32L4xx_HAL_Driver/Src/stm32l4xx_ll_usb.c **** 
1139:../Drivers/STM32L4xx_HAL_Driver/Src/stm32l4xx_ll_usb.c ****   return HAL_OK;
1140:../Drivers/STM32L4xx_HAL_Driver/Src/stm32l4xx_ll_usb.c **** }
1141:../Drivers/STM32L4xx_HAL_Driver/Src/stm32l4xx_ll_usb.c **** 
1142:../Drivers/STM32L4xx_HAL_Driver/Src/stm32l4xx_ll_usb.c **** /**
1143:../Drivers/STM32L4xx_HAL_Driver/Src/stm32l4xx_ll_usb.c ****   * @brief  USB_ReadInterrupts: return the global USB interrupt status
1144:../Drivers/STM32L4xx_HAL_Driver/Src/stm32l4xx_ll_usb.c ****   * @param  USBx  Selected device
1145:../Drivers/STM32L4xx_HAL_Driver/Src/stm32l4xx_ll_usb.c ****   * @retval HAL status
1146:../Drivers/STM32L4xx_HAL_Driver/Src/stm32l4xx_ll_usb.c ****   */
1147:../Drivers/STM32L4xx_HAL_Driver/Src/stm32l4xx_ll_usb.c **** uint32_t  USB_ReadInterrupts(USB_OTG_GlobalTypeDef *USBx)
1148:../Drivers/STM32L4xx_HAL_Driver/Src/stm32l4xx_ll_usb.c **** {
1149:../Drivers/STM32L4xx_HAL_Driver/Src/stm32l4xx_ll_usb.c ****   uint32_t tmpreg;
1150:../Drivers/STM32L4xx_HAL_Driver/Src/stm32l4xx_ll_usb.c **** 
1151:../Drivers/STM32L4xx_HAL_Driver/Src/stm32l4xx_ll_usb.c ****   tmpreg = USBx->GINTSTS;
1152:../Drivers/STM32L4xx_HAL_Driver/Src/stm32l4xx_ll_usb.c ****   tmpreg &= USBx->GINTMSK;
1153:../Drivers/STM32L4xx_HAL_Driver/Src/stm32l4xx_ll_usb.c **** 
1154:../Drivers/STM32L4xx_HAL_Driver/Src/stm32l4xx_ll_usb.c ****   return tmpreg;
1155:../Drivers/STM32L4xx_HAL_Driver/Src/stm32l4xx_ll_usb.c **** }
1156:../Drivers/STM32L4xx_HAL_Driver/Src/stm32l4xx_ll_usb.c **** 
1157:../Drivers/STM32L4xx_HAL_Driver/Src/stm32l4xx_ll_usb.c **** /**
1158:../Drivers/STM32L4xx_HAL_Driver/Src/stm32l4xx_ll_usb.c ****   * @brief  USB_ReadDevAllOutEpInterrupt: return the USB device OUT endpoints interrupt status
1159:../Drivers/STM32L4xx_HAL_Driver/Src/stm32l4xx_ll_usb.c ****   * @param  USBx  Selected device
1160:../Drivers/STM32L4xx_HAL_Driver/Src/stm32l4xx_ll_usb.c ****   * @retval HAL status
1161:../Drivers/STM32L4xx_HAL_Driver/Src/stm32l4xx_ll_usb.c ****   */
1162:../Drivers/STM32L4xx_HAL_Driver/Src/stm32l4xx_ll_usb.c **** uint32_t USB_ReadDevAllOutEpInterrupt(USB_OTG_GlobalTypeDef *USBx)
1163:../Drivers/STM32L4xx_HAL_Driver/Src/stm32l4xx_ll_usb.c **** {
1164:../Drivers/STM32L4xx_HAL_Driver/Src/stm32l4xx_ll_usb.c ****   uint32_t USBx_BASE = (uint32_t)USBx;
1165:../Drivers/STM32L4xx_HAL_Driver/Src/stm32l4xx_ll_usb.c ****   uint32_t tmpreg;
1166:../Drivers/STM32L4xx_HAL_Driver/Src/stm32l4xx_ll_usb.c **** 
1167:../Drivers/STM32L4xx_HAL_Driver/Src/stm32l4xx_ll_usb.c ****   tmpreg  = USBx_DEVICE->DAINT;
1168:../Drivers/STM32L4xx_HAL_Driver/Src/stm32l4xx_ll_usb.c ****   tmpreg &= USBx_DEVICE->DAINTMSK;
1169:../Drivers/STM32L4xx_HAL_Driver/Src/stm32l4xx_ll_usb.c **** 
1170:../Drivers/STM32L4xx_HAL_Driver/Src/stm32l4xx_ll_usb.c ****   return ((tmpreg & 0xffff0000U) >> 16);
ARM GAS  /tmp/ccJzOZLR.s 			page 22


1171:../Drivers/STM32L4xx_HAL_Driver/Src/stm32l4xx_ll_usb.c **** }
1172:../Drivers/STM32L4xx_HAL_Driver/Src/stm32l4xx_ll_usb.c **** 
1173:../Drivers/STM32L4xx_HAL_Driver/Src/stm32l4xx_ll_usb.c **** /**
1174:../Drivers/STM32L4xx_HAL_Driver/Src/stm32l4xx_ll_usb.c ****   * @brief  USB_ReadDevAllInEpInterrupt: return the USB device IN endpoints interrupt status
1175:../Drivers/STM32L4xx_HAL_Driver/Src/stm32l4xx_ll_usb.c ****   * @param  USBx  Selected device
1176:../Drivers/STM32L4xx_HAL_Driver/Src/stm32l4xx_ll_usb.c ****   * @retval HAL status
1177:../Drivers/STM32L4xx_HAL_Driver/Src/stm32l4xx_ll_usb.c ****   */
1178:../Drivers/STM32L4xx_HAL_Driver/Src/stm32l4xx_ll_usb.c **** uint32_t USB_ReadDevAllInEpInterrupt(USB_OTG_GlobalTypeDef *USBx)
1179:../Drivers/STM32L4xx_HAL_Driver/Src/stm32l4xx_ll_usb.c **** {
1180:../Drivers/STM32L4xx_HAL_Driver/Src/stm32l4xx_ll_usb.c ****   uint32_t USBx_BASE = (uint32_t)USBx;
1181:../Drivers/STM32L4xx_HAL_Driver/Src/stm32l4xx_ll_usb.c ****   uint32_t tmpreg;
1182:../Drivers/STM32L4xx_HAL_Driver/Src/stm32l4xx_ll_usb.c **** 
1183:../Drivers/STM32L4xx_HAL_Driver/Src/stm32l4xx_ll_usb.c ****   tmpreg  = USBx_DEVICE->DAINT;
1184:../Drivers/STM32L4xx_HAL_Driver/Src/stm32l4xx_ll_usb.c ****   tmpreg &= USBx_DEVICE->DAINTMSK;
1185:../Drivers/STM32L4xx_HAL_Driver/Src/stm32l4xx_ll_usb.c **** 
1186:../Drivers/STM32L4xx_HAL_Driver/Src/stm32l4xx_ll_usb.c ****   return ((tmpreg & 0xFFFFU));
1187:../Drivers/STM32L4xx_HAL_Driver/Src/stm32l4xx_ll_usb.c **** }
1188:../Drivers/STM32L4xx_HAL_Driver/Src/stm32l4xx_ll_usb.c **** 
1189:../Drivers/STM32L4xx_HAL_Driver/Src/stm32l4xx_ll_usb.c **** /**
1190:../Drivers/STM32L4xx_HAL_Driver/Src/stm32l4xx_ll_usb.c ****   * @brief  Returns Device OUT EP Interrupt register
1191:../Drivers/STM32L4xx_HAL_Driver/Src/stm32l4xx_ll_usb.c ****   * @param  USBx  Selected device
1192:../Drivers/STM32L4xx_HAL_Driver/Src/stm32l4xx_ll_usb.c ****   * @param  epnum  endpoint number
1193:../Drivers/STM32L4xx_HAL_Driver/Src/stm32l4xx_ll_usb.c ****   *          This parameter can be a value from 0 to 15
1194:../Drivers/STM32L4xx_HAL_Driver/Src/stm32l4xx_ll_usb.c ****   * @retval Device OUT EP Interrupt register
1195:../Drivers/STM32L4xx_HAL_Driver/Src/stm32l4xx_ll_usb.c ****   */
1196:../Drivers/STM32L4xx_HAL_Driver/Src/stm32l4xx_ll_usb.c **** uint32_t USB_ReadDevOutEPInterrupt(USB_OTG_GlobalTypeDef *USBx, uint8_t epnum)
1197:../Drivers/STM32L4xx_HAL_Driver/Src/stm32l4xx_ll_usb.c **** {
1198:../Drivers/STM32L4xx_HAL_Driver/Src/stm32l4xx_ll_usb.c ****   uint32_t USBx_BASE = (uint32_t)USBx;
1199:../Drivers/STM32L4xx_HAL_Driver/Src/stm32l4xx_ll_usb.c ****   uint32_t tmpreg;
1200:../Drivers/STM32L4xx_HAL_Driver/Src/stm32l4xx_ll_usb.c **** 
1201:../Drivers/STM32L4xx_HAL_Driver/Src/stm32l4xx_ll_usb.c ****   tmpreg  = USBx_OUTEP((uint32_t)epnum)->DOEPINT;
1202:../Drivers/STM32L4xx_HAL_Driver/Src/stm32l4xx_ll_usb.c ****   tmpreg &= USBx_DEVICE->DOEPMSK;
1203:../Drivers/STM32L4xx_HAL_Driver/Src/stm32l4xx_ll_usb.c **** 
1204:../Drivers/STM32L4xx_HAL_Driver/Src/stm32l4xx_ll_usb.c ****   return tmpreg;
1205:../Drivers/STM32L4xx_HAL_Driver/Src/stm32l4xx_ll_usb.c **** }
1206:../Drivers/STM32L4xx_HAL_Driver/Src/stm32l4xx_ll_usb.c **** 
1207:../Drivers/STM32L4xx_HAL_Driver/Src/stm32l4xx_ll_usb.c **** /**
1208:../Drivers/STM32L4xx_HAL_Driver/Src/stm32l4xx_ll_usb.c ****   * @brief  Returns Device IN EP Interrupt register
1209:../Drivers/STM32L4xx_HAL_Driver/Src/stm32l4xx_ll_usb.c ****   * @param  USBx  Selected device
1210:../Drivers/STM32L4xx_HAL_Driver/Src/stm32l4xx_ll_usb.c ****   * @param  epnum  endpoint number
1211:../Drivers/STM32L4xx_HAL_Driver/Src/stm32l4xx_ll_usb.c ****   *          This parameter can be a value from 0 to 15
1212:../Drivers/STM32L4xx_HAL_Driver/Src/stm32l4xx_ll_usb.c ****   * @retval Device IN EP Interrupt register
1213:../Drivers/STM32L4xx_HAL_Driver/Src/stm32l4xx_ll_usb.c ****   */
1214:../Drivers/STM32L4xx_HAL_Driver/Src/stm32l4xx_ll_usb.c **** uint32_t USB_ReadDevInEPInterrupt(USB_OTG_GlobalTypeDef *USBx, uint8_t epnum)
1215:../Drivers/STM32L4xx_HAL_Driver/Src/stm32l4xx_ll_usb.c **** {
1216:../Drivers/STM32L4xx_HAL_Driver/Src/stm32l4xx_ll_usb.c ****   uint32_t USBx_BASE = (uint32_t)USBx;
1217:../Drivers/STM32L4xx_HAL_Driver/Src/stm32l4xx_ll_usb.c ****   uint32_t tmpreg;
1218:../Drivers/STM32L4xx_HAL_Driver/Src/stm32l4xx_ll_usb.c ****   uint32_t msk;
1219:../Drivers/STM32L4xx_HAL_Driver/Src/stm32l4xx_ll_usb.c ****   uint32_t emp;
1220:../Drivers/STM32L4xx_HAL_Driver/Src/stm32l4xx_ll_usb.c **** 
1221:../Drivers/STM32L4xx_HAL_Driver/Src/stm32l4xx_ll_usb.c ****   msk = USBx_DEVICE->DIEPMSK;
1222:../Drivers/STM32L4xx_HAL_Driver/Src/stm32l4xx_ll_usb.c ****   emp = USBx_DEVICE->DIEPEMPMSK;
1223:../Drivers/STM32L4xx_HAL_Driver/Src/stm32l4xx_ll_usb.c ****   msk |= ((emp >> (epnum & EP_ADDR_MSK)) & 0x1U) << 7;
1224:../Drivers/STM32L4xx_HAL_Driver/Src/stm32l4xx_ll_usb.c ****   tmpreg = USBx_INEP((uint32_t)epnum)->DIEPINT & msk;
1225:../Drivers/STM32L4xx_HAL_Driver/Src/stm32l4xx_ll_usb.c **** 
1226:../Drivers/STM32L4xx_HAL_Driver/Src/stm32l4xx_ll_usb.c ****   return tmpreg;
1227:../Drivers/STM32L4xx_HAL_Driver/Src/stm32l4xx_ll_usb.c **** }
ARM GAS  /tmp/ccJzOZLR.s 			page 23


1228:../Drivers/STM32L4xx_HAL_Driver/Src/stm32l4xx_ll_usb.c **** 
1229:../Drivers/STM32L4xx_HAL_Driver/Src/stm32l4xx_ll_usb.c **** /**
1230:../Drivers/STM32L4xx_HAL_Driver/Src/stm32l4xx_ll_usb.c ****   * @brief  USB_ClearInterrupts: clear a USB interrupt
1231:../Drivers/STM32L4xx_HAL_Driver/Src/stm32l4xx_ll_usb.c ****   * @param  USBx  Selected device
1232:../Drivers/STM32L4xx_HAL_Driver/Src/stm32l4xx_ll_usb.c ****   * @param  interrupt  flag
1233:../Drivers/STM32L4xx_HAL_Driver/Src/stm32l4xx_ll_usb.c ****   * @retval None
1234:../Drivers/STM32L4xx_HAL_Driver/Src/stm32l4xx_ll_usb.c ****   */
1235:../Drivers/STM32L4xx_HAL_Driver/Src/stm32l4xx_ll_usb.c **** void  USB_ClearInterrupts(USB_OTG_GlobalTypeDef *USBx, uint32_t interrupt)
1236:../Drivers/STM32L4xx_HAL_Driver/Src/stm32l4xx_ll_usb.c **** {
1237:../Drivers/STM32L4xx_HAL_Driver/Src/stm32l4xx_ll_usb.c ****   USBx->GINTSTS |= interrupt;
1238:../Drivers/STM32L4xx_HAL_Driver/Src/stm32l4xx_ll_usb.c **** }
1239:../Drivers/STM32L4xx_HAL_Driver/Src/stm32l4xx_ll_usb.c **** 
1240:../Drivers/STM32L4xx_HAL_Driver/Src/stm32l4xx_ll_usb.c **** /**
1241:../Drivers/STM32L4xx_HAL_Driver/Src/stm32l4xx_ll_usb.c ****   * @brief  Returns USB core mode
1242:../Drivers/STM32L4xx_HAL_Driver/Src/stm32l4xx_ll_usb.c ****   * @param  USBx  Selected device
1243:../Drivers/STM32L4xx_HAL_Driver/Src/stm32l4xx_ll_usb.c ****   * @retval return core mode : Host or Device
1244:../Drivers/STM32L4xx_HAL_Driver/Src/stm32l4xx_ll_usb.c ****   *          This parameter can be one of these values:
1245:../Drivers/STM32L4xx_HAL_Driver/Src/stm32l4xx_ll_usb.c ****   *           0 : Host
1246:../Drivers/STM32L4xx_HAL_Driver/Src/stm32l4xx_ll_usb.c ****   *           1 : Device
1247:../Drivers/STM32L4xx_HAL_Driver/Src/stm32l4xx_ll_usb.c ****   */
1248:../Drivers/STM32L4xx_HAL_Driver/Src/stm32l4xx_ll_usb.c **** uint32_t USB_GetMode(USB_OTG_GlobalTypeDef *USBx)
1249:../Drivers/STM32L4xx_HAL_Driver/Src/stm32l4xx_ll_usb.c **** {
1250:../Drivers/STM32L4xx_HAL_Driver/Src/stm32l4xx_ll_usb.c ****   return ((USBx->GINTSTS) & 0x1U);
1251:../Drivers/STM32L4xx_HAL_Driver/Src/stm32l4xx_ll_usb.c **** }
1252:../Drivers/STM32L4xx_HAL_Driver/Src/stm32l4xx_ll_usb.c **** 
1253:../Drivers/STM32L4xx_HAL_Driver/Src/stm32l4xx_ll_usb.c **** /**
1254:../Drivers/STM32L4xx_HAL_Driver/Src/stm32l4xx_ll_usb.c ****   * @brief  Activate EP0 for Setup transactions
1255:../Drivers/STM32L4xx_HAL_Driver/Src/stm32l4xx_ll_usb.c ****   * @param  USBx  Selected device
1256:../Drivers/STM32L4xx_HAL_Driver/Src/stm32l4xx_ll_usb.c ****   * @retval HAL status
1257:../Drivers/STM32L4xx_HAL_Driver/Src/stm32l4xx_ll_usb.c ****   */
1258:../Drivers/STM32L4xx_HAL_Driver/Src/stm32l4xx_ll_usb.c **** HAL_StatusTypeDef  USB_ActivateSetup(USB_OTG_GlobalTypeDef *USBx)
1259:../Drivers/STM32L4xx_HAL_Driver/Src/stm32l4xx_ll_usb.c **** {
1260:../Drivers/STM32L4xx_HAL_Driver/Src/stm32l4xx_ll_usb.c ****   uint32_t USBx_BASE = (uint32_t)USBx;
1261:../Drivers/STM32L4xx_HAL_Driver/Src/stm32l4xx_ll_usb.c **** 
1262:../Drivers/STM32L4xx_HAL_Driver/Src/stm32l4xx_ll_usb.c ****   /* Set the MPS of the IN EP0 to 64 bytes */
1263:../Drivers/STM32L4xx_HAL_Driver/Src/stm32l4xx_ll_usb.c ****   USBx_INEP(0U)->DIEPCTL &= ~USB_OTG_DIEPCTL_MPSIZ;
1264:../Drivers/STM32L4xx_HAL_Driver/Src/stm32l4xx_ll_usb.c **** 
1265:../Drivers/STM32L4xx_HAL_Driver/Src/stm32l4xx_ll_usb.c ****   USBx_DEVICE->DCTL |= USB_OTG_DCTL_CGINAK;
1266:../Drivers/STM32L4xx_HAL_Driver/Src/stm32l4xx_ll_usb.c **** 
1267:../Drivers/STM32L4xx_HAL_Driver/Src/stm32l4xx_ll_usb.c ****   return HAL_OK;
1268:../Drivers/STM32L4xx_HAL_Driver/Src/stm32l4xx_ll_usb.c **** }
1269:../Drivers/STM32L4xx_HAL_Driver/Src/stm32l4xx_ll_usb.c **** 
1270:../Drivers/STM32L4xx_HAL_Driver/Src/stm32l4xx_ll_usb.c **** /**
1271:../Drivers/STM32L4xx_HAL_Driver/Src/stm32l4xx_ll_usb.c ****   * @brief  Prepare the EP0 to start the first control setup
1272:../Drivers/STM32L4xx_HAL_Driver/Src/stm32l4xx_ll_usb.c ****   * @param  USBx  Selected device
1273:../Drivers/STM32L4xx_HAL_Driver/Src/stm32l4xx_ll_usb.c ****   * @param  psetup  pointer to setup packet
1274:../Drivers/STM32L4xx_HAL_Driver/Src/stm32l4xx_ll_usb.c ****   * @retval HAL status
1275:../Drivers/STM32L4xx_HAL_Driver/Src/stm32l4xx_ll_usb.c ****   */
1276:../Drivers/STM32L4xx_HAL_Driver/Src/stm32l4xx_ll_usb.c **** HAL_StatusTypeDef USB_EP0_OutStart(USB_OTG_GlobalTypeDef *USBx, uint8_t *psetup)
1277:../Drivers/STM32L4xx_HAL_Driver/Src/stm32l4xx_ll_usb.c **** {
1278:../Drivers/STM32L4xx_HAL_Driver/Src/stm32l4xx_ll_usb.c ****   uint32_t USBx_BASE = (uint32_t)USBx;
1279:../Drivers/STM32L4xx_HAL_Driver/Src/stm32l4xx_ll_usb.c ****   uint32_t gSNPSiD = *(__IO uint32_t *)(&USBx->CID + 0x1U);
1280:../Drivers/STM32L4xx_HAL_Driver/Src/stm32l4xx_ll_usb.c ****   UNUSED(psetup);
1281:../Drivers/STM32L4xx_HAL_Driver/Src/stm32l4xx_ll_usb.c **** 
1282:../Drivers/STM32L4xx_HAL_Driver/Src/stm32l4xx_ll_usb.c ****   if (gSNPSiD > USB_OTG_CORE_ID_300A)
1283:../Drivers/STM32L4xx_HAL_Driver/Src/stm32l4xx_ll_usb.c ****   {
1284:../Drivers/STM32L4xx_HAL_Driver/Src/stm32l4xx_ll_usb.c ****     if ((USBx_OUTEP(0U)->DOEPCTL & USB_OTG_DOEPCTL_EPENA) == USB_OTG_DOEPCTL_EPENA)
ARM GAS  /tmp/ccJzOZLR.s 			page 24


1285:../Drivers/STM32L4xx_HAL_Driver/Src/stm32l4xx_ll_usb.c ****     {
1286:../Drivers/STM32L4xx_HAL_Driver/Src/stm32l4xx_ll_usb.c ****       return HAL_OK;
1287:../Drivers/STM32L4xx_HAL_Driver/Src/stm32l4xx_ll_usb.c ****     }
1288:../Drivers/STM32L4xx_HAL_Driver/Src/stm32l4xx_ll_usb.c ****   }
1289:../Drivers/STM32L4xx_HAL_Driver/Src/stm32l4xx_ll_usb.c **** 
1290:../Drivers/STM32L4xx_HAL_Driver/Src/stm32l4xx_ll_usb.c ****   USBx_OUTEP(0U)->DOEPTSIZ = 0U;
1291:../Drivers/STM32L4xx_HAL_Driver/Src/stm32l4xx_ll_usb.c ****   USBx_OUTEP(0U)->DOEPTSIZ |= (USB_OTG_DOEPTSIZ_PKTCNT & (1U << 19));
1292:../Drivers/STM32L4xx_HAL_Driver/Src/stm32l4xx_ll_usb.c ****   USBx_OUTEP(0U)->DOEPTSIZ |= (3U * 8U);
1293:../Drivers/STM32L4xx_HAL_Driver/Src/stm32l4xx_ll_usb.c ****   USBx_OUTEP(0U)->DOEPTSIZ |=  USB_OTG_DOEPTSIZ_STUPCNT;
1294:../Drivers/STM32L4xx_HAL_Driver/Src/stm32l4xx_ll_usb.c **** 
1295:../Drivers/STM32L4xx_HAL_Driver/Src/stm32l4xx_ll_usb.c ****   return HAL_OK;
1296:../Drivers/STM32L4xx_HAL_Driver/Src/stm32l4xx_ll_usb.c **** }
1297:../Drivers/STM32L4xx_HAL_Driver/Src/stm32l4xx_ll_usb.c **** 
1298:../Drivers/STM32L4xx_HAL_Driver/Src/stm32l4xx_ll_usb.c **** /**
1299:../Drivers/STM32L4xx_HAL_Driver/Src/stm32l4xx_ll_usb.c ****   * @brief  Reset the USB Core (needed after USB clock settings change)
1300:../Drivers/STM32L4xx_HAL_Driver/Src/stm32l4xx_ll_usb.c ****   * @param  USBx  Selected device
1301:../Drivers/STM32L4xx_HAL_Driver/Src/stm32l4xx_ll_usb.c ****   * @retval HAL status
1302:../Drivers/STM32L4xx_HAL_Driver/Src/stm32l4xx_ll_usb.c ****   */
1303:../Drivers/STM32L4xx_HAL_Driver/Src/stm32l4xx_ll_usb.c **** static HAL_StatusTypeDef USB_CoreReset(USB_OTG_GlobalTypeDef *USBx)
1304:../Drivers/STM32L4xx_HAL_Driver/Src/stm32l4xx_ll_usb.c **** {
  29              		.loc 1 1304 1 view -0
  30              		.cfi_startproc
  31              		@ args = 0, pretend = 0, frame = 8
  32              		@ frame_needed = 0, uses_anonymous_args = 0
  33              		@ link register save eliminated.
  34              		.loc 1 1304 1 is_stmt 0 view .LVU1
  35 0000 82B0     		sub	sp, sp, #8
  36              	.LCFI0:
  37              		.cfi_def_cfa_offset 8
1305:../Drivers/STM32L4xx_HAL_Driver/Src/stm32l4xx_ll_usb.c ****   __IO uint32_t count = 0U;
  38              		.loc 1 1305 3 is_stmt 1 view .LVU2
  39              		.loc 1 1305 17 is_stmt 0 view .LVU3
  40 0002 0023     		movs	r3, #0
  41 0004 0193     		str	r3, [sp, #4]
  42              	.L3:
1306:../Drivers/STM32L4xx_HAL_Driver/Src/stm32l4xx_ll_usb.c **** 
1307:../Drivers/STM32L4xx_HAL_Driver/Src/stm32l4xx_ll_usb.c ****   /* Wait for AHB master IDLE state. */
1308:../Drivers/STM32L4xx_HAL_Driver/Src/stm32l4xx_ll_usb.c ****   do
  43              		.loc 1 1308 3 is_stmt 1 view .LVU4
1309:../Drivers/STM32L4xx_HAL_Driver/Src/stm32l4xx_ll_usb.c ****   {
1310:../Drivers/STM32L4xx_HAL_Driver/Src/stm32l4xx_ll_usb.c ****     count++;
  44              		.loc 1 1310 5 view .LVU5
  45              		.loc 1 1310 10 is_stmt 0 view .LVU6
  46 0006 019B     		ldr	r3, [sp, #4]
  47 0008 0133     		adds	r3, r3, #1
  48 000a 0193     		str	r3, [sp, #4]
1311:../Drivers/STM32L4xx_HAL_Driver/Src/stm32l4xx_ll_usb.c **** 
1312:../Drivers/STM32L4xx_HAL_Driver/Src/stm32l4xx_ll_usb.c ****     if (count > 200000U)
  49              		.loc 1 1312 5 is_stmt 1 view .LVU7
  50              		.loc 1 1312 15 is_stmt 0 view .LVU8
  51 000c 019A     		ldr	r2, [sp, #4]
  52              		.loc 1 1312 8 view .LVU9
  53 000e 0F4B     		ldr	r3, .L8
  54 0010 9A42     		cmp	r2, r3
  55 0012 15D8     		bhi	.L5
1313:../Drivers/STM32L4xx_HAL_Driver/Src/stm32l4xx_ll_usb.c ****     {
1314:../Drivers/STM32L4xx_HAL_Driver/Src/stm32l4xx_ll_usb.c ****       return HAL_TIMEOUT;
ARM GAS  /tmp/ccJzOZLR.s 			page 25


1315:../Drivers/STM32L4xx_HAL_Driver/Src/stm32l4xx_ll_usb.c ****     }
1316:../Drivers/STM32L4xx_HAL_Driver/Src/stm32l4xx_ll_usb.c ****   } while ((USBx->GRSTCTL & USB_OTG_GRSTCTL_AHBIDL) == 0U);
  56              		.loc 1 1316 11 is_stmt 1 view .LVU10
  57              		.loc 1 1316 17 is_stmt 0 view .LVU11
  58 0014 0369     		ldr	r3, [r0, #16]
  59              		.loc 1 1316 3 view .LVU12
  60 0016 002B     		cmp	r3, #0
  61 0018 F5DA     		bge	.L3
1317:../Drivers/STM32L4xx_HAL_Driver/Src/stm32l4xx_ll_usb.c **** 
1318:../Drivers/STM32L4xx_HAL_Driver/Src/stm32l4xx_ll_usb.c ****   /* Core Soft Reset */
1319:../Drivers/STM32L4xx_HAL_Driver/Src/stm32l4xx_ll_usb.c ****   count = 0U;
  62              		.loc 1 1319 3 is_stmt 1 view .LVU13
  63              		.loc 1 1319 9 is_stmt 0 view .LVU14
  64 001a 0023     		movs	r3, #0
  65 001c 0193     		str	r3, [sp, #4]
1320:../Drivers/STM32L4xx_HAL_Driver/Src/stm32l4xx_ll_usb.c ****   USBx->GRSTCTL |= USB_OTG_GRSTCTL_CSRST;
  66              		.loc 1 1320 3 is_stmt 1 view .LVU15
  67              		.loc 1 1320 17 is_stmt 0 view .LVU16
  68 001e 0369     		ldr	r3, [r0, #16]
  69 0020 43F00103 		orr	r3, r3, #1
  70 0024 0361     		str	r3, [r0, #16]
  71              	.L4:
1321:../Drivers/STM32L4xx_HAL_Driver/Src/stm32l4xx_ll_usb.c **** 
1322:../Drivers/STM32L4xx_HAL_Driver/Src/stm32l4xx_ll_usb.c ****   do
  72              		.loc 1 1322 3 is_stmt 1 view .LVU17
1323:../Drivers/STM32L4xx_HAL_Driver/Src/stm32l4xx_ll_usb.c ****   {
1324:../Drivers/STM32L4xx_HAL_Driver/Src/stm32l4xx_ll_usb.c ****     count++;
  73              		.loc 1 1324 5 view .LVU18
  74              		.loc 1 1324 10 is_stmt 0 view .LVU19
  75 0026 019B     		ldr	r3, [sp, #4]
  76 0028 0133     		adds	r3, r3, #1
  77 002a 0193     		str	r3, [sp, #4]
1325:../Drivers/STM32L4xx_HAL_Driver/Src/stm32l4xx_ll_usb.c **** 
1326:../Drivers/STM32L4xx_HAL_Driver/Src/stm32l4xx_ll_usb.c ****     if (count > 200000U)
  78              		.loc 1 1326 5 is_stmt 1 view .LVU20
  79              		.loc 1 1326 15 is_stmt 0 view .LVU21
  80 002c 019A     		ldr	r2, [sp, #4]
  81              		.loc 1 1326 8 view .LVU22
  82 002e 074B     		ldr	r3, .L8
  83 0030 9A42     		cmp	r2, r3
  84 0032 08D8     		bhi	.L6
1327:../Drivers/STM32L4xx_HAL_Driver/Src/stm32l4xx_ll_usb.c ****     {
1328:../Drivers/STM32L4xx_HAL_Driver/Src/stm32l4xx_ll_usb.c ****       return HAL_TIMEOUT;
1329:../Drivers/STM32L4xx_HAL_Driver/Src/stm32l4xx_ll_usb.c ****     }
1330:../Drivers/STM32L4xx_HAL_Driver/Src/stm32l4xx_ll_usb.c ****   } while ((USBx->GRSTCTL & USB_OTG_GRSTCTL_CSRST) == USB_OTG_GRSTCTL_CSRST);
  85              		.loc 1 1330 11 is_stmt 1 view .LVU23
  86              		.loc 1 1330 17 is_stmt 0 view .LVU24
  87 0034 0369     		ldr	r3, [r0, #16]
  88              		.loc 1 1330 3 view .LVU25
  89 0036 13F0010F 		tst	r3, #1
  90 003a F4D1     		bne	.L4
1331:../Drivers/STM32L4xx_HAL_Driver/Src/stm32l4xx_ll_usb.c **** 
1332:../Drivers/STM32L4xx_HAL_Driver/Src/stm32l4xx_ll_usb.c ****   return HAL_OK;
  91              		.loc 1 1332 10 view .LVU26
  92 003c 0020     		movs	r0, #0
  93              	.LVL1:
  94              		.loc 1 1332 10 view .LVU27
ARM GAS  /tmp/ccJzOZLR.s 			page 26


  95 003e 00E0     		b	.L2
  96              	.LVL2:
  97              	.L5:
1314:../Drivers/STM32L4xx_HAL_Driver/Src/stm32l4xx_ll_usb.c ****     }
  98              		.loc 1 1314 14 view .LVU28
  99 0040 0320     		movs	r0, #3
 100              	.LVL3:
 101              	.L2:
1333:../Drivers/STM32L4xx_HAL_Driver/Src/stm32l4xx_ll_usb.c **** }
 102              		.loc 1 1333 1 view .LVU29
 103 0042 02B0     		add	sp, sp, #8
 104              	.LCFI1:
 105              		.cfi_remember_state
 106              		.cfi_def_cfa_offset 0
 107              		@ sp needed
 108 0044 7047     		bx	lr
 109              	.LVL4:
 110              	.L6:
 111              	.LCFI2:
 112              		.cfi_restore_state
1328:../Drivers/STM32L4xx_HAL_Driver/Src/stm32l4xx_ll_usb.c ****     }
 113              		.loc 1 1328 14 view .LVU30
 114 0046 0320     		movs	r0, #3
 115              	.LVL5:
1328:../Drivers/STM32L4xx_HAL_Driver/Src/stm32l4xx_ll_usb.c ****     }
 116              		.loc 1 1328 14 view .LVU31
 117 0048 FBE7     		b	.L2
 118              	.L9:
 119 004a 00BF     		.align	2
 120              	.L8:
 121 004c 400D0300 		.word	200000
 122              		.cfi_endproc
 123              	.LFE166:
 125              		.section	.text.USB_CoreInit,"ax",%progbits
 126              		.align	1
 127              		.global	USB_CoreInit
 128              		.syntax unified
 129              		.thumb
 130              		.thumb_func
 131              		.fpu fpv4-sp-d16
 133              	USB_CoreInit:
 134              	.LVL6:
 135              	.LFB132:
  84:../Drivers/STM32L4xx_HAL_Driver/Src/stm32l4xx_ll_usb.c ****   HAL_StatusTypeDef ret;
 136              		.loc 1 84 1 is_stmt 1 view -0
 137              		.cfi_startproc
 138              		@ args = 56, pretend = 16, frame = 0
 139              		@ frame_needed = 0, uses_anonymous_args = 0
  84:../Drivers/STM32L4xx_HAL_Driver/Src/stm32l4xx_ll_usb.c ****   HAL_StatusTypeDef ret;
 140              		.loc 1 84 1 is_stmt 0 view .LVU33
 141 0000 84B0     		sub	sp, sp, #16
 142              	.LCFI3:
 143              		.cfi_def_cfa_offset 16
 144 0002 10B5     		push	{r4, lr}
 145              	.LCFI4:
 146              		.cfi_def_cfa_offset 24
 147              		.cfi_offset 4, -24
ARM GAS  /tmp/ccJzOZLR.s 			page 27


 148              		.cfi_offset 14, -20
 149 0004 0446     		mov	r4, r0
 150 0006 0DF10C0C 		add	ip, sp, #12
 151 000a 8CE80E00 		stm	ip, {r1, r2, r3}
  85:../Drivers/STM32L4xx_HAL_Driver/Src/stm32l4xx_ll_usb.c **** 
 152              		.loc 1 85 3 is_stmt 1 view .LVU34
  88:../Drivers/STM32L4xx_HAL_Driver/Src/stm32l4xx_ll_usb.c **** 
 153              		.loc 1 88 3 view .LVU35
  88:../Drivers/STM32L4xx_HAL_Driver/Src/stm32l4xx_ll_usb.c **** 
 154              		.loc 1 88 17 is_stmt 0 view .LVU36
 155 000e C368     		ldr	r3, [r0, #12]
 156 0010 43F04003 		orr	r3, r3, #64
 157 0014 C360     		str	r3, [r0, #12]
  91:../Drivers/STM32L4xx_HAL_Driver/Src/stm32l4xx_ll_usb.c **** 
 158              		.loc 1 91 3 is_stmt 1 view .LVU37
  91:../Drivers/STM32L4xx_HAL_Driver/Src/stm32l4xx_ll_usb.c **** 
 159              		.loc 1 91 9 is_stmt 0 view .LVU38
 160 0016 FFF7FEFF 		bl	USB_CoreReset
 161              	.LVL7:
  93:../Drivers/STM32L4xx_HAL_Driver/Src/stm32l4xx_ll_usb.c ****   {
 162              		.loc 1 93 3 is_stmt 1 view .LVU39
  93:../Drivers/STM32L4xx_HAL_Driver/Src/stm32l4xx_ll_usb.c ****   {
 163              		.loc 1 93 10 is_stmt 0 view .LVU40
 164 001a 0C9B     		ldr	r3, [sp, #48]
  93:../Drivers/STM32L4xx_HAL_Driver/Src/stm32l4xx_ll_usb.c ****   {
 165              		.loc 1 93 6 view .LVU41
 166 001c 3BB9     		cbnz	r3, .L11
  96:../Drivers/STM32L4xx_HAL_Driver/Src/stm32l4xx_ll_usb.c ****   }
 167              		.loc 1 96 5 is_stmt 1 view .LVU42
  96:../Drivers/STM32L4xx_HAL_Driver/Src/stm32l4xx_ll_usb.c ****   }
 168              		.loc 1 96 17 is_stmt 0 view .LVU43
 169 001e A36B     		ldr	r3, [r4, #56]
 170 0020 43F48033 		orr	r3, r3, #65536
 171 0024 A363     		str	r3, [r4, #56]
 172              	.L12:
 104:../Drivers/STM32L4xx_HAL_Driver/Src/stm32l4xx_ll_usb.c **** }
 173              		.loc 1 104 3 is_stmt 1 view .LVU44
 105:../Drivers/STM32L4xx_HAL_Driver/Src/stm32l4xx_ll_usb.c **** 
 174              		.loc 1 105 1 is_stmt 0 view .LVU45
 175 0026 BDE81040 		pop	{r4, lr}
 176              	.LCFI5:
 177              		.cfi_remember_state
 178              		.cfi_restore 14
 179              		.cfi_restore 4
 180              		.cfi_def_cfa_offset 16
 181              	.LVL8:
 105:../Drivers/STM32L4xx_HAL_Driver/Src/stm32l4xx_ll_usb.c **** 
 182              		.loc 1 105 1 view .LVU46
 183 002a 04B0     		add	sp, sp, #16
 184              	.LCFI6:
 185              		.cfi_def_cfa_offset 0
 186 002c 7047     		bx	lr
 187              	.LVL9:
 188              	.L11:
 189              	.LCFI7:
 190              		.cfi_restore_state
 101:../Drivers/STM32L4xx_HAL_Driver/Src/stm32l4xx_ll_usb.c ****   }
ARM GAS  /tmp/ccJzOZLR.s 			page 28


 191              		.loc 1 101 5 is_stmt 1 view .LVU47
 101:../Drivers/STM32L4xx_HAL_Driver/Src/stm32l4xx_ll_usb.c ****   }
 192              		.loc 1 101 17 is_stmt 0 view .LVU48
 193 002e A36B     		ldr	r3, [r4, #56]
 194 0030 23F48033 		bic	r3, r3, #65536
 195 0034 A363     		str	r3, [r4, #56]
 196 0036 F6E7     		b	.L12
 197              		.cfi_endproc
 198              	.LFE132:
 200              		.section	.text.USB_SetTurnaroundTime,"ax",%progbits
 201              		.align	1
 202              		.global	USB_SetTurnaroundTime
 203              		.syntax unified
 204              		.thumb
 205              		.thumb_func
 206              		.fpu fpv4-sp-d16
 208              	USB_SetTurnaroundTime:
 209              	.LVL10:
 210              	.LFB133:
 116:../Drivers/STM32L4xx_HAL_Driver/Src/stm32l4xx_ll_usb.c ****   uint32_t UsbTrd;
 211              		.loc 1 116 1 is_stmt 1 view -0
 212              		.cfi_startproc
 213              		@ args = 0, pretend = 0, frame = 0
 214              		@ frame_needed = 0, uses_anonymous_args = 0
 215              		@ link register save eliminated.
 117:../Drivers/STM32L4xx_HAL_Driver/Src/stm32l4xx_ll_usb.c **** 
 216              		.loc 1 117 3 view .LVU50
 123:../Drivers/STM32L4xx_HAL_Driver/Src/stm32l4xx_ll_usb.c ****   {
 217              		.loc 1 123 3 view .LVU51
 123:../Drivers/STM32L4xx_HAL_Driver/Src/stm32l4xx_ll_usb.c ****   {
 218              		.loc 1 123 6 is_stmt 0 view .LVU52
 219 0000 022A     		cmp	r2, #2
 220 0002 0AD0     		beq	.L26
 178:../Drivers/STM32L4xx_HAL_Driver/Src/stm32l4xx_ll_usb.c ****   }
 221              		.loc 1 178 12 view .LVU53
 222 0004 0921     		movs	r1, #9
 223              	.LVL11:
 224              	.L15:
 181:../Drivers/STM32L4xx_HAL_Driver/Src/stm32l4xx_ll_usb.c ****   USBx->GUSBCFG |= (uint32_t)((UsbTrd << 10) & USB_OTG_GUSBCFG_TRDT);
 225              		.loc 1 181 3 is_stmt 1 view .LVU54
 181:../Drivers/STM32L4xx_HAL_Driver/Src/stm32l4xx_ll_usb.c ****   USBx->GUSBCFG |= (uint32_t)((UsbTrd << 10) & USB_OTG_GUSBCFG_TRDT);
 226              		.loc 1 181 17 is_stmt 0 view .LVU55
 227 0006 C268     		ldr	r2, [r0, #12]
 228 0008 22F47052 		bic	r2, r2, #15360
 229 000c C260     		str	r2, [r0, #12]
 182:../Drivers/STM32L4xx_HAL_Driver/Src/stm32l4xx_ll_usb.c **** 
 230              		.loc 1 182 3 is_stmt 1 view .LVU56
 182:../Drivers/STM32L4xx_HAL_Driver/Src/stm32l4xx_ll_usb.c **** 
 231              		.loc 1 182 17 is_stmt 0 view .LVU57
 232 000e C368     		ldr	r3, [r0, #12]
 233 0010 43EA8123 		orr	r3, r3, r1, lsl #10
 234 0014 C360     		str	r3, [r0, #12]
 184:../Drivers/STM32L4xx_HAL_Driver/Src/stm32l4xx_ll_usb.c **** }
 235              		.loc 1 184 3 is_stmt 1 view .LVU58
 185:../Drivers/STM32L4xx_HAL_Driver/Src/stm32l4xx_ll_usb.c **** 
 236              		.loc 1 185 1 is_stmt 0 view .LVU59
 237 0016 0020     		movs	r0, #0
ARM GAS  /tmp/ccJzOZLR.s 			page 29


 238              	.LVL12:
 185:../Drivers/STM32L4xx_HAL_Driver/Src/stm32l4xx_ll_usb.c **** 
 239              		.loc 1 185 1 view .LVU60
 240 0018 7047     		bx	lr
 241              	.LVL13:
 242              	.L26:
 125:../Drivers/STM32L4xx_HAL_Driver/Src/stm32l4xx_ll_usb.c ****     {
 243              		.loc 1 125 5 is_stmt 1 view .LVU61
 125:../Drivers/STM32L4xx_HAL_Driver/Src/stm32l4xx_ll_usb.c ****     {
 244              		.loc 1 125 29 is_stmt 0 view .LVU62
 245 001a 234B     		ldr	r3, .L27
 246 001c 0B44     		add	r3, r3, r1
 125:../Drivers/STM32L4xx_HAL_Driver/Src/stm32l4xx_ll_usb.c ****     {
 247              		.loc 1 125 8 view .LVU63
 248 001e 234A     		ldr	r2, .L27+4
 249              	.LVL14:
 125:../Drivers/STM32L4xx_HAL_Driver/Src/stm32l4xx_ll_usb.c ****     {
 250              		.loc 1 125 8 view .LVU64
 251 0020 9342     		cmp	r3, r2
 252 0022 2FD9     		bls	.L17
 130:../Drivers/STM32L4xx_HAL_Driver/Src/stm32l4xx_ll_usb.c ****     {
 253              		.loc 1 130 10 is_stmt 1 view .LVU65
 130:../Drivers/STM32L4xx_HAL_Driver/Src/stm32l4xx_ll_usb.c ****     {
 254              		.loc 1 130 34 is_stmt 0 view .LVU66
 255 0024 224B     		ldr	r3, .L27+8
 256 0026 0B44     		add	r3, r3, r1
 130:../Drivers/STM32L4xx_HAL_Driver/Src/stm32l4xx_ll_usb.c ****     {
 257              		.loc 1 130 13 view .LVU67
 258 0028 224A     		ldr	r2, .L27+12
 259 002a 9342     		cmp	r3, r2
 260 002c 2CD9     		bls	.L18
 135:../Drivers/STM32L4xx_HAL_Driver/Src/stm32l4xx_ll_usb.c ****     {
 261              		.loc 1 135 10 is_stmt 1 view .LVU68
 135:../Drivers/STM32L4xx_HAL_Driver/Src/stm32l4xx_ll_usb.c ****     {
 262              		.loc 1 135 34 is_stmt 0 view .LVU69
 263 002e A1F57403 		sub	r3, r1, #15990784
 264 0032 A3F51053 		sub	r3, r3, #9216
 135:../Drivers/STM32L4xx_HAL_Driver/Src/stm32l4xx_ll_usb.c ****     {
 265              		.loc 1 135 13 view .LVU70
 266 0036 204A     		ldr	r2, .L27+16
 267 0038 9342     		cmp	r3, r2
 268 003a 27D9     		bls	.L19
 140:../Drivers/STM32L4xx_HAL_Driver/Src/stm32l4xx_ll_usb.c ****     {
 269              		.loc 1 140 10 is_stmt 1 view .LVU71
 140:../Drivers/STM32L4xx_HAL_Driver/Src/stm32l4xx_ll_usb.c ****     {
 270              		.loc 1 140 34 is_stmt 0 view .LVU72
 271 003c A1F18373 		sub	r3, r1, #17170432
 272 0040 A3F5E743 		sub	r3, r3, #29568
 140:../Drivers/STM32L4xx_HAL_Driver/Src/stm32l4xx_ll_usb.c ****     {
 273              		.loc 1 140 13 view .LVU73
 274 0044 1D4A     		ldr	r2, .L27+20
 275 0046 9342     		cmp	r3, r2
 276 0048 22D3     		bcc	.L20
 145:../Drivers/STM32L4xx_HAL_Driver/Src/stm32l4xx_ll_usb.c ****     {
 277              		.loc 1 145 10 is_stmt 1 view .LVU74
 145:../Drivers/STM32L4xx_HAL_Driver/Src/stm32l4xx_ll_usb.c ****     {
 278              		.loc 1 145 34 is_stmt 0 view .LVU75
ARM GAS  /tmp/ccJzOZLR.s 			page 30


 279 004a 1D4B     		ldr	r3, .L27+24
 280 004c 0B44     		add	r3, r3, r1
 145:../Drivers/STM32L4xx_HAL_Driver/Src/stm32l4xx_ll_usb.c ****     {
 281              		.loc 1 145 13 view .LVU76
 282 004e 1D4A     		ldr	r2, .L27+28
 283 0050 9342     		cmp	r3, r2
 284 0052 1FD9     		bls	.L21
 150:../Drivers/STM32L4xx_HAL_Driver/Src/stm32l4xx_ll_usb.c ****     {
 285              		.loc 1 150 10 is_stmt 1 view .LVU77
 150:../Drivers/STM32L4xx_HAL_Driver/Src/stm32l4xx_ll_usb.c ****     {
 286              		.loc 1 150 34 is_stmt 0 view .LVU78
 287 0054 1C4B     		ldr	r3, .L27+32
 288 0056 0B44     		add	r3, r3, r1
 150:../Drivers/STM32L4xx_HAL_Driver/Src/stm32l4xx_ll_usb.c ****     {
 289              		.loc 1 150 13 view .LVU79
 290 0058 1C4A     		ldr	r2, .L27+36
 291 005a 9342     		cmp	r3, r2
 292 005c 1CD3     		bcc	.L22
 155:../Drivers/STM32L4xx_HAL_Driver/Src/stm32l4xx_ll_usb.c ****     {
 293              		.loc 1 155 10 is_stmt 1 view .LVU80
 155:../Drivers/STM32L4xx_HAL_Driver/Src/stm32l4xx_ll_usb.c ****     {
 294              		.loc 1 155 34 is_stmt 0 view .LVU81
 295 005e 1C4B     		ldr	r3, .L27+40
 296 0060 0B44     		add	r3, r3, r1
 155:../Drivers/STM32L4xx_HAL_Driver/Src/stm32l4xx_ll_usb.c ****     {
 297              		.loc 1 155 13 view .LVU82
 298 0062 1C4A     		ldr	r2, .L27+44
 299 0064 9342     		cmp	r3, r2
 300 0066 19D3     		bcc	.L23
 160:../Drivers/STM32L4xx_HAL_Driver/Src/stm32l4xx_ll_usb.c ****     {
 301              		.loc 1 160 10 is_stmt 1 view .LVU83
 160:../Drivers/STM32L4xx_HAL_Driver/Src/stm32l4xx_ll_usb.c ****     {
 302              		.loc 1 160 34 is_stmt 0 view .LVU84
 303 0068 A1F1B773 		sub	r3, r1, #23986176
 304 006c A3F55853 		sub	r3, r3, #13824
 160:../Drivers/STM32L4xx_HAL_Driver/Src/stm32l4xx_ll_usb.c ****     {
 305              		.loc 1 160 13 view .LVU85
 306 0070 194A     		ldr	r2, .L27+48
 307 0072 9342     		cmp	r3, r2
 308 0074 14D3     		bcc	.L24
 165:../Drivers/STM32L4xx_HAL_Driver/Src/stm32l4xx_ll_usb.c ****     {
 309              		.loc 1 165 10 is_stmt 1 view .LVU86
 165:../Drivers/STM32L4xx_HAL_Driver/Src/stm32l4xx_ll_usb.c ****     {
 310              		.loc 1 165 34 is_stmt 0 view .LVU87
 311 0076 194B     		ldr	r3, .L27+52
 312 0078 0B44     		add	r3, r3, r1
 165:../Drivers/STM32L4xx_HAL_Driver/Src/stm32l4xx_ll_usb.c ****     {
 313              		.loc 1 165 13 view .LVU88
 314 007a 194A     		ldr	r2, .L27+56
 315 007c 9342     		cmp	r3, r2
 316 007e 11D2     		bcs	.L25
 168:../Drivers/STM32L4xx_HAL_Driver/Src/stm32l4xx_ll_usb.c ****     }
 317              		.loc 1 168 14 view .LVU89
 318 0080 0721     		movs	r1, #7
 319              	.LVL15:
 168:../Drivers/STM32L4xx_HAL_Driver/Src/stm32l4xx_ll_usb.c ****     }
 320              		.loc 1 168 14 view .LVU90
ARM GAS  /tmp/ccJzOZLR.s 			page 31


 321 0082 C0E7     		b	.L15
 322              	.LVL16:
 323              	.L17:
 128:../Drivers/STM32L4xx_HAL_Driver/Src/stm32l4xx_ll_usb.c ****     }
 324              		.loc 1 128 14 view .LVU91
 325 0084 0F21     		movs	r1, #15
 326              	.LVL17:
 128:../Drivers/STM32L4xx_HAL_Driver/Src/stm32l4xx_ll_usb.c ****     }
 327              		.loc 1 128 14 view .LVU92
 328 0086 BEE7     		b	.L15
 329              	.LVL18:
 330              	.L18:
 133:../Drivers/STM32L4xx_HAL_Driver/Src/stm32l4xx_ll_usb.c ****     }
 331              		.loc 1 133 14 view .LVU93
 332 0088 0E21     		movs	r1, #14
 333              	.LVL19:
 133:../Drivers/STM32L4xx_HAL_Driver/Src/stm32l4xx_ll_usb.c ****     }
 334              		.loc 1 133 14 view .LVU94
 335 008a BCE7     		b	.L15
 336              	.LVL20:
 337              	.L19:
 138:../Drivers/STM32L4xx_HAL_Driver/Src/stm32l4xx_ll_usb.c ****     }
 338              		.loc 1 138 14 view .LVU95
 339 008c 0D21     		movs	r1, #13
 340              	.LVL21:
 138:../Drivers/STM32L4xx_HAL_Driver/Src/stm32l4xx_ll_usb.c ****     }
 341              		.loc 1 138 14 view .LVU96
 342 008e BAE7     		b	.L15
 343              	.LVL22:
 344              	.L20:
 143:../Drivers/STM32L4xx_HAL_Driver/Src/stm32l4xx_ll_usb.c ****     }
 345              		.loc 1 143 14 view .LVU97
 346 0090 0C21     		movs	r1, #12
 347              	.LVL23:
 143:../Drivers/STM32L4xx_HAL_Driver/Src/stm32l4xx_ll_usb.c ****     }
 348              		.loc 1 143 14 view .LVU98
 349 0092 B8E7     		b	.L15
 350              	.LVL24:
 351              	.L21:
 148:../Drivers/STM32L4xx_HAL_Driver/Src/stm32l4xx_ll_usb.c ****     }
 352              		.loc 1 148 14 view .LVU99
 353 0094 0B21     		movs	r1, #11
 354              	.LVL25:
 148:../Drivers/STM32L4xx_HAL_Driver/Src/stm32l4xx_ll_usb.c ****     }
 355              		.loc 1 148 14 view .LVU100
 356 0096 B6E7     		b	.L15
 357              	.LVL26:
 358              	.L22:
 153:../Drivers/STM32L4xx_HAL_Driver/Src/stm32l4xx_ll_usb.c ****     }
 359              		.loc 1 153 14 view .LVU101
 360 0098 0A21     		movs	r1, #10
 361              	.LVL27:
 153:../Drivers/STM32L4xx_HAL_Driver/Src/stm32l4xx_ll_usb.c ****     }
 362              		.loc 1 153 14 view .LVU102
 363 009a B4E7     		b	.L15
 364              	.LVL28:
 365              	.L23:
ARM GAS  /tmp/ccJzOZLR.s 			page 32


 158:../Drivers/STM32L4xx_HAL_Driver/Src/stm32l4xx_ll_usb.c ****     }
 366              		.loc 1 158 14 view .LVU103
 367 009c 0921     		movs	r1, #9
 368              	.LVL29:
 158:../Drivers/STM32L4xx_HAL_Driver/Src/stm32l4xx_ll_usb.c ****     }
 369              		.loc 1 158 14 view .LVU104
 370 009e B2E7     		b	.L15
 371              	.LVL30:
 372              	.L24:
 163:../Drivers/STM32L4xx_HAL_Driver/Src/stm32l4xx_ll_usb.c ****     }
 373              		.loc 1 163 14 view .LVU105
 374 00a0 0821     		movs	r1, #8
 375              	.LVL31:
 163:../Drivers/STM32L4xx_HAL_Driver/Src/stm32l4xx_ll_usb.c ****     }
 376              		.loc 1 163 14 view .LVU106
 377 00a2 B0E7     		b	.L15
 378              	.LVL32:
 379              	.L25:
 173:../Drivers/STM32L4xx_HAL_Driver/Src/stm32l4xx_ll_usb.c ****     }
 380              		.loc 1 173 14 view .LVU107
 381 00a4 0621     		movs	r1, #6
 382              	.LVL33:
 173:../Drivers/STM32L4xx_HAL_Driver/Src/stm32l4xx_ll_usb.c ****     }
 383              		.loc 1 173 14 view .LVU108
 384 00a6 AEE7     		b	.L15
 385              	.L28:
 386              		.align	2
 387              	.L27:
 388 00a8 405327FF 		.word	-14200000
 389 00ac FF340C00 		.word	799999
 390 00b0 401E1BFF 		.word	-15000000
 391 00b4 3F420F00 		.word	999999
 392 00b8 7F4F1200 		.word	1199999
 393 00bc 20D61300 		.word	1300000
 394 00c0 60B6E5FE 		.word	-18500000
 395 00c4 5FE31600 		.word	1499999
 396 00c8 00D3CEFE 		.word	-20000000
 397 00cc 40771B00 		.word	1800000
 398 00d0 C05BB3FE 		.word	-21800000
 399 00d4 C0912100 		.word	2200000
 400 00d8 20753800 		.word	3700000
 401 00dc E05459FE 		.word	-27700000
 402 00e0 E09C4100 		.word	4300000
 403              		.cfi_endproc
 404              	.LFE133:
 406              		.section	.text.USB_EnableGlobalInt,"ax",%progbits
 407              		.align	1
 408              		.global	USB_EnableGlobalInt
 409              		.syntax unified
 410              		.thumb
 411              		.thumb_func
 412              		.fpu fpv4-sp-d16
 414              	USB_EnableGlobalInt:
 415              	.LVL34:
 416              	.LFB134:
 194:../Drivers/STM32L4xx_HAL_Driver/Src/stm32l4xx_ll_usb.c ****   USBx->GAHBCFG |= USB_OTG_GAHBCFG_GINT;
 417              		.loc 1 194 1 is_stmt 1 view -0
ARM GAS  /tmp/ccJzOZLR.s 			page 33


 418              		.cfi_startproc
 419              		@ args = 0, pretend = 0, frame = 0
 420              		@ frame_needed = 0, uses_anonymous_args = 0
 421              		@ link register save eliminated.
 195:../Drivers/STM32L4xx_HAL_Driver/Src/stm32l4xx_ll_usb.c ****   return HAL_OK;
 422              		.loc 1 195 3 view .LVU110
 195:../Drivers/STM32L4xx_HAL_Driver/Src/stm32l4xx_ll_usb.c ****   return HAL_OK;
 423              		.loc 1 195 17 is_stmt 0 view .LVU111
 424 0000 8368     		ldr	r3, [r0, #8]
 425 0002 43F00103 		orr	r3, r3, #1
 426 0006 8360     		str	r3, [r0, #8]
 196:../Drivers/STM32L4xx_HAL_Driver/Src/stm32l4xx_ll_usb.c **** }
 427              		.loc 1 196 3 is_stmt 1 view .LVU112
 197:../Drivers/STM32L4xx_HAL_Driver/Src/stm32l4xx_ll_usb.c **** 
 428              		.loc 1 197 1 is_stmt 0 view .LVU113
 429 0008 0020     		movs	r0, #0
 430              	.LVL35:
 197:../Drivers/STM32L4xx_HAL_Driver/Src/stm32l4xx_ll_usb.c **** 
 431              		.loc 1 197 1 view .LVU114
 432 000a 7047     		bx	lr
 433              		.cfi_endproc
 434              	.LFE134:
 436              		.section	.text.USB_DisableGlobalInt,"ax",%progbits
 437              		.align	1
 438              		.global	USB_DisableGlobalInt
 439              		.syntax unified
 440              		.thumb
 441              		.thumb_func
 442              		.fpu fpv4-sp-d16
 444              	USB_DisableGlobalInt:
 445              	.LVL36:
 446              	.LFB135:
 206:../Drivers/STM32L4xx_HAL_Driver/Src/stm32l4xx_ll_usb.c ****   USBx->GAHBCFG &= ~USB_OTG_GAHBCFG_GINT;
 447              		.loc 1 206 1 is_stmt 1 view -0
 448              		.cfi_startproc
 449              		@ args = 0, pretend = 0, frame = 0
 450              		@ frame_needed = 0, uses_anonymous_args = 0
 451              		@ link register save eliminated.
 207:../Drivers/STM32L4xx_HAL_Driver/Src/stm32l4xx_ll_usb.c ****   return HAL_OK;
 452              		.loc 1 207 3 view .LVU116
 207:../Drivers/STM32L4xx_HAL_Driver/Src/stm32l4xx_ll_usb.c ****   return HAL_OK;
 453              		.loc 1 207 17 is_stmt 0 view .LVU117
 454 0000 8368     		ldr	r3, [r0, #8]
 455 0002 23F00103 		bic	r3, r3, #1
 456 0006 8360     		str	r3, [r0, #8]
 208:../Drivers/STM32L4xx_HAL_Driver/Src/stm32l4xx_ll_usb.c **** }
 457              		.loc 1 208 3 is_stmt 1 view .LVU118
 209:../Drivers/STM32L4xx_HAL_Driver/Src/stm32l4xx_ll_usb.c **** 
 458              		.loc 1 209 1 is_stmt 0 view .LVU119
 459 0008 0020     		movs	r0, #0
 460              	.LVL37:
 209:../Drivers/STM32L4xx_HAL_Driver/Src/stm32l4xx_ll_usb.c **** 
 461              		.loc 1 209 1 view .LVU120
 462 000a 7047     		bx	lr
 463              		.cfi_endproc
 464              	.LFE135:
 466              		.section	.text.USB_FlushTxFifo,"ax",%progbits
ARM GAS  /tmp/ccJzOZLR.s 			page 34


 467              		.align	1
 468              		.global	USB_FlushTxFifo
 469              		.syntax unified
 470              		.thumb
 471              		.thumb_func
 472              		.fpu fpv4-sp-d16
 474              	USB_FlushTxFifo:
 475              	.LVL38:
 476              	.LFB138:
 404:../Drivers/STM32L4xx_HAL_Driver/Src/stm32l4xx_ll_usb.c ****   __IO uint32_t count = 0U;
 477              		.loc 1 404 1 is_stmt 1 view -0
 478              		.cfi_startproc
 479              		@ args = 0, pretend = 0, frame = 8
 480              		@ frame_needed = 0, uses_anonymous_args = 0
 481              		@ link register save eliminated.
 404:../Drivers/STM32L4xx_HAL_Driver/Src/stm32l4xx_ll_usb.c ****   __IO uint32_t count = 0U;
 482              		.loc 1 404 1 is_stmt 0 view .LVU122
 483 0000 82B0     		sub	sp, sp, #8
 484              	.LCFI8:
 485              		.cfi_def_cfa_offset 8
 405:../Drivers/STM32L4xx_HAL_Driver/Src/stm32l4xx_ll_usb.c **** 
 486              		.loc 1 405 3 is_stmt 1 view .LVU123
 405:../Drivers/STM32L4xx_HAL_Driver/Src/stm32l4xx_ll_usb.c **** 
 487              		.loc 1 405 17 is_stmt 0 view .LVU124
 488 0002 0023     		movs	r3, #0
 489 0004 0193     		str	r3, [sp, #4]
 490              	.L33:
 408:../Drivers/STM32L4xx_HAL_Driver/Src/stm32l4xx_ll_usb.c ****   {
 491              		.loc 1 408 3 is_stmt 1 view .LVU125
 410:../Drivers/STM32L4xx_HAL_Driver/Src/stm32l4xx_ll_usb.c **** 
 492              		.loc 1 410 5 view .LVU126
 410:../Drivers/STM32L4xx_HAL_Driver/Src/stm32l4xx_ll_usb.c **** 
 493              		.loc 1 410 10 is_stmt 0 view .LVU127
 494 0006 019B     		ldr	r3, [sp, #4]
 495 0008 0133     		adds	r3, r3, #1
 496 000a 0193     		str	r3, [sp, #4]
 412:../Drivers/STM32L4xx_HAL_Driver/Src/stm32l4xx_ll_usb.c ****     {
 497              		.loc 1 412 5 is_stmt 1 view .LVU128
 412:../Drivers/STM32L4xx_HAL_Driver/Src/stm32l4xx_ll_usb.c ****     {
 498              		.loc 1 412 15 is_stmt 0 view .LVU129
 499 000c 019A     		ldr	r2, [sp, #4]
 412:../Drivers/STM32L4xx_HAL_Driver/Src/stm32l4xx_ll_usb.c ****     {
 500              		.loc 1 412 8 view .LVU130
 501 000e 0F4B     		ldr	r3, .L38
 502 0010 9A42     		cmp	r2, r3
 503 0012 15D8     		bhi	.L35
 416:../Drivers/STM32L4xx_HAL_Driver/Src/stm32l4xx_ll_usb.c **** 
 504              		.loc 1 416 11 is_stmt 1 view .LVU131
 416:../Drivers/STM32L4xx_HAL_Driver/Src/stm32l4xx_ll_usb.c **** 
 505              		.loc 1 416 17 is_stmt 0 view .LVU132
 506 0014 0369     		ldr	r3, [r0, #16]
 416:../Drivers/STM32L4xx_HAL_Driver/Src/stm32l4xx_ll_usb.c **** 
 507              		.loc 1 416 3 view .LVU133
 508 0016 002B     		cmp	r3, #0
 509 0018 F5DA     		bge	.L33
 419:../Drivers/STM32L4xx_HAL_Driver/Src/stm32l4xx_ll_usb.c ****   USBx->GRSTCTL = (USB_OTG_GRSTCTL_TXFFLSH | (num << 6));
 510              		.loc 1 419 3 is_stmt 1 view .LVU134
ARM GAS  /tmp/ccJzOZLR.s 			page 35


 419:../Drivers/STM32L4xx_HAL_Driver/Src/stm32l4xx_ll_usb.c ****   USBx->GRSTCTL = (USB_OTG_GRSTCTL_TXFFLSH | (num << 6));
 511              		.loc 1 419 9 is_stmt 0 view .LVU135
 512 001a 0023     		movs	r3, #0
 513 001c 0193     		str	r3, [sp, #4]
 420:../Drivers/STM32L4xx_HAL_Driver/Src/stm32l4xx_ll_usb.c **** 
 514              		.loc 1 420 3 is_stmt 1 view .LVU136
 420:../Drivers/STM32L4xx_HAL_Driver/Src/stm32l4xx_ll_usb.c **** 
 515              		.loc 1 420 51 is_stmt 0 view .LVU137
 516 001e 8901     		lsls	r1, r1, #6
 517              	.LVL39:
 420:../Drivers/STM32L4xx_HAL_Driver/Src/stm32l4xx_ll_usb.c **** 
 518              		.loc 1 420 44 view .LVU138
 519 0020 41F02001 		orr	r1, r1, #32
 420:../Drivers/STM32L4xx_HAL_Driver/Src/stm32l4xx_ll_usb.c **** 
 520              		.loc 1 420 17 view .LVU139
 521 0024 0161     		str	r1, [r0, #16]
 522              	.L34:
 422:../Drivers/STM32L4xx_HAL_Driver/Src/stm32l4xx_ll_usb.c ****   {
 523              		.loc 1 422 3 is_stmt 1 view .LVU140
 424:../Drivers/STM32L4xx_HAL_Driver/Src/stm32l4xx_ll_usb.c **** 
 524              		.loc 1 424 5 view .LVU141
 424:../Drivers/STM32L4xx_HAL_Driver/Src/stm32l4xx_ll_usb.c **** 
 525              		.loc 1 424 10 is_stmt 0 view .LVU142
 526 0026 019B     		ldr	r3, [sp, #4]
 527 0028 0133     		adds	r3, r3, #1
 528 002a 0193     		str	r3, [sp, #4]
 426:../Drivers/STM32L4xx_HAL_Driver/Src/stm32l4xx_ll_usb.c ****     {
 529              		.loc 1 426 5 is_stmt 1 view .LVU143
 426:../Drivers/STM32L4xx_HAL_Driver/Src/stm32l4xx_ll_usb.c ****     {
 530              		.loc 1 426 15 is_stmt 0 view .LVU144
 531 002c 019A     		ldr	r2, [sp, #4]
 426:../Drivers/STM32L4xx_HAL_Driver/Src/stm32l4xx_ll_usb.c ****     {
 532              		.loc 1 426 8 view .LVU145
 533 002e 074B     		ldr	r3, .L38
 534 0030 9A42     		cmp	r2, r3
 535 0032 08D8     		bhi	.L36
 430:../Drivers/STM32L4xx_HAL_Driver/Src/stm32l4xx_ll_usb.c **** 
 536              		.loc 1 430 11 is_stmt 1 view .LVU146
 430:../Drivers/STM32L4xx_HAL_Driver/Src/stm32l4xx_ll_usb.c **** 
 537              		.loc 1 430 17 is_stmt 0 view .LVU147
 538 0034 0369     		ldr	r3, [r0, #16]
 430:../Drivers/STM32L4xx_HAL_Driver/Src/stm32l4xx_ll_usb.c **** 
 539              		.loc 1 430 3 view .LVU148
 540 0036 13F0200F 		tst	r3, #32
 541 003a F4D1     		bne	.L34
 432:../Drivers/STM32L4xx_HAL_Driver/Src/stm32l4xx_ll_usb.c **** }
 542              		.loc 1 432 10 view .LVU149
 543 003c 0020     		movs	r0, #0
 544              	.LVL40:
 432:../Drivers/STM32L4xx_HAL_Driver/Src/stm32l4xx_ll_usb.c **** }
 545              		.loc 1 432 10 view .LVU150
 546 003e 00E0     		b	.L32
 547              	.LVL41:
 548              	.L35:
 414:../Drivers/STM32L4xx_HAL_Driver/Src/stm32l4xx_ll_usb.c ****     }
 549              		.loc 1 414 14 view .LVU151
 550 0040 0320     		movs	r0, #3
ARM GAS  /tmp/ccJzOZLR.s 			page 36


 551              	.LVL42:
 552              	.L32:
 433:../Drivers/STM32L4xx_HAL_Driver/Src/stm32l4xx_ll_usb.c **** 
 553              		.loc 1 433 1 view .LVU152
 554 0042 02B0     		add	sp, sp, #8
 555              	.LCFI9:
 556              		.cfi_remember_state
 557              		.cfi_def_cfa_offset 0
 558              		@ sp needed
 559 0044 7047     		bx	lr
 560              	.LVL43:
 561              	.L36:
 562              	.LCFI10:
 563              		.cfi_restore_state
 428:../Drivers/STM32L4xx_HAL_Driver/Src/stm32l4xx_ll_usb.c ****     }
 564              		.loc 1 428 14 view .LVU153
 565 0046 0320     		movs	r0, #3
 566              	.LVL44:
 428:../Drivers/STM32L4xx_HAL_Driver/Src/stm32l4xx_ll_usb.c ****     }
 567              		.loc 1 428 14 view .LVU154
 568 0048 FBE7     		b	.L32
 569              	.L39:
 570 004a 00BF     		.align	2
 571              	.L38:
 572 004c 400D0300 		.word	200000
 573              		.cfi_endproc
 574              	.LFE138:
 576              		.section	.text.USB_FlushRxFifo,"ax",%progbits
 577              		.align	1
 578              		.global	USB_FlushRxFifo
 579              		.syntax unified
 580              		.thumb
 581              		.thumb_func
 582              		.fpu fpv4-sp-d16
 584              	USB_FlushRxFifo:
 585              	.LVL45:
 586              	.LFB139:
 441:../Drivers/STM32L4xx_HAL_Driver/Src/stm32l4xx_ll_usb.c ****   __IO uint32_t count = 0U;
 587              		.loc 1 441 1 is_stmt 1 view -0
 588              		.cfi_startproc
 589              		@ args = 0, pretend = 0, frame = 8
 590              		@ frame_needed = 0, uses_anonymous_args = 0
 591              		@ link register save eliminated.
 441:../Drivers/STM32L4xx_HAL_Driver/Src/stm32l4xx_ll_usb.c ****   __IO uint32_t count = 0U;
 592              		.loc 1 441 1 is_stmt 0 view .LVU156
 593 0000 82B0     		sub	sp, sp, #8
 594              	.LCFI11:
 595              		.cfi_def_cfa_offset 8
 442:../Drivers/STM32L4xx_HAL_Driver/Src/stm32l4xx_ll_usb.c **** 
 596              		.loc 1 442 3 is_stmt 1 view .LVU157
 442:../Drivers/STM32L4xx_HAL_Driver/Src/stm32l4xx_ll_usb.c **** 
 597              		.loc 1 442 17 is_stmt 0 view .LVU158
 598 0002 0023     		movs	r3, #0
 599 0004 0193     		str	r3, [sp, #4]
 600              	.L42:
 445:../Drivers/STM32L4xx_HAL_Driver/Src/stm32l4xx_ll_usb.c ****   {
 601              		.loc 1 445 3 is_stmt 1 view .LVU159
ARM GAS  /tmp/ccJzOZLR.s 			page 37


 447:../Drivers/STM32L4xx_HAL_Driver/Src/stm32l4xx_ll_usb.c **** 
 602              		.loc 1 447 5 view .LVU160
 447:../Drivers/STM32L4xx_HAL_Driver/Src/stm32l4xx_ll_usb.c **** 
 603              		.loc 1 447 10 is_stmt 0 view .LVU161
 604 0006 019B     		ldr	r3, [sp, #4]
 605 0008 0133     		adds	r3, r3, #1
 606 000a 0193     		str	r3, [sp, #4]
 449:../Drivers/STM32L4xx_HAL_Driver/Src/stm32l4xx_ll_usb.c ****     {
 607              		.loc 1 449 5 is_stmt 1 view .LVU162
 449:../Drivers/STM32L4xx_HAL_Driver/Src/stm32l4xx_ll_usb.c ****     {
 608              		.loc 1 449 15 is_stmt 0 view .LVU163
 609 000c 019A     		ldr	r2, [sp, #4]
 449:../Drivers/STM32L4xx_HAL_Driver/Src/stm32l4xx_ll_usb.c ****     {
 610              		.loc 1 449 8 view .LVU164
 611 000e 0E4B     		ldr	r3, .L47
 612 0010 9A42     		cmp	r2, r3
 613 0012 13D8     		bhi	.L44
 453:../Drivers/STM32L4xx_HAL_Driver/Src/stm32l4xx_ll_usb.c **** 
 614              		.loc 1 453 11 is_stmt 1 view .LVU165
 453:../Drivers/STM32L4xx_HAL_Driver/Src/stm32l4xx_ll_usb.c **** 
 615              		.loc 1 453 17 is_stmt 0 view .LVU166
 616 0014 0369     		ldr	r3, [r0, #16]
 453:../Drivers/STM32L4xx_HAL_Driver/Src/stm32l4xx_ll_usb.c **** 
 617              		.loc 1 453 3 view .LVU167
 618 0016 002B     		cmp	r3, #0
 619 0018 F5DA     		bge	.L42
 456:../Drivers/STM32L4xx_HAL_Driver/Src/stm32l4xx_ll_usb.c ****   USBx->GRSTCTL = USB_OTG_GRSTCTL_RXFFLSH;
 620              		.loc 1 456 3 is_stmt 1 view .LVU168
 456:../Drivers/STM32L4xx_HAL_Driver/Src/stm32l4xx_ll_usb.c ****   USBx->GRSTCTL = USB_OTG_GRSTCTL_RXFFLSH;
 621              		.loc 1 456 9 is_stmt 0 view .LVU169
 622 001a 0023     		movs	r3, #0
 623 001c 0193     		str	r3, [sp, #4]
 457:../Drivers/STM32L4xx_HAL_Driver/Src/stm32l4xx_ll_usb.c **** 
 624              		.loc 1 457 3 is_stmt 1 view .LVU170
 457:../Drivers/STM32L4xx_HAL_Driver/Src/stm32l4xx_ll_usb.c **** 
 625              		.loc 1 457 17 is_stmt 0 view .LVU171
 626 001e 1023     		movs	r3, #16
 627 0020 0361     		str	r3, [r0, #16]
 628              	.L43:
 459:../Drivers/STM32L4xx_HAL_Driver/Src/stm32l4xx_ll_usb.c ****   {
 629              		.loc 1 459 3 is_stmt 1 view .LVU172
 461:../Drivers/STM32L4xx_HAL_Driver/Src/stm32l4xx_ll_usb.c **** 
 630              		.loc 1 461 5 view .LVU173
 461:../Drivers/STM32L4xx_HAL_Driver/Src/stm32l4xx_ll_usb.c **** 
 631              		.loc 1 461 10 is_stmt 0 view .LVU174
 632 0022 019B     		ldr	r3, [sp, #4]
 633 0024 0133     		adds	r3, r3, #1
 634 0026 0193     		str	r3, [sp, #4]
 463:../Drivers/STM32L4xx_HAL_Driver/Src/stm32l4xx_ll_usb.c ****     {
 635              		.loc 1 463 5 is_stmt 1 view .LVU175
 463:../Drivers/STM32L4xx_HAL_Driver/Src/stm32l4xx_ll_usb.c ****     {
 636              		.loc 1 463 15 is_stmt 0 view .LVU176
 637 0028 019A     		ldr	r2, [sp, #4]
 463:../Drivers/STM32L4xx_HAL_Driver/Src/stm32l4xx_ll_usb.c ****     {
 638              		.loc 1 463 8 view .LVU177
 639 002a 074B     		ldr	r3, .L47
 640 002c 9A42     		cmp	r2, r3
ARM GAS  /tmp/ccJzOZLR.s 			page 38


 641 002e 08D8     		bhi	.L45
 467:../Drivers/STM32L4xx_HAL_Driver/Src/stm32l4xx_ll_usb.c **** 
 642              		.loc 1 467 11 is_stmt 1 view .LVU178
 467:../Drivers/STM32L4xx_HAL_Driver/Src/stm32l4xx_ll_usb.c **** 
 643              		.loc 1 467 17 is_stmt 0 view .LVU179
 644 0030 0369     		ldr	r3, [r0, #16]
 467:../Drivers/STM32L4xx_HAL_Driver/Src/stm32l4xx_ll_usb.c **** 
 645              		.loc 1 467 3 view .LVU180
 646 0032 13F0100F 		tst	r3, #16
 647 0036 F4D1     		bne	.L43
 469:../Drivers/STM32L4xx_HAL_Driver/Src/stm32l4xx_ll_usb.c **** }
 648              		.loc 1 469 10 view .LVU181
 649 0038 0020     		movs	r0, #0
 650              	.LVL46:
 469:../Drivers/STM32L4xx_HAL_Driver/Src/stm32l4xx_ll_usb.c **** }
 651              		.loc 1 469 10 view .LVU182
 652 003a 00E0     		b	.L41
 653              	.LVL47:
 654              	.L44:
 451:../Drivers/STM32L4xx_HAL_Driver/Src/stm32l4xx_ll_usb.c ****     }
 655              		.loc 1 451 14 view .LVU183
 656 003c 0320     		movs	r0, #3
 657              	.LVL48:
 658              	.L41:
 470:../Drivers/STM32L4xx_HAL_Driver/Src/stm32l4xx_ll_usb.c **** 
 659              		.loc 1 470 1 view .LVU184
 660 003e 02B0     		add	sp, sp, #8
 661              	.LCFI12:
 662              		.cfi_remember_state
 663              		.cfi_def_cfa_offset 0
 664              		@ sp needed
 665 0040 7047     		bx	lr
 666              	.LVL49:
 667              	.L45:
 668              	.LCFI13:
 669              		.cfi_restore_state
 465:../Drivers/STM32L4xx_HAL_Driver/Src/stm32l4xx_ll_usb.c ****     }
 670              		.loc 1 465 14 view .LVU185
 671 0042 0320     		movs	r0, #3
 672              	.LVL50:
 465:../Drivers/STM32L4xx_HAL_Driver/Src/stm32l4xx_ll_usb.c ****     }
 673              		.loc 1 465 14 view .LVU186
 674 0044 FBE7     		b	.L41
 675              	.L48:
 676 0046 00BF     		.align	2
 677              	.L47:
 678 0048 400D0300 		.word	200000
 679              		.cfi_endproc
 680              	.LFE139:
 682              		.section	.text.USB_SetDevSpeed,"ax",%progbits
 683              		.align	1
 684              		.global	USB_SetDevSpeed
 685              		.syntax unified
 686              		.thumb
 687              		.thumb_func
 688              		.fpu fpv4-sp-d16
 690              	USB_SetDevSpeed:
ARM GAS  /tmp/ccJzOZLR.s 			page 39


 691              	.LVL51:
 692              	.LFB140:
 482:../Drivers/STM32L4xx_HAL_Driver/Src/stm32l4xx_ll_usb.c ****   uint32_t USBx_BASE = (uint32_t)USBx;
 693              		.loc 1 482 1 is_stmt 1 view -0
 694              		.cfi_startproc
 695              		@ args = 0, pretend = 0, frame = 0
 696              		@ frame_needed = 0, uses_anonymous_args = 0
 697              		@ link register save eliminated.
 483:../Drivers/STM32L4xx_HAL_Driver/Src/stm32l4xx_ll_usb.c **** 
 698              		.loc 1 483 3 view .LVU188
 485:../Drivers/STM32L4xx_HAL_Driver/Src/stm32l4xx_ll_usb.c ****   return HAL_OK;
 699              		.loc 1 485 3 view .LVU189
 485:../Drivers/STM32L4xx_HAL_Driver/Src/stm32l4xx_ll_usb.c ****   return HAL_OK;
 700              		.loc 1 485 21 is_stmt 0 view .LVU190
 701 0000 D0F80038 		ldr	r3, [r0, #2048]
 702 0004 1943     		orrs	r1, r1, r3
 703              	.LVL52:
 485:../Drivers/STM32L4xx_HAL_Driver/Src/stm32l4xx_ll_usb.c ****   return HAL_OK;
 704              		.loc 1 485 21 view .LVU191
 705 0006 C0F80018 		str	r1, [r0, #2048]
 486:../Drivers/STM32L4xx_HAL_Driver/Src/stm32l4xx_ll_usb.c **** }
 706              		.loc 1 486 3 is_stmt 1 view .LVU192
 487:../Drivers/STM32L4xx_HAL_Driver/Src/stm32l4xx_ll_usb.c **** 
 707              		.loc 1 487 1 is_stmt 0 view .LVU193
 708 000a 0020     		movs	r0, #0
 709              	.LVL53:
 487:../Drivers/STM32L4xx_HAL_Driver/Src/stm32l4xx_ll_usb.c **** 
 710              		.loc 1 487 1 view .LVU194
 711 000c 7047     		bx	lr
 712              		.cfi_endproc
 713              	.LFE140:
 715              		.section	.text.USB_DevInit,"ax",%progbits
 716              		.align	1
 717              		.global	USB_DevInit
 718              		.syntax unified
 719              		.thumb
 720              		.thumb_func
 721              		.fpu fpv4-sp-d16
 723              	USB_DevInit:
 724              	.LVL54:
 725              	.LFB137:
 268:../Drivers/STM32L4xx_HAL_Driver/Src/stm32l4xx_ll_usb.c ****   HAL_StatusTypeDef ret = HAL_OK;
 726              		.loc 1 268 1 is_stmt 1 view -0
 727              		.cfi_startproc
 728              		@ args = 56, pretend = 16, frame = 0
 729              		@ frame_needed = 0, uses_anonymous_args = 0
 268:../Drivers/STM32L4xx_HAL_Driver/Src/stm32l4xx_ll_usb.c ****   HAL_StatusTypeDef ret = HAL_OK;
 730              		.loc 1 268 1 is_stmt 0 view .LVU196
 731 0000 84B0     		sub	sp, sp, #16
 732              	.LCFI14:
 733              		.cfi_def_cfa_offset 16
 734 0002 2DE9F041 		push	{r4, r5, r6, r7, r8, lr}
 735              	.LCFI15:
 736              		.cfi_def_cfa_offset 40
 737              		.cfi_offset 4, -40
 738              		.cfi_offset 5, -36
 739              		.cfi_offset 6, -32
ARM GAS  /tmp/ccJzOZLR.s 			page 40


 740              		.cfi_offset 7, -28
 741              		.cfi_offset 8, -24
 742              		.cfi_offset 14, -20
 743 0006 0446     		mov	r4, r0
 744 0008 07A8     		add	r0, sp, #28
 745 000a 80E80E00 		stm	r0, {r1, r2, r3}
 269:../Drivers/STM32L4xx_HAL_Driver/Src/stm32l4xx_ll_usb.c ****   uint32_t USBx_BASE = (uint32_t)USBx;
 746              		.loc 1 269 3 is_stmt 1 view .LVU197
 747              	.LVL55:
 270:../Drivers/STM32L4xx_HAL_Driver/Src/stm32l4xx_ll_usb.c ****   uint32_t i;
 748              		.loc 1 270 3 view .LVU198
 271:../Drivers/STM32L4xx_HAL_Driver/Src/stm32l4xx_ll_usb.c **** 
 749              		.loc 1 271 3 view .LVU199
 273:../Drivers/STM32L4xx_HAL_Driver/Src/stm32l4xx_ll_usb.c ****   {
 750              		.loc 1 273 3 view .LVU200
 273:../Drivers/STM32L4xx_HAL_Driver/Src/stm32l4xx_ll_usb.c ****   {
 751              		.loc 1 273 10 is_stmt 0 view .LVU201
 752 000e 0023     		movs	r3, #0
 273:../Drivers/STM32L4xx_HAL_Driver/Src/stm32l4xx_ll_usb.c ****   {
 753              		.loc 1 273 3 view .LVU202
 754 0010 06E0     		b	.L51
 755              	.LVL56:
 756              	.L52:
 275:../Drivers/STM32L4xx_HAL_Driver/Src/stm32l4xx_ll_usb.c ****   }
 757              		.loc 1 275 5 is_stmt 1 discriminator 3 view .LVU203
 275:../Drivers/STM32L4xx_HAL_Driver/Src/stm32l4xx_ll_usb.c ****   }
 758              		.loc 1 275 22 is_stmt 0 discriminator 3 view .LVU204
 759 0012 03F14002 		add	r2, r3, #64
 760 0016 04EB8202 		add	r2, r4, r2, lsl #2
 761 001a 0021     		movs	r1, #0
 762 001c 5160     		str	r1, [r2, #4]
 273:../Drivers/STM32L4xx_HAL_Driver/Src/stm32l4xx_ll_usb.c ****   {
 763              		.loc 1 273 25 is_stmt 1 discriminator 3 view .LVU205
 273:../Drivers/STM32L4xx_HAL_Driver/Src/stm32l4xx_ll_usb.c ****   {
 764              		.loc 1 273 26 is_stmt 0 discriminator 3 view .LVU206
 765 001e 0133     		adds	r3, r3, #1
 766              	.LVL57:
 767              	.L51:
 273:../Drivers/STM32L4xx_HAL_Driver/Src/stm32l4xx_ll_usb.c ****   {
 768              		.loc 1 273 16 is_stmt 1 discriminator 1 view .LVU207
 273:../Drivers/STM32L4xx_HAL_Driver/Src/stm32l4xx_ll_usb.c ****   {
 769              		.loc 1 273 3 is_stmt 0 discriminator 1 view .LVU208
 770 0020 0E2B     		cmp	r3, #14
 771 0022 F6D9     		bls	.L52
 279:../Drivers/STM32L4xx_HAL_Driver/Src/stm32l4xx_ll_usb.c ****   {
 772              		.loc 1 279 3 is_stmt 1 view .LVU209
 279:../Drivers/STM32L4xx_HAL_Driver/Src/stm32l4xx_ll_usb.c ****   {
 773              		.loc 1 279 10 is_stmt 0 view .LVU210
 774 0024 119F     		ldr	r7, [sp, #68]
 279:../Drivers/STM32L4xx_HAL_Driver/Src/stm32l4xx_ll_usb.c ****   {
 775              		.loc 1 279 6 view .LVU211
 776 0026 8FBB     		cbnz	r7, .L53
 281:../Drivers/STM32L4xx_HAL_Driver/Src/stm32l4xx_ll_usb.c **** 
 777              		.loc 1 281 5 is_stmt 1 view .LVU212
 281:../Drivers/STM32L4xx_HAL_Driver/Src/stm32l4xx_ll_usb.c **** 
 778              		.loc 1 281 23 is_stmt 0 view .LVU213
 779 0028 D4F80438 		ldr	r3, [r4, #2052]
ARM GAS  /tmp/ccJzOZLR.s 			page 41


 780              	.LVL58:
 281:../Drivers/STM32L4xx_HAL_Driver/Src/stm32l4xx_ll_usb.c **** 
 781              		.loc 1 281 23 view .LVU214
 782 002c 43F00203 		orr	r3, r3, #2
 783 0030 C4F80438 		str	r3, [r4, #2052]
 284:../Drivers/STM32L4xx_HAL_Driver/Src/stm32l4xx_ll_usb.c **** 
 784              		.loc 1 284 5 is_stmt 1 view .LVU215
 284:../Drivers/STM32L4xx_HAL_Driver/Src/stm32l4xx_ll_usb.c **** 
 785              		.loc 1 284 17 is_stmt 0 view .LVU216
 786 0034 A36B     		ldr	r3, [r4, #56]
 787 0036 23F40013 		bic	r3, r3, #2097152
 788 003a A363     		str	r3, [r4, #56]
 287:../Drivers/STM32L4xx_HAL_Driver/Src/stm32l4xx_ll_usb.c ****     USBx->GOTGCTL |= USB_OTG_GOTGCTL_BVALOVAL;
 789              		.loc 1 287 5 is_stmt 1 view .LVU217
 287:../Drivers/STM32L4xx_HAL_Driver/Src/stm32l4xx_ll_usb.c ****     USBx->GOTGCTL |= USB_OTG_GOTGCTL_BVALOVAL;
 790              		.loc 1 287 19 is_stmt 0 view .LVU218
 791 003c 2368     		ldr	r3, [r4]
 792 003e 43F04003 		orr	r3, r3, #64
 793 0042 2360     		str	r3, [r4]
 288:../Drivers/STM32L4xx_HAL_Driver/Src/stm32l4xx_ll_usb.c ****   }
 794              		.loc 1 288 5 is_stmt 1 view .LVU219
 288:../Drivers/STM32L4xx_HAL_Driver/Src/stm32l4xx_ll_usb.c ****   }
 795              		.loc 1 288 19 is_stmt 0 view .LVU220
 796 0044 2368     		ldr	r3, [r4]
 797 0046 43F08003 		orr	r3, r3, #128
 798 004a 2360     		str	r3, [r4]
 799              	.L54:
 297:../Drivers/STM32L4xx_HAL_Driver/Src/stm32l4xx_ll_usb.c **** 
 800              		.loc 1 297 3 is_stmt 1 view .LVU221
 297:../Drivers/STM32L4xx_HAL_Driver/Src/stm32l4xx_ll_usb.c **** 
 801              		.loc 1 297 16 is_stmt 0 view .LVU222
 802 004c 0023     		movs	r3, #0
 803 004e C4F8003E 		str	r3, [r4, #3584]
 300:../Drivers/STM32L4xx_HAL_Driver/Src/stm32l4xx_ll_usb.c **** 
 804              		.loc 1 300 3 is_stmt 1 view .LVU223
 300:../Drivers/STM32L4xx_HAL_Driver/Src/stm32l4xx_ll_usb.c **** 
 805              		.loc 1 300 21 is_stmt 0 view .LVU224
 806 0052 04F50065 		add	r5, r4, #2048
 807 0056 D4F80038 		ldr	r3, [r4, #2048]
 808 005a C4F80038 		str	r3, [r4, #2048]
 303:../Drivers/STM32L4xx_HAL_Driver/Src/stm32l4xx_ll_usb.c **** 
 809              		.loc 1 303 3 is_stmt 1 view .LVU225
 303:../Drivers/STM32L4xx_HAL_Driver/Src/stm32l4xx_ll_usb.c **** 
 810              		.loc 1 303 9 is_stmt 0 view .LVU226
 811 005e 0321     		movs	r1, #3
 812 0060 2046     		mov	r0, r4
 813              	.LVL59:
 303:../Drivers/STM32L4xx_HAL_Driver/Src/stm32l4xx_ll_usb.c **** 
 814              		.loc 1 303 9 view .LVU227
 815 0062 FFF7FEFF 		bl	USB_SetDevSpeed
 816              	.LVL60:
 306:../Drivers/STM32L4xx_HAL_Driver/Src/stm32l4xx_ll_usb.c ****   {
 817              		.loc 1 306 3 is_stmt 1 view .LVU228
 306:../Drivers/STM32L4xx_HAL_Driver/Src/stm32l4xx_ll_usb.c ****   {
 818              		.loc 1 306 7 is_stmt 0 view .LVU229
 819 0066 1021     		movs	r1, #16
 820 0068 2046     		mov	r0, r4
ARM GAS  /tmp/ccJzOZLR.s 			page 42


 821 006a FFF7FEFF 		bl	USB_FlushTxFifo
 822              	.LVL61:
 306:../Drivers/STM32L4xx_HAL_Driver/Src/stm32l4xx_ll_usb.c ****   {
 823              		.loc 1 306 6 view .LVU230
 824 006e 8046     		mov	r8, r0
 825 0070 08B1     		cbz	r0, .L55
 308:../Drivers/STM32L4xx_HAL_Driver/Src/stm32l4xx_ll_usb.c ****   }
 826              		.loc 1 308 9 view .LVU231
 827 0072 4FF00108 		mov	r8, #1
 828              	.L55:
 829              	.LVL62:
 311:../Drivers/STM32L4xx_HAL_Driver/Src/stm32l4xx_ll_usb.c ****   {
 830              		.loc 1 311 3 is_stmt 1 view .LVU232
 311:../Drivers/STM32L4xx_HAL_Driver/Src/stm32l4xx_ll_usb.c ****   {
 831              		.loc 1 311 7 is_stmt 0 view .LVU233
 832 0076 2046     		mov	r0, r4
 833 0078 FFF7FEFF 		bl	USB_FlushRxFifo
 834              	.LVL63:
 311:../Drivers/STM32L4xx_HAL_Driver/Src/stm32l4xx_ll_usb.c ****   {
 835              		.loc 1 311 6 view .LVU234
 836 007c 08B1     		cbz	r0, .L56
 313:../Drivers/STM32L4xx_HAL_Driver/Src/stm32l4xx_ll_usb.c ****   }
 837              		.loc 1 313 9 view .LVU235
 838 007e 4FF00108 		mov	r8, #1
 839              	.LVL64:
 840              	.L56:
 317:../Drivers/STM32L4xx_HAL_Driver/Src/stm32l4xx_ll_usb.c ****   USBx_DEVICE->DOEPMSK = 0U;
 841              		.loc 1 317 3 is_stmt 1 view .LVU236
 317:../Drivers/STM32L4xx_HAL_Driver/Src/stm32l4xx_ll_usb.c ****   USBx_DEVICE->DOEPMSK = 0U;
 842              		.loc 1 317 24 is_stmt 0 view .LVU237
 843 0082 0023     		movs	r3, #0
 844 0084 2B61     		str	r3, [r5, #16]
 318:../Drivers/STM32L4xx_HAL_Driver/Src/stm32l4xx_ll_usb.c ****   USBx_DEVICE->DAINTMSK = 0U;
 845              		.loc 1 318 3 is_stmt 1 view .LVU238
 318:../Drivers/STM32L4xx_HAL_Driver/Src/stm32l4xx_ll_usb.c ****   USBx_DEVICE->DAINTMSK = 0U;
 846              		.loc 1 318 24 is_stmt 0 view .LVU239
 847 0086 6B61     		str	r3, [r5, #20]
 319:../Drivers/STM32L4xx_HAL_Driver/Src/stm32l4xx_ll_usb.c **** 
 848              		.loc 1 319 3 is_stmt 1 view .LVU240
 319:../Drivers/STM32L4xx_HAL_Driver/Src/stm32l4xx_ll_usb.c **** 
 849              		.loc 1 319 25 is_stmt 0 view .LVU241
 850 0088 EB61     		str	r3, [r5, #28]
 321:../Drivers/STM32L4xx_HAL_Driver/Src/stm32l4xx_ll_usb.c ****   {
 851              		.loc 1 321 3 is_stmt 1 view .LVU242
 852              	.LVL65:
 321:../Drivers/STM32L4xx_HAL_Driver/Src/stm32l4xx_ll_usb.c ****   {
 853              		.loc 1 321 3 is_stmt 0 view .LVU243
 854 008a 0FE0     		b	.L57
 855              	.LVL66:
 856              	.L53:
 293:../Drivers/STM32L4xx_HAL_Driver/Src/stm32l4xx_ll_usb.c ****   }
 857              		.loc 1 293 5 is_stmt 1 view .LVU244
 293:../Drivers/STM32L4xx_HAL_Driver/Src/stm32l4xx_ll_usb.c ****   }
 858              		.loc 1 293 17 is_stmt 0 view .LVU245
 859 008c A36B     		ldr	r3, [r4, #56]
 860              	.LVL67:
 293:../Drivers/STM32L4xx_HAL_Driver/Src/stm32l4xx_ll_usb.c ****   }
ARM GAS  /tmp/ccJzOZLR.s 			page 43


 861              		.loc 1 293 17 view .LVU246
 862 008e 43F40013 		orr	r3, r3, #2097152
 863 0092 A363     		str	r3, [r4, #56]
 864 0094 DAE7     		b	.L54
 865              	.LVL68:
 866              	.L73:
 325:../Drivers/STM32L4xx_HAL_Driver/Src/stm32l4xx_ll_usb.c ****       {
 867              		.loc 1 325 7 is_stmt 1 view .LVU247
 325:../Drivers/STM32L4xx_HAL_Driver/Src/stm32l4xx_ll_usb.c ****       {
 868              		.loc 1 325 10 is_stmt 0 view .LVU248
 869 0096 C3B9     		cbnz	r3, .L59
 327:../Drivers/STM32L4xx_HAL_Driver/Src/stm32l4xx_ll_usb.c ****       }
 870              		.loc 1 327 9 is_stmt 1 view .LVU249
 327:../Drivers/STM32L4xx_HAL_Driver/Src/stm32l4xx_ll_usb.c ****       }
 871              		.loc 1 327 31 is_stmt 0 view .LVU250
 872 0098 4FF00060 		mov	r0, #134217728
 873 009c C2F80009 		str	r0, [r2, #2304]
 874              	.L60:
 339:../Drivers/STM32L4xx_HAL_Driver/Src/stm32l4xx_ll_usb.c ****     USBx_INEP(i)->DIEPINT  = 0xFB7FU;
 875              		.loc 1 339 5 is_stmt 1 discriminator 2 view .LVU251
 339:../Drivers/STM32L4xx_HAL_Driver/Src/stm32l4xx_ll_usb.c ****     USBx_INEP(i)->DIEPINT  = 0xFB7FU;
 876              		.loc 1 339 28 is_stmt 0 discriminator 2 view .LVU252
 877 00a0 0022     		movs	r2, #0
 878 00a2 0A61     		str	r2, [r1, #16]
 340:../Drivers/STM32L4xx_HAL_Driver/Src/stm32l4xx_ll_usb.c ****   }
 879              		.loc 1 340 5 is_stmt 1 discriminator 2 view .LVU253
 340:../Drivers/STM32L4xx_HAL_Driver/Src/stm32l4xx_ll_usb.c ****   }
 880              		.loc 1 340 28 is_stmt 0 discriminator 2 view .LVU254
 881 00a4 4FF67F32 		movw	r2, #64383
 882 00a8 8A60     		str	r2, [r1, #8]
 321:../Drivers/STM32L4xx_HAL_Driver/Src/stm32l4xx_ll_usb.c ****   {
 883              		.loc 1 321 39 is_stmt 1 discriminator 2 view .LVU255
 321:../Drivers/STM32L4xx_HAL_Driver/Src/stm32l4xx_ll_usb.c ****   {
 884              		.loc 1 321 40 is_stmt 0 discriminator 2 view .LVU256
 885 00aa 0133     		adds	r3, r3, #1
 886              	.LVL69:
 887              	.L57:
 321:../Drivers/STM32L4xx_HAL_Driver/Src/stm32l4xx_ll_usb.c ****   {
 888              		.loc 1 321 16 is_stmt 1 discriminator 1 view .LVU257
 321:../Drivers/STM32L4xx_HAL_Driver/Src/stm32l4xx_ll_usb.c ****   {
 889              		.loc 1 321 23 is_stmt 0 discriminator 1 view .LVU258
 890 00ac 0799     		ldr	r1, [sp, #28]
 321:../Drivers/STM32L4xx_HAL_Driver/Src/stm32l4xx_ll_usb.c ****   {
 891              		.loc 1 321 3 discriminator 1 view .LVU259
 892 00ae 9942     		cmp	r1, r3
 893 00b0 10D9     		bls	.L72
 323:../Drivers/STM32L4xx_HAL_Driver/Src/stm32l4xx_ll_usb.c ****     {
 894              		.loc 1 323 5 is_stmt 1 view .LVU260
 323:../Drivers/STM32L4xx_HAL_Driver/Src/stm32l4xx_ll_usb.c ****     {
 895              		.loc 1 323 10 is_stmt 0 view .LVU261
 896 00b2 04EB4312 		add	r2, r4, r3, lsl #5
 897 00b6 02F51061 		add	r1, r2, #2304
 323:../Drivers/STM32L4xx_HAL_Driver/Src/stm32l4xx_ll_usb.c ****     {
 898              		.loc 1 323 22 view .LVU262
 899 00ba D2F80009 		ldr	r0, [r2, #2304]
 323:../Drivers/STM32L4xx_HAL_Driver/Src/stm32l4xx_ll_usb.c ****     {
 900              		.loc 1 323 8 view .LVU263
ARM GAS  /tmp/ccJzOZLR.s 			page 44


 901 00be 0028     		cmp	r0, #0
 902 00c0 E9DB     		blt	.L73
 336:../Drivers/STM32L4xx_HAL_Driver/Src/stm32l4xx_ll_usb.c ****     }
 903              		.loc 1 336 7 is_stmt 1 view .LVU264
 336:../Drivers/STM32L4xx_HAL_Driver/Src/stm32l4xx_ll_usb.c ****     }
 904              		.loc 1 336 29 is_stmt 0 view .LVU265
 905 00c2 0020     		movs	r0, #0
 906 00c4 C2F80009 		str	r0, [r2, #2304]
 907 00c8 EAE7     		b	.L60
 908              	.L59:
 331:../Drivers/STM32L4xx_HAL_Driver/Src/stm32l4xx_ll_usb.c ****       }
 909              		.loc 1 331 9 is_stmt 1 view .LVU266
 331:../Drivers/STM32L4xx_HAL_Driver/Src/stm32l4xx_ll_usb.c ****       }
 910              		.loc 1 331 31 is_stmt 0 view .LVU267
 911 00ca 4FF09040 		mov	r0, #1207959552
 912 00ce C2F80009 		str	r0, [r2, #2304]
 913 00d2 E5E7     		b	.L60
 914              	.L72:
 343:../Drivers/STM32L4xx_HAL_Driver/Src/stm32l4xx_ll_usb.c ****   {
 915              		.loc 1 343 10 view .LVU268
 916 00d4 0023     		movs	r3, #0
 917              	.LVL70:
 343:../Drivers/STM32L4xx_HAL_Driver/Src/stm32l4xx_ll_usb.c ****   {
 918              		.loc 1 343 10 view .LVU269
 919 00d6 0AE0     		b	.L62
 920              	.LVL71:
 921              	.L76:
 347:../Drivers/STM32L4xx_HAL_Driver/Src/stm32l4xx_ll_usb.c ****       {
 922              		.loc 1 347 7 is_stmt 1 view .LVU270
 347:../Drivers/STM32L4xx_HAL_Driver/Src/stm32l4xx_ll_usb.c ****       {
 923              		.loc 1 347 10 is_stmt 0 view .LVU271
 924 00d8 C3B1     		cbz	r3, .L74
 353:../Drivers/STM32L4xx_HAL_Driver/Src/stm32l4xx_ll_usb.c ****       }
 925              		.loc 1 353 9 is_stmt 1 view .LVU272
 353:../Drivers/STM32L4xx_HAL_Driver/Src/stm32l4xx_ll_usb.c ****       }
 926              		.loc 1 353 32 is_stmt 0 view .LVU273
 927 00da 4FF0904C 		mov	ip, #1207959552
 928 00de C2F800CB 		str	ip, [r2, #2816]
 929              	.L65:
 361:../Drivers/STM32L4xx_HAL_Driver/Src/stm32l4xx_ll_usb.c ****     USBx_OUTEP(i)->DOEPINT  = 0xFB7FU;
 930              		.loc 1 361 5 is_stmt 1 discriminator 2 view .LVU274
 361:../Drivers/STM32L4xx_HAL_Driver/Src/stm32l4xx_ll_usb.c ****     USBx_OUTEP(i)->DOEPINT  = 0xFB7FU;
 931              		.loc 1 361 29 is_stmt 0 discriminator 2 view .LVU275
 932 00e2 0022     		movs	r2, #0
 933 00e4 0261     		str	r2, [r0, #16]
 362:../Drivers/STM32L4xx_HAL_Driver/Src/stm32l4xx_ll_usb.c ****   }
 934              		.loc 1 362 5 is_stmt 1 discriminator 2 view .LVU276
 362:../Drivers/STM32L4xx_HAL_Driver/Src/stm32l4xx_ll_usb.c ****   }
 935              		.loc 1 362 29 is_stmt 0 discriminator 2 view .LVU277
 936 00e6 4FF67F32 		movw	r2, #64383
 937 00ea 8260     		str	r2, [r0, #8]
 343:../Drivers/STM32L4xx_HAL_Driver/Src/stm32l4xx_ll_usb.c ****   {
 938              		.loc 1 343 39 is_stmt 1 discriminator 2 view .LVU278
 343:../Drivers/STM32L4xx_HAL_Driver/Src/stm32l4xx_ll_usb.c ****   {
 939              		.loc 1 343 40 is_stmt 0 discriminator 2 view .LVU279
 940 00ec 0133     		adds	r3, r3, #1
 941              	.LVL72:
ARM GAS  /tmp/ccJzOZLR.s 			page 45


 942              	.L62:
 343:../Drivers/STM32L4xx_HAL_Driver/Src/stm32l4xx_ll_usb.c ****   {
 943              		.loc 1 343 16 is_stmt 1 discriminator 1 view .LVU280
 343:../Drivers/STM32L4xx_HAL_Driver/Src/stm32l4xx_ll_usb.c ****   {
 944              		.loc 1 343 3 is_stmt 0 discriminator 1 view .LVU281
 945 00ee 9942     		cmp	r1, r3
 946 00f0 11D9     		bls	.L75
 345:../Drivers/STM32L4xx_HAL_Driver/Src/stm32l4xx_ll_usb.c ****     {
 947              		.loc 1 345 5 is_stmt 1 view .LVU282
 345:../Drivers/STM32L4xx_HAL_Driver/Src/stm32l4xx_ll_usb.c ****     {
 948              		.loc 1 345 10 is_stmt 0 view .LVU283
 949 00f2 04EB4312 		add	r2, r4, r3, lsl #5
 950 00f6 02F53060 		add	r0, r2, #2816
 345:../Drivers/STM32L4xx_HAL_Driver/Src/stm32l4xx_ll_usb.c ****     {
 951              		.loc 1 345 23 view .LVU284
 952 00fa D2F8006B 		ldr	r6, [r2, #2816]
 345:../Drivers/STM32L4xx_HAL_Driver/Src/stm32l4xx_ll_usb.c ****     {
 953              		.loc 1 345 8 view .LVU285
 954 00fe 002E     		cmp	r6, #0
 955 0100 EADB     		blt	.L76
 358:../Drivers/STM32L4xx_HAL_Driver/Src/stm32l4xx_ll_usb.c ****     }
 956              		.loc 1 358 7 is_stmt 1 view .LVU286
 358:../Drivers/STM32L4xx_HAL_Driver/Src/stm32l4xx_ll_usb.c ****     }
 957              		.loc 1 358 30 is_stmt 0 view .LVU287
 958 0102 4FF0000C 		mov	ip, #0
 959 0106 C2F800CB 		str	ip, [r2, #2816]
 960 010a EAE7     		b	.L65
 961              	.L74:
 349:../Drivers/STM32L4xx_HAL_Driver/Src/stm32l4xx_ll_usb.c ****       }
 962              		.loc 1 349 9 is_stmt 1 view .LVU288
 349:../Drivers/STM32L4xx_HAL_Driver/Src/stm32l4xx_ll_usb.c ****       }
 963              		.loc 1 349 32 is_stmt 0 view .LVU289
 964 010c 4FF0006C 		mov	ip, #134217728
 965 0110 C2F800CB 		str	ip, [r2, #2816]
 966 0114 E5E7     		b	.L65
 967              	.L75:
 365:../Drivers/STM32L4xx_HAL_Driver/Src/stm32l4xx_ll_usb.c **** 
 968              		.loc 1 365 3 is_stmt 1 view .LVU290
 365:../Drivers/STM32L4xx_HAL_Driver/Src/stm32l4xx_ll_usb.c **** 
 969              		.loc 1 365 24 is_stmt 0 view .LVU291
 970 0116 2B69     		ldr	r3, [r5, #16]
 971              	.LVL73:
 365:../Drivers/STM32L4xx_HAL_Driver/Src/stm32l4xx_ll_usb.c **** 
 972              		.loc 1 365 24 view .LVU292
 973 0118 23F48073 		bic	r3, r3, #256
 974 011c 2B61     		str	r3, [r5, #16]
 368:../Drivers/STM32L4xx_HAL_Driver/Src/stm32l4xx_ll_usb.c **** 
 975              		.loc 1 368 3 is_stmt 1 view .LVU293
 368:../Drivers/STM32L4xx_HAL_Driver/Src/stm32l4xx_ll_usb.c **** 
 976              		.loc 1 368 17 is_stmt 0 view .LVU294
 977 011e 0023     		movs	r3, #0
 978 0120 A361     		str	r3, [r4, #24]
 371:../Drivers/STM32L4xx_HAL_Driver/Src/stm32l4xx_ll_usb.c **** 
 979              		.loc 1 371 3 is_stmt 1 view .LVU295
 371:../Drivers/STM32L4xx_HAL_Driver/Src/stm32l4xx_ll_usb.c **** 
 980              		.loc 1 371 17 is_stmt 0 view .LVU296
 981 0122 6FF08043 		mvn	r3, #1073741824
ARM GAS  /tmp/ccJzOZLR.s 			page 46


 982 0126 6361     		str	r3, [r4, #20]
 374:../Drivers/STM32L4xx_HAL_Driver/Src/stm32l4xx_ll_usb.c **** 
 983              		.loc 1 374 3 is_stmt 1 view .LVU297
 374:../Drivers/STM32L4xx_HAL_Driver/Src/stm32l4xx_ll_usb.c **** 
 984              		.loc 1 374 17 is_stmt 0 view .LVU298
 985 0128 A369     		ldr	r3, [r4, #24]
 986 012a 43F01003 		orr	r3, r3, #16
 987 012e A361     		str	r3, [r4, #24]
 377:../Drivers/STM32L4xx_HAL_Driver/Src/stm32l4xx_ll_usb.c ****                    USB_OTG_GINTMSK_ENUMDNEM | USB_OTG_GINTMSK_IEPINT |
 988              		.loc 1 377 3 is_stmt 1 view .LVU299
 377:../Drivers/STM32L4xx_HAL_Driver/Src/stm32l4xx_ll_usb.c ****                    USB_OTG_GINTMSK_ENUMDNEM | USB_OTG_GINTMSK_IEPINT |
 989              		.loc 1 377 17 is_stmt 0 view .LVU300
 990 0130 A269     		ldr	r2, [r4, #24]
 991 0132 0B4B     		ldr	r3, .L78
 992 0134 1343     		orrs	r3, r3, r2
 993 0136 A361     		str	r3, [r4, #24]
 382:../Drivers/STM32L4xx_HAL_Driver/Src/stm32l4xx_ll_usb.c ****   {
 994              		.loc 1 382 3 is_stmt 1 view .LVU301
 382:../Drivers/STM32L4xx_HAL_Driver/Src/stm32l4xx_ll_usb.c ****   {
 995              		.loc 1 382 10 is_stmt 0 view .LVU302
 996 0138 0D9B     		ldr	r3, [sp, #52]
 382:../Drivers/STM32L4xx_HAL_Driver/Src/stm32l4xx_ll_usb.c ****   {
 997              		.loc 1 382 6 view .LVU303
 998 013a 1BB1     		cbz	r3, .L67
 384:../Drivers/STM32L4xx_HAL_Driver/Src/stm32l4xx_ll_usb.c ****   }
 999              		.loc 1 384 5 is_stmt 1 view .LVU304
 384:../Drivers/STM32L4xx_HAL_Driver/Src/stm32l4xx_ll_usb.c ****   }
 1000              		.loc 1 384 19 is_stmt 0 view .LVU305
 1001 013c A369     		ldr	r3, [r4, #24]
 1002 013e 43F00803 		orr	r3, r3, #8
 1003 0142 A361     		str	r3, [r4, #24]
 1004              	.L67:
 387:../Drivers/STM32L4xx_HAL_Driver/Src/stm32l4xx_ll_usb.c ****   {
 1005              		.loc 1 387 3 is_stmt 1 view .LVU306
 387:../Drivers/STM32L4xx_HAL_Driver/Src/stm32l4xx_ll_usb.c ****   {
 1006              		.loc 1 387 6 is_stmt 0 view .LVU307
 1007 0144 012F     		cmp	r7, #1
 1008 0146 04D0     		beq	.L77
 1009              	.L68:
 392:../Drivers/STM32L4xx_HAL_Driver/Src/stm32l4xx_ll_usb.c **** }
 1010              		.loc 1 392 3 is_stmt 1 view .LVU308
 393:../Drivers/STM32L4xx_HAL_Driver/Src/stm32l4xx_ll_usb.c **** 
 1011              		.loc 1 393 1 is_stmt 0 view .LVU309
 1012 0148 4046     		mov	r0, r8
 1013 014a BDE8F041 		pop	{r4, r5, r6, r7, r8, lr}
 1014              	.LCFI16:
 1015              		.cfi_remember_state
 1016              		.cfi_restore 14
 1017              		.cfi_restore 8
 1018              		.cfi_restore 7
 1019              		.cfi_restore 6
 1020              		.cfi_restore 5
 1021              		.cfi_restore 4
 1022              		.cfi_def_cfa_offset 16
 1023              	.LVL74:
 393:../Drivers/STM32L4xx_HAL_Driver/Src/stm32l4xx_ll_usb.c **** 
 1024              		.loc 1 393 1 view .LVU310
ARM GAS  /tmp/ccJzOZLR.s 			page 47


 1025 014e 04B0     		add	sp, sp, #16
 1026              	.LCFI17:
 1027              		.cfi_def_cfa_offset 0
 1028 0150 7047     		bx	lr
 1029              	.LVL75:
 1030              	.L77:
 1031              	.LCFI18:
 1032              		.cfi_restore_state
 389:../Drivers/STM32L4xx_HAL_Driver/Src/stm32l4xx_ll_usb.c ****   }
 1033              		.loc 1 389 5 is_stmt 1 view .LVU311
 389:../Drivers/STM32L4xx_HAL_Driver/Src/stm32l4xx_ll_usb.c ****   }
 1034              		.loc 1 389 19 is_stmt 0 view .LVU312
 1035 0152 A369     		ldr	r3, [r4, #24]
 1036 0154 43F08043 		orr	r3, r3, #1073741824
 1037 0158 43F00403 		orr	r3, r3, #4
 1038 015c A361     		str	r3, [r4, #24]
 1039 015e F3E7     		b	.L68
 1040              	.L79:
 1041              		.align	2
 1042              	.L78:
 1043 0160 00383C80 		.word	-2143537152
 1044              		.cfi_endproc
 1045              	.LFE137:
 1047              		.section	.text.USB_GetDevSpeed,"ax",%progbits
 1048              		.align	1
 1049              		.global	USB_GetDevSpeed
 1050              		.syntax unified
 1051              		.thumb
 1052              		.thumb_func
 1053              		.fpu fpv4-sp-d16
 1055              	USB_GetDevSpeed:
 1056              	.LVL76:
 1057              	.LFB141:
 497:../Drivers/STM32L4xx_HAL_Driver/Src/stm32l4xx_ll_usb.c ****   uint32_t USBx_BASE = (uint32_t)USBx;
 1058              		.loc 1 497 1 is_stmt 1 view -0
 1059              		.cfi_startproc
 1060              		@ args = 0, pretend = 0, frame = 0
 1061              		@ frame_needed = 0, uses_anonymous_args = 0
 1062              		@ link register save eliminated.
 498:../Drivers/STM32L4xx_HAL_Driver/Src/stm32l4xx_ll_usb.c ****   uint8_t speed;
 1063              		.loc 1 498 3 view .LVU314
 499:../Drivers/STM32L4xx_HAL_Driver/Src/stm32l4xx_ll_usb.c ****   uint32_t DevEnumSpeed = USBx_DEVICE->DSTS & USB_OTG_DSTS_ENUMSPD;
 1064              		.loc 1 499 3 view .LVU315
 500:../Drivers/STM32L4xx_HAL_Driver/Src/stm32l4xx_ll_usb.c **** 
 1065              		.loc 1 500 3 view .LVU316
 500:../Drivers/STM32L4xx_HAL_Driver/Src/stm32l4xx_ll_usb.c **** 
 1066              		.loc 1 500 38 is_stmt 0 view .LVU317
 1067 0000 D0F80838 		ldr	r3, [r0, #2056]
 500:../Drivers/STM32L4xx_HAL_Driver/Src/stm32l4xx_ll_usb.c **** 
 1068              		.loc 1 500 12 view .LVU318
 1069 0004 03F00603 		and	r3, r3, #6
 1070              	.LVL77:
 502:../Drivers/STM32L4xx_HAL_Driver/Src/stm32l4xx_ll_usb.c ****       (DevEnumSpeed == DSTS_ENUMSPD_FS_PHY_48MHZ))
 1071              		.loc 1 502 3 is_stmt 1 view .LVU319
 502:../Drivers/STM32L4xx_HAL_Driver/Src/stm32l4xx_ll_usb.c ****       (DevEnumSpeed == DSTS_ENUMSPD_FS_PHY_48MHZ))
 1072              		.loc 1 502 6 is_stmt 0 view .LVU320
 1073 0008 022B     		cmp	r3, #2
ARM GAS  /tmp/ccJzOZLR.s 			page 48


 1074 000a 05D0     		beq	.L82
 502:../Drivers/STM32L4xx_HAL_Driver/Src/stm32l4xx_ll_usb.c ****       (DevEnumSpeed == DSTS_ENUMSPD_FS_PHY_48MHZ))
 1075              		.loc 1 502 60 discriminator 1 view .LVU321
 1076 000c 062B     		cmp	r3, #6
 1077 000e 01D0     		beq	.L84
 509:../Drivers/STM32L4xx_HAL_Driver/Src/stm32l4xx_ll_usb.c ****   }
 1078              		.loc 1 509 11 view .LVU322
 1079 0010 0F20     		movs	r0, #15
 1080              	.LVL78:
 512:../Drivers/STM32L4xx_HAL_Driver/Src/stm32l4xx_ll_usb.c **** }
 1081              		.loc 1 512 3 is_stmt 1 view .LVU323
 513:../Drivers/STM32L4xx_HAL_Driver/Src/stm32l4xx_ll_usb.c **** 
 1082              		.loc 1 513 1 is_stmt 0 view .LVU324
 1083 0012 7047     		bx	lr
 1084              	.LVL79:
 1085              	.L84:
 505:../Drivers/STM32L4xx_HAL_Driver/Src/stm32l4xx_ll_usb.c ****   }
 1086              		.loc 1 505 11 view .LVU325
 1087 0014 0220     		movs	r0, #2
 1088              	.LVL80:
 505:../Drivers/STM32L4xx_HAL_Driver/Src/stm32l4xx_ll_usb.c ****   }
 1089              		.loc 1 505 11 view .LVU326
 1090 0016 7047     		bx	lr
 1091              	.LVL81:
 1092              	.L82:
 505:../Drivers/STM32L4xx_HAL_Driver/Src/stm32l4xx_ll_usb.c ****   }
 1093              		.loc 1 505 11 view .LVU327
 1094 0018 0220     		movs	r0, #2
 1095              	.LVL82:
 505:../Drivers/STM32L4xx_HAL_Driver/Src/stm32l4xx_ll_usb.c ****   }
 1096              		.loc 1 505 11 view .LVU328
 1097 001a 7047     		bx	lr
 1098              		.cfi_endproc
 1099              	.LFE141:
 1101              		.section	.text.USB_ActivateEndpoint,"ax",%progbits
 1102              		.align	1
 1103              		.global	USB_ActivateEndpoint
 1104              		.syntax unified
 1105              		.thumb
 1106              		.thumb_func
 1107              		.fpu fpv4-sp-d16
 1109              	USB_ActivateEndpoint:
 1110              	.LVL83:
 1111              	.LFB142:
 522:../Drivers/STM32L4xx_HAL_Driver/Src/stm32l4xx_ll_usb.c ****   uint32_t USBx_BASE = (uint32_t)USBx;
 1112              		.loc 1 522 1 is_stmt 1 view -0
 1113              		.cfi_startproc
 1114              		@ args = 0, pretend = 0, frame = 0
 1115              		@ frame_needed = 0, uses_anonymous_args = 0
 522:../Drivers/STM32L4xx_HAL_Driver/Src/stm32l4xx_ll_usb.c ****   uint32_t USBx_BASE = (uint32_t)USBx;
 1116              		.loc 1 522 1 is_stmt 0 view .LVU330
 1117 0000 10B5     		push	{r4, lr}
 1118              	.LCFI19:
 1119              		.cfi_def_cfa_offset 8
 1120              		.cfi_offset 4, -8
 1121              		.cfi_offset 14, -4
 523:../Drivers/STM32L4xx_HAL_Driver/Src/stm32l4xx_ll_usb.c ****   uint32_t epnum = (uint32_t)ep->num;
ARM GAS  /tmp/ccJzOZLR.s 			page 49


 1122              		.loc 1 523 3 is_stmt 1 view .LVU331
 1123              	.LVL84:
 524:../Drivers/STM32L4xx_HAL_Driver/Src/stm32l4xx_ll_usb.c **** 
 1124              		.loc 1 524 3 view .LVU332
 524:../Drivers/STM32L4xx_HAL_Driver/Src/stm32l4xx_ll_usb.c **** 
 1125              		.loc 1 524 32 is_stmt 0 view .LVU333
 1126 0002 91F800C0 		ldrb	ip, [r1]	@ zero_extendqisi2
 1127              	.LVL85:
 526:../Drivers/STM32L4xx_HAL_Driver/Src/stm32l4xx_ll_usb.c ****   {
 1128              		.loc 1 526 3 is_stmt 1 view .LVU334
 526:../Drivers/STM32L4xx_HAL_Driver/Src/stm32l4xx_ll_usb.c ****   {
 1129              		.loc 1 526 9 is_stmt 0 view .LVU335
 1130 0006 4B78     		ldrb	r3, [r1, #1]	@ zero_extendqisi2
 526:../Drivers/STM32L4xx_HAL_Driver/Src/stm32l4xx_ll_usb.c ****   {
 1131              		.loc 1 526 6 view .LVU336
 1132 0008 012B     		cmp	r3, #1
 1133 000a 23D0     		beq	.L89
 540:../Drivers/STM32L4xx_HAL_Driver/Src/stm32l4xx_ll_usb.c **** 
 1134              		.loc 1 540 5 is_stmt 1 view .LVU337
 540:../Drivers/STM32L4xx_HAL_Driver/Src/stm32l4xx_ll_usb.c **** 
 1135              		.loc 1 540 27 is_stmt 0 view .LVU338
 1136 000c 00F5006E 		add	lr, r0, #2048
 1137 0010 D0F81C38 		ldr	r3, [r0, #2076]
 540:../Drivers/STM32L4xx_HAL_Driver/Src/stm32l4xx_ll_usb.c **** 
 1138              		.loc 1 540 82 view .LVU339
 1139 0014 0CF00F04 		and	r4, ip, #15
 540:../Drivers/STM32L4xx_HAL_Driver/Src/stm32l4xx_ll_usb.c **** 
 1140              		.loc 1 540 55 view .LVU340
 1141 0018 0122     		movs	r2, #1
 1142 001a A240     		lsls	r2, r2, r4
 540:../Drivers/STM32L4xx_HAL_Driver/Src/stm32l4xx_ll_usb.c **** 
 1143              		.loc 1 540 27 view .LVU341
 1144 001c 43EA0243 		orr	r3, r3, r2, lsl #16
 1145 0020 C0F81C38 		str	r3, [r0, #2076]
 542:../Drivers/STM32L4xx_HAL_Driver/Src/stm32l4xx_ll_usb.c ****     {
 1146              		.loc 1 542 5 is_stmt 1 view .LVU342
 542:../Drivers/STM32L4xx_HAL_Driver/Src/stm32l4xx_ll_usb.c ****     {
 1147              		.loc 1 542 11 is_stmt 0 view .LVU343
 1148 0024 00EB4C10 		add	r0, r0, ip, lsl #5
 1149              	.LVL86:
 542:../Drivers/STM32L4xx_HAL_Driver/Src/stm32l4xx_ll_usb.c ****     {
 1150              		.loc 1 542 28 view .LVU344
 1151 0028 D0F8003B 		ldr	r3, [r0, #2816]
 542:../Drivers/STM32L4xx_HAL_Driver/Src/stm32l4xx_ll_usb.c ****     {
 1152              		.loc 1 542 8 view .LVU345
 1153 002c 13F4004F 		tst	r3, #32768
 1154 0030 0ED1     		bne	.L87
 544:../Drivers/STM32L4xx_HAL_Driver/Src/stm32l4xx_ll_usb.c ****                                     ((uint32_t)ep->type << 18) |
 1155              		.loc 1 544 7 is_stmt 1 view .LVU346
 544:../Drivers/STM32L4xx_HAL_Driver/Src/stm32l4xx_ll_usb.c ****                                     ((uint32_t)ep->type << 18) |
 1156              		.loc 1 544 34 is_stmt 0 view .LVU347
 1157 0032 D0F8003B 		ldr	r3, [r0, #2816]
 544:../Drivers/STM32L4xx_HAL_Driver/Src/stm32l4xx_ll_usb.c ****                                     ((uint32_t)ep->type << 18) |
 1158              		.loc 1 544 40 view .LVU348
 1159 0036 CA68     		ldr	r2, [r1, #12]
 544:../Drivers/STM32L4xx_HAL_Driver/Src/stm32l4xx_ll_usb.c ****                                     ((uint32_t)ep->type << 18) |
 1160              		.loc 1 544 52 view .LVU349
ARM GAS  /tmp/ccJzOZLR.s 			page 50


 1161 0038 C2F30A02 		ubfx	r2, r2, #0, #11
 545:../Drivers/STM32L4xx_HAL_Driver/Src/stm32l4xx_ll_usb.c ****                                     USB_OTG_DIEPCTL_SD0PID_SEVNFRM |
 1162              		.loc 1 545 50 view .LVU350
 1163 003c 0979     		ldrb	r1, [r1, #4]	@ zero_extendqisi2
 1164              	.LVL87:
 544:../Drivers/STM32L4xx_HAL_Driver/Src/stm32l4xx_ll_usb.c ****                                     ((uint32_t)ep->type << 18) |
 1165              		.loc 1 544 77 view .LVU351
 1166 003e 42EA8142 		orr	r2, r2, r1, lsl #18
 544:../Drivers/STM32L4xx_HAL_Driver/Src/stm32l4xx_ll_usb.c ****                                     ((uint32_t)ep->type << 18) |
 1167              		.loc 1 544 34 view .LVU352
 1168 0042 1343     		orrs	r3, r3, r2
 1169 0044 43F08053 		orr	r3, r3, #268435456
 1170 0048 43F40043 		orr	r3, r3, #32768
 1171 004c C0F8003B 		str	r3, [r0, #2816]
 1172              	.LVL88:
 1173              	.L87:
 550:../Drivers/STM32L4xx_HAL_Driver/Src/stm32l4xx_ll_usb.c **** }
 1174              		.loc 1 550 3 is_stmt 1 view .LVU353
 551:../Drivers/STM32L4xx_HAL_Driver/Src/stm32l4xx_ll_usb.c **** 
 1175              		.loc 1 551 1 is_stmt 0 view .LVU354
 1176 0050 0020     		movs	r0, #0
 1177 0052 10BD     		pop	{r4, pc}
 1178              	.LVL89:
 1179              	.L89:
 528:../Drivers/STM32L4xx_HAL_Driver/Src/stm32l4xx_ll_usb.c **** 
 1180              		.loc 1 528 5 is_stmt 1 view .LVU355
 528:../Drivers/STM32L4xx_HAL_Driver/Src/stm32l4xx_ll_usb.c **** 
 1181              		.loc 1 528 27 is_stmt 0 view .LVU356
 1182 0054 D0F81C28 		ldr	r2, [r0, #2076]
 528:../Drivers/STM32L4xx_HAL_Driver/Src/stm32l4xx_ll_usb.c **** 
 1183              		.loc 1 528 81 view .LVU357
 1184 0058 0CF00F0E 		and	lr, ip, #15
 528:../Drivers/STM32L4xx_HAL_Driver/Src/stm32l4xx_ll_usb.c **** 
 1185              		.loc 1 528 54 view .LVU358
 1186 005c 03FA0EF3 		lsl	r3, r3, lr
 528:../Drivers/STM32L4xx_HAL_Driver/Src/stm32l4xx_ll_usb.c **** 
 1187              		.loc 1 528 52 view .LVU359
 1188 0060 9BB2     		uxth	r3, r3
 528:../Drivers/STM32L4xx_HAL_Driver/Src/stm32l4xx_ll_usb.c **** 
 1189              		.loc 1 528 27 view .LVU360
 1190 0062 1343     		orrs	r3, r3, r2
 1191 0064 C0F81C38 		str	r3, [r0, #2076]
 530:../Drivers/STM32L4xx_HAL_Driver/Src/stm32l4xx_ll_usb.c ****     {
 1192              		.loc 1 530 5 is_stmt 1 view .LVU361
 530:../Drivers/STM32L4xx_HAL_Driver/Src/stm32l4xx_ll_usb.c ****     {
 1193              		.loc 1 530 10 is_stmt 0 view .LVU362
 1194 0068 00EB4C10 		add	r0, r0, ip, lsl #5
 1195              	.LVL90:
 530:../Drivers/STM32L4xx_HAL_Driver/Src/stm32l4xx_ll_usb.c ****     {
 1196              		.loc 1 530 26 view .LVU363
 1197 006c D0F80039 		ldr	r3, [r0, #2304]
 530:../Drivers/STM32L4xx_HAL_Driver/Src/stm32l4xx_ll_usb.c ****     {
 1198              		.loc 1 530 8 view .LVU364
 1199 0070 13F4004F 		tst	r3, #32768
 1200 0074 ECD1     		bne	.L87
 532:../Drivers/STM32L4xx_HAL_Driver/Src/stm32l4xx_ll_usb.c ****                                    ((uint32_t)ep->type << 18) | (epnum << 22) |
 1201              		.loc 1 532 7 is_stmt 1 view .LVU365
ARM GAS  /tmp/ccJzOZLR.s 			page 51


 532:../Drivers/STM32L4xx_HAL_Driver/Src/stm32l4xx_ll_usb.c ****                                    ((uint32_t)ep->type << 18) | (epnum << 22) |
 1202              		.loc 1 532 33 is_stmt 0 view .LVU366
 1203 0076 D0F80039 		ldr	r3, [r0, #2304]
 532:../Drivers/STM32L4xx_HAL_Driver/Src/stm32l4xx_ll_usb.c ****                                    ((uint32_t)ep->type << 18) | (epnum << 22) |
 1204              		.loc 1 532 39 view .LVU367
 1205 007a CA68     		ldr	r2, [r1, #12]
 532:../Drivers/STM32L4xx_HAL_Driver/Src/stm32l4xx_ll_usb.c ****                                    ((uint32_t)ep->type << 18) | (epnum << 22) |
 1206              		.loc 1 532 51 view .LVU368
 1207 007c C2F30A02 		ubfx	r2, r2, #0, #11
 533:../Drivers/STM32L4xx_HAL_Driver/Src/stm32l4xx_ll_usb.c ****                                    USB_OTG_DIEPCTL_SD0PID_SEVNFRM |
 1208              		.loc 1 533 49 view .LVU369
 1209 0080 0979     		ldrb	r1, [r1, #4]	@ zero_extendqisi2
 1210              	.LVL91:
 532:../Drivers/STM32L4xx_HAL_Driver/Src/stm32l4xx_ll_usb.c ****                                    ((uint32_t)ep->type << 18) | (epnum << 22) |
 1211              		.loc 1 532 76 view .LVU370
 1212 0082 42EA8142 		orr	r2, r2, r1, lsl #18
 533:../Drivers/STM32L4xx_HAL_Driver/Src/stm32l4xx_ll_usb.c ****                                    USB_OTG_DIEPCTL_SD0PID_SEVNFRM |
 1213              		.loc 1 533 63 view .LVU371
 1214 0086 42EA8C5C 		orr	ip, r2, ip, lsl #22
 1215              	.LVL92:
 532:../Drivers/STM32L4xx_HAL_Driver/Src/stm32l4xx_ll_usb.c ****                                    ((uint32_t)ep->type << 18) | (epnum << 22) |
 1216              		.loc 1 532 33 view .LVU372
 1217 008a 43EA0C03 		orr	r3, r3, ip
 1218 008e 43F08053 		orr	r3, r3, #268435456
 1219 0092 43F40043 		orr	r3, r3, #32768
 1220 0096 C0F80039 		str	r3, [r0, #2304]
 1221 009a D9E7     		b	.L87
 1222              		.cfi_endproc
 1223              	.LFE142:
 1225              		.section	.text.USB_ActivateDedicatedEndpoint,"ax",%progbits
 1226              		.align	1
 1227              		.global	USB_ActivateDedicatedEndpoint
 1228              		.syntax unified
 1229              		.thumb
 1230              		.thumb_func
 1231              		.fpu fpv4-sp-d16
 1233              	USB_ActivateDedicatedEndpoint:
 1234              	.LVL93:
 1235              	.LFB143:
 560:../Drivers/STM32L4xx_HAL_Driver/Src/stm32l4xx_ll_usb.c ****   uint32_t USBx_BASE = (uint32_t)USBx;
 1236              		.loc 1 560 1 is_stmt 1 view -0
 1237              		.cfi_startproc
 1238              		@ args = 0, pretend = 0, frame = 0
 1239              		@ frame_needed = 0, uses_anonymous_args = 0
 560:../Drivers/STM32L4xx_HAL_Driver/Src/stm32l4xx_ll_usb.c ****   uint32_t USBx_BASE = (uint32_t)USBx;
 1240              		.loc 1 560 1 is_stmt 0 view .LVU374
 1241 0000 10B5     		push	{r4, lr}
 1242              	.LCFI20:
 1243              		.cfi_def_cfa_offset 8
 1244              		.cfi_offset 4, -8
 1245              		.cfi_offset 14, -4
 561:../Drivers/STM32L4xx_HAL_Driver/Src/stm32l4xx_ll_usb.c ****   uint32_t epnum = (uint32_t)ep->num;
 1246              		.loc 1 561 3 is_stmt 1 view .LVU375
 1247              	.LVL94:
 562:../Drivers/STM32L4xx_HAL_Driver/Src/stm32l4xx_ll_usb.c **** 
 1248              		.loc 1 562 3 view .LVU376
 562:../Drivers/STM32L4xx_HAL_Driver/Src/stm32l4xx_ll_usb.c **** 
ARM GAS  /tmp/ccJzOZLR.s 			page 52


 1249              		.loc 1 562 32 is_stmt 0 view .LVU377
 1250 0002 0A78     		ldrb	r2, [r1]	@ zero_extendqisi2
 1251              	.LVL95:
 565:../Drivers/STM32L4xx_HAL_Driver/Src/stm32l4xx_ll_usb.c ****   {
 1252              		.loc 1 565 3 is_stmt 1 view .LVU378
 565:../Drivers/STM32L4xx_HAL_Driver/Src/stm32l4xx_ll_usb.c ****   {
 1253              		.loc 1 565 9 is_stmt 0 view .LVU379
 1254 0004 4B78     		ldrb	r3, [r1, #1]	@ zero_extendqisi2
 565:../Drivers/STM32L4xx_HAL_Driver/Src/stm32l4xx_ll_usb.c ****   {
 1255              		.loc 1 565 6 view .LVU380
 1256 0006 012B     		cmp	r3, #1
 1257 0008 23D0     		beq	.L96
 579:../Drivers/STM32L4xx_HAL_Driver/Src/stm32l4xx_ll_usb.c ****     {
 1258              		.loc 1 579 5 is_stmt 1 view .LVU381
 579:../Drivers/STM32L4xx_HAL_Driver/Src/stm32l4xx_ll_usb.c ****     {
 1259              		.loc 1 579 11 is_stmt 0 view .LVU382
 1260 000a 00EB421C 		add	ip, r0, r2, lsl #5
 579:../Drivers/STM32L4xx_HAL_Driver/Src/stm32l4xx_ll_usb.c ****     {
 1261              		.loc 1 579 28 view .LVU383
 1262 000e DCF8003B 		ldr	r3, [ip, #2816]
 579:../Drivers/STM32L4xx_HAL_Driver/Src/stm32l4xx_ll_usb.c ****     {
 1263              		.loc 1 579 8 view .LVU384
 1264 0012 13F4004F 		tst	r3, #32768
 1265 0016 0FD1     		bne	.L94
 581:../Drivers/STM32L4xx_HAL_Driver/Src/stm32l4xx_ll_usb.c ****                                     ((uint32_t)ep->type << 18) | (epnum << 22) |
 1266              		.loc 1 581 7 is_stmt 1 view .LVU385
 581:../Drivers/STM32L4xx_HAL_Driver/Src/stm32l4xx_ll_usb.c ****                                     ((uint32_t)ep->type << 18) | (epnum << 22) |
 1267              		.loc 1 581 34 is_stmt 0 view .LVU386
 1268 0018 DCF8004B 		ldr	r4, [ip, #2816]
 581:../Drivers/STM32L4xx_HAL_Driver/Src/stm32l4xx_ll_usb.c ****                                     ((uint32_t)ep->type << 18) | (epnum << 22) |
 1269              		.loc 1 581 40 view .LVU387
 1270 001c CB68     		ldr	r3, [r1, #12]
 581:../Drivers/STM32L4xx_HAL_Driver/Src/stm32l4xx_ll_usb.c ****                                     ((uint32_t)ep->type << 18) | (epnum << 22) |
 1271              		.loc 1 581 52 view .LVU388
 1272 001e C3F30A03 		ubfx	r3, r3, #0, #11
 582:../Drivers/STM32L4xx_HAL_Driver/Src/stm32l4xx_ll_usb.c ****                                     USB_OTG_DOEPCTL_USBAEP;
 1273              		.loc 1 582 50 view .LVU389
 1274 0022 91F804E0 		ldrb	lr, [r1, #4]	@ zero_extendqisi2
 581:../Drivers/STM32L4xx_HAL_Driver/Src/stm32l4xx_ll_usb.c ****                                     ((uint32_t)ep->type << 18) | (epnum << 22) |
 1275              		.loc 1 581 77 view .LVU390
 1276 0026 43EA8E43 		orr	r3, r3, lr, lsl #18
 582:../Drivers/STM32L4xx_HAL_Driver/Src/stm32l4xx_ll_usb.c ****                                     USB_OTG_DOEPCTL_USBAEP;
 1277              		.loc 1 582 64 view .LVU391
 1278 002a 43EA8253 		orr	r3, r3, r2, lsl #22
 581:../Drivers/STM32L4xx_HAL_Driver/Src/stm32l4xx_ll_usb.c ****                                     ((uint32_t)ep->type << 18) | (epnum << 22) |
 1279              		.loc 1 581 34 view .LVU392
 1280 002e 2343     		orrs	r3, r3, r4
 1281 0030 43F40043 		orr	r3, r3, #32768
 1282 0034 CCF8003B 		str	r3, [ip, #2816]
 1283              	.L94:
 586:../Drivers/STM32L4xx_HAL_Driver/Src/stm32l4xx_ll_usb.c ****   }
 1284              		.loc 1 586 5 is_stmt 1 view .LVU393
 586:../Drivers/STM32L4xx_HAL_Driver/Src/stm32l4xx_ll_usb.c ****   }
 1285              		.loc 1 586 27 is_stmt 0 view .LVU394
 1286 0038 D0F83C38 		ldr	r3, [r0, #2108]
 586:../Drivers/STM32L4xx_HAL_Driver/Src/stm32l4xx_ll_usb.c ****   }
 1287              		.loc 1 586 76 view .LVU395
ARM GAS  /tmp/ccJzOZLR.s 			page 53


 1288 003c 0A78     		ldrb	r2, [r1]	@ zero_extendqisi2
 1289              	.LVL96:
 586:../Drivers/STM32L4xx_HAL_Driver/Src/stm32l4xx_ll_usb.c ****   }
 1290              		.loc 1 586 82 view .LVU396
 1291 003e 02F00F01 		and	r1, r2, #15
 1292              	.LVL97:
 586:../Drivers/STM32L4xx_HAL_Driver/Src/stm32l4xx_ll_usb.c ****   }
 1293              		.loc 1 586 55 view .LVU397
 1294 0042 0122     		movs	r2, #1
 1295 0044 8A40     		lsls	r2, r2, r1
 586:../Drivers/STM32L4xx_HAL_Driver/Src/stm32l4xx_ll_usb.c ****   }
 1296              		.loc 1 586 27 view .LVU398
 1297 0046 43EA0243 		orr	r3, r3, r2, lsl #16
 1298 004a C0F83C38 		str	r3, [r0, #2108]
 1299              	.L93:
 589:../Drivers/STM32L4xx_HAL_Driver/Src/stm32l4xx_ll_usb.c **** }
 1300              		.loc 1 589 3 is_stmt 1 view .LVU399
 590:../Drivers/STM32L4xx_HAL_Driver/Src/stm32l4xx_ll_usb.c **** 
 1301              		.loc 1 590 1 is_stmt 0 view .LVU400
 1302 004e 0020     		movs	r0, #0
 1303              	.LVL98:
 590:../Drivers/STM32L4xx_HAL_Driver/Src/stm32l4xx_ll_usb.c **** 
 1304              		.loc 1 590 1 view .LVU401
 1305 0050 10BD     		pop	{r4, pc}
 1306              	.LVL99:
 1307              	.L96:
 567:../Drivers/STM32L4xx_HAL_Driver/Src/stm32l4xx_ll_usb.c ****     {
 1308              		.loc 1 567 5 is_stmt 1 view .LVU402
 567:../Drivers/STM32L4xx_HAL_Driver/Src/stm32l4xx_ll_usb.c ****     {
 1309              		.loc 1 567 11 is_stmt 0 view .LVU403
 1310 0052 00EB421C 		add	ip, r0, r2, lsl #5
 567:../Drivers/STM32L4xx_HAL_Driver/Src/stm32l4xx_ll_usb.c ****     {
 1311              		.loc 1 567 27 view .LVU404
 1312 0056 DCF80039 		ldr	r3, [ip, #2304]
 567:../Drivers/STM32L4xx_HAL_Driver/Src/stm32l4xx_ll_usb.c ****     {
 1313              		.loc 1 567 8 view .LVU405
 1314 005a 13F4004F 		tst	r3, #32768
 1315 005e 11D1     		bne	.L92
 569:../Drivers/STM32L4xx_HAL_Driver/Src/stm32l4xx_ll_usb.c ****                                    ((uint32_t)ep->type << 18) | (epnum << 22) |
 1316              		.loc 1 569 7 is_stmt 1 view .LVU406
 569:../Drivers/STM32L4xx_HAL_Driver/Src/stm32l4xx_ll_usb.c ****                                    ((uint32_t)ep->type << 18) | (epnum << 22) |
 1317              		.loc 1 569 33 is_stmt 0 view .LVU407
 1318 0060 DCF80039 		ldr	r3, [ip, #2304]
 569:../Drivers/STM32L4xx_HAL_Driver/Src/stm32l4xx_ll_usb.c ****                                    ((uint32_t)ep->type << 18) | (epnum << 22) |
 1319              		.loc 1 569 39 view .LVU408
 1320 0064 CC68     		ldr	r4, [r1, #12]
 569:../Drivers/STM32L4xx_HAL_Driver/Src/stm32l4xx_ll_usb.c ****                                    ((uint32_t)ep->type << 18) | (epnum << 22) |
 1321              		.loc 1 569 51 view .LVU409
 1322 0066 C4F30A04 		ubfx	r4, r4, #0, #11
 570:../Drivers/STM32L4xx_HAL_Driver/Src/stm32l4xx_ll_usb.c ****                                    USB_OTG_DIEPCTL_SD0PID_SEVNFRM |
 1323              		.loc 1 570 49 view .LVU410
 1324 006a 91F804E0 		ldrb	lr, [r1, #4]	@ zero_extendqisi2
 569:../Drivers/STM32L4xx_HAL_Driver/Src/stm32l4xx_ll_usb.c ****                                    ((uint32_t)ep->type << 18) | (epnum << 22) |
 1325              		.loc 1 569 76 view .LVU411
 1326 006e 44EA8E44 		orr	r4, r4, lr, lsl #18
 570:../Drivers/STM32L4xx_HAL_Driver/Src/stm32l4xx_ll_usb.c ****                                    USB_OTG_DIEPCTL_SD0PID_SEVNFRM |
 1327              		.loc 1 570 63 view .LVU412
ARM GAS  /tmp/ccJzOZLR.s 			page 54


 1328 0072 44EA8252 		orr	r2, r4, r2, lsl #22
 1329              	.LVL100:
 569:../Drivers/STM32L4xx_HAL_Driver/Src/stm32l4xx_ll_usb.c ****                                    ((uint32_t)ep->type << 18) | (epnum << 22) |
 1330              		.loc 1 569 33 view .LVU413
 1331 0076 1343     		orrs	r3, r3, r2
 1332 0078 43F08053 		orr	r3, r3, #268435456
 1333 007c 43F40043 		orr	r3, r3, #32768
 1334 0080 CCF80039 		str	r3, [ip, #2304]
 1335              	.LVL101:
 1336              	.L92:
 575:../Drivers/STM32L4xx_HAL_Driver/Src/stm32l4xx_ll_usb.c ****   }
 1337              		.loc 1 575 5 is_stmt 1 view .LVU414
 575:../Drivers/STM32L4xx_HAL_Driver/Src/stm32l4xx_ll_usb.c ****   }
 1338              		.loc 1 575 27 is_stmt 0 view .LVU415
 1339 0084 D0F83C28 		ldr	r2, [r0, #2108]
 575:../Drivers/STM32L4xx_HAL_Driver/Src/stm32l4xx_ll_usb.c ****   }
 1340              		.loc 1 575 75 view .LVU416
 1341 0088 0B78     		ldrb	r3, [r1]	@ zero_extendqisi2
 575:../Drivers/STM32L4xx_HAL_Driver/Src/stm32l4xx_ll_usb.c ****   }
 1342              		.loc 1 575 81 view .LVU417
 1343 008a 03F00F01 		and	r1, r3, #15
 1344              	.LVL102:
 575:../Drivers/STM32L4xx_HAL_Driver/Src/stm32l4xx_ll_usb.c ****   }
 1345              		.loc 1 575 54 view .LVU418
 1346 008e 0123     		movs	r3, #1
 1347 0090 8B40     		lsls	r3, r3, r1
 575:../Drivers/STM32L4xx_HAL_Driver/Src/stm32l4xx_ll_usb.c ****   }
 1348              		.loc 1 575 52 view .LVU419
 1349 0092 9BB2     		uxth	r3, r3
 575:../Drivers/STM32L4xx_HAL_Driver/Src/stm32l4xx_ll_usb.c ****   }
 1350              		.loc 1 575 27 view .LVU420
 1351 0094 1343     		orrs	r3, r3, r2
 1352 0096 C0F83C38 		str	r3, [r0, #2108]
 1353 009a D8E7     		b	.L93
 1354              		.cfi_endproc
 1355              	.LFE143:
 1357              		.section	.text.USB_DeactivateEndpoint,"ax",%progbits
 1358              		.align	1
 1359              		.global	USB_DeactivateEndpoint
 1360              		.syntax unified
 1361              		.thumb
 1362              		.thumb_func
 1363              		.fpu fpv4-sp-d16
 1365              	USB_DeactivateEndpoint:
 1366              	.LVL103:
 1367              	.LFB144:
 599:../Drivers/STM32L4xx_HAL_Driver/Src/stm32l4xx_ll_usb.c ****   uint32_t USBx_BASE = (uint32_t)USBx;
 1368              		.loc 1 599 1 is_stmt 1 view -0
 1369              		.cfi_startproc
 1370              		@ args = 0, pretend = 0, frame = 0
 1371              		@ frame_needed = 0, uses_anonymous_args = 0
 1372              		@ link register save eliminated.
 599:../Drivers/STM32L4xx_HAL_Driver/Src/stm32l4xx_ll_usb.c ****   uint32_t USBx_BASE = (uint32_t)USBx;
 1373              		.loc 1 599 1 is_stmt 0 view .LVU422
 1374 0000 30B4     		push	{r4, r5}
 1375              	.LCFI21:
 1376              		.cfi_def_cfa_offset 8
ARM GAS  /tmp/ccJzOZLR.s 			page 55


 1377              		.cfi_offset 4, -8
 1378              		.cfi_offset 5, -4
 600:../Drivers/STM32L4xx_HAL_Driver/Src/stm32l4xx_ll_usb.c ****   uint32_t epnum = (uint32_t)ep->num;
 1379              		.loc 1 600 3 is_stmt 1 view .LVU423
 1380              	.LVL104:
 601:../Drivers/STM32L4xx_HAL_Driver/Src/stm32l4xx_ll_usb.c **** 
 1381              		.loc 1 601 3 view .LVU424
 601:../Drivers/STM32L4xx_HAL_Driver/Src/stm32l4xx_ll_usb.c **** 
 1382              		.loc 1 601 32 is_stmt 0 view .LVU425
 1383 0002 0B78     		ldrb	r3, [r1]	@ zero_extendqisi2
 1384              	.LVL105:
 604:../Drivers/STM32L4xx_HAL_Driver/Src/stm32l4xx_ll_usb.c ****   {
 1385              		.loc 1 604 3 is_stmt 1 view .LVU426
 604:../Drivers/STM32L4xx_HAL_Driver/Src/stm32l4xx_ll_usb.c ****   {
 1386              		.loc 1 604 9 is_stmt 0 view .LVU427
 1387 0004 4A78     		ldrb	r2, [r1, #1]	@ zero_extendqisi2
 604:../Drivers/STM32L4xx_HAL_Driver/Src/stm32l4xx_ll_usb.c ****   {
 1388              		.loc 1 604 6 view .LVU428
 1389 0006 012A     		cmp	r2, #1
 1390 0008 26D0     		beq	.L103
 622:../Drivers/STM32L4xx_HAL_Driver/Src/stm32l4xx_ll_usb.c ****     {
 1391              		.loc 1 622 5 is_stmt 1 view .LVU429
 622:../Drivers/STM32L4xx_HAL_Driver/Src/stm32l4xx_ll_usb.c ****     {
 1392              		.loc 1 622 10 is_stmt 0 view .LVU430
 1393 000a 00EB4313 		add	r3, r0, r3, lsl #5
 1394              	.LVL106:
 622:../Drivers/STM32L4xx_HAL_Driver/Src/stm32l4xx_ll_usb.c ****     {
 1395              		.loc 1 622 27 view .LVU431
 1396 000e D3F8002B 		ldr	r2, [r3, #2816]
 622:../Drivers/STM32L4xx_HAL_Driver/Src/stm32l4xx_ll_usb.c ****     {
 1397              		.loc 1 622 8 view .LVU432
 1398 0012 002A     		cmp	r2, #0
 1399 0014 52DB     		blt	.L104
 1400              	.LVL107:
 1401              	.L101:
 628:../Drivers/STM32L4xx_HAL_Driver/Src/stm32l4xx_ll_usb.c ****     USBx_DEVICE->DAINTMSK &= ~(USB_OTG_DAINTMSK_OEPM & ((uint32_t)(1UL << (ep->num & EP_ADDR_MSK)) 
 1402              		.loc 1 628 5 is_stmt 1 view .LVU433
 628:../Drivers/STM32L4xx_HAL_Driver/Src/stm32l4xx_ll_usb.c ****     USBx_DEVICE->DAINTMSK &= ~(USB_OTG_DAINTMSK_OEPM & ((uint32_t)(1UL << (ep->num & EP_ADDR_MSK)) 
 1403              		.loc 1 628 27 is_stmt 0 view .LVU434
 1404 0016 D0F83C48 		ldr	r4, [r0, #2108]
 628:../Drivers/STM32L4xx_HAL_Driver/Src/stm32l4xx_ll_usb.c ****     USBx_DEVICE->DAINTMSK &= ~(USB_OTG_DAINTMSK_OEPM & ((uint32_t)(1UL << (ep->num & EP_ADDR_MSK)) 
 1405              		.loc 1 628 78 view .LVU435
 1406 001a 0A78     		ldrb	r2, [r1]	@ zero_extendqisi2
 628:../Drivers/STM32L4xx_HAL_Driver/Src/stm32l4xx_ll_usb.c ****     USBx_DEVICE->DAINTMSK &= ~(USB_OTG_DAINTMSK_OEPM & ((uint32_t)(1UL << (ep->num & EP_ADDR_MSK)) 
 1407              		.loc 1 628 84 view .LVU436
 1408 001c 02F00F02 		and	r2, r2, #15
 628:../Drivers/STM32L4xx_HAL_Driver/Src/stm32l4xx_ll_usb.c ****     USBx_DEVICE->DAINTMSK &= ~(USB_OTG_DAINTMSK_OEPM & ((uint32_t)(1UL << (ep->num & EP_ADDR_MSK)) 
 1409              		.loc 1 628 57 view .LVU437
 1410 0020 4FF0010C 		mov	ip, #1
 1411 0024 0CFA02F2 		lsl	r2, ip, r2
 628:../Drivers/STM32L4xx_HAL_Driver/Src/stm32l4xx_ll_usb.c ****     USBx_DEVICE->DAINTMSK &= ~(USB_OTG_DAINTMSK_OEPM & ((uint32_t)(1UL << (ep->num & EP_ADDR_MSK)) 
 1412              		.loc 1 628 27 view .LVU438
 1413 0028 24EA0242 		bic	r2, r4, r2, lsl #16
 1414 002c C0F83C28 		str	r2, [r0, #2108]
 629:../Drivers/STM32L4xx_HAL_Driver/Src/stm32l4xx_ll_usb.c ****     USBx_OUTEP(epnum)->DOEPCTL &= ~(USB_OTG_DOEPCTL_USBAEP |
 1415              		.loc 1 629 5 is_stmt 1 view .LVU439
 629:../Drivers/STM32L4xx_HAL_Driver/Src/stm32l4xx_ll_usb.c ****     USBx_OUTEP(epnum)->DOEPCTL &= ~(USB_OTG_DOEPCTL_USBAEP |
ARM GAS  /tmp/ccJzOZLR.s 			page 56


 1416              		.loc 1 629 27 is_stmt 0 view .LVU440
 1417 0030 D0F81C28 		ldr	r2, [r0, #2076]
 629:../Drivers/STM32L4xx_HAL_Driver/Src/stm32l4xx_ll_usb.c ****     USBx_OUTEP(epnum)->DOEPCTL &= ~(USB_OTG_DOEPCTL_USBAEP |
 1418              		.loc 1 629 78 view .LVU441
 1419 0034 0978     		ldrb	r1, [r1]	@ zero_extendqisi2
 1420              	.LVL108:
 629:../Drivers/STM32L4xx_HAL_Driver/Src/stm32l4xx_ll_usb.c ****     USBx_OUTEP(epnum)->DOEPCTL &= ~(USB_OTG_DOEPCTL_USBAEP |
 1421              		.loc 1 629 84 view .LVU442
 1422 0036 01F00F01 		and	r1, r1, #15
 629:../Drivers/STM32L4xx_HAL_Driver/Src/stm32l4xx_ll_usb.c ****     USBx_OUTEP(epnum)->DOEPCTL &= ~(USB_OTG_DOEPCTL_USBAEP |
 1423              		.loc 1 629 57 view .LVU443
 1424 003a 0CFA01FC 		lsl	ip, ip, r1
 629:../Drivers/STM32L4xx_HAL_Driver/Src/stm32l4xx_ll_usb.c ****     USBx_OUTEP(epnum)->DOEPCTL &= ~(USB_OTG_DOEPCTL_USBAEP |
 1425              		.loc 1 629 27 view .LVU444
 1426 003e 22EA0C42 		bic	r2, r2, ip, lsl #16
 1427 0042 C0F81C28 		str	r2, [r0, #2076]
 630:../Drivers/STM32L4xx_HAL_Driver/Src/stm32l4xx_ll_usb.c ****                                     USB_OTG_DOEPCTL_MPSIZ |
 1428              		.loc 1 630 5 is_stmt 1 view .LVU445
 630:../Drivers/STM32L4xx_HAL_Driver/Src/stm32l4xx_ll_usb.c ****                                     USB_OTG_DOEPCTL_MPSIZ |
 1429              		.loc 1 630 32 is_stmt 0 view .LVU446
 1430 0046 D3F8001B 		ldr	r1, [r3, #2816]
 1431 004a 234A     		ldr	r2, .L106
 1432 004c 0A40     		ands	r2, r2, r1
 1433 004e C3F8002B 		str	r2, [r3, #2816]
 1434              	.L100:
 636:../Drivers/STM32L4xx_HAL_Driver/Src/stm32l4xx_ll_usb.c **** }
 1435              		.loc 1 636 3 is_stmt 1 view .LVU447
 637:../Drivers/STM32L4xx_HAL_Driver/Src/stm32l4xx_ll_usb.c **** 
 1436              		.loc 1 637 1 is_stmt 0 view .LVU448
 1437 0052 0020     		movs	r0, #0
 1438              	.LVL109:
 637:../Drivers/STM32L4xx_HAL_Driver/Src/stm32l4xx_ll_usb.c **** 
 1439              		.loc 1 637 1 view .LVU449
 1440 0054 30BC     		pop	{r4, r5}
 1441              	.LCFI22:
 1442              		.cfi_remember_state
 1443              		.cfi_restore 5
 1444              		.cfi_restore 4
 1445              		.cfi_def_cfa_offset 0
 1446 0056 7047     		bx	lr
 1447              	.LVL110:
 1448              	.L103:
 1449              	.LCFI23:
 1450              		.cfi_restore_state
 606:../Drivers/STM32L4xx_HAL_Driver/Src/stm32l4xx_ll_usb.c ****     {
 1451              		.loc 1 606 5 is_stmt 1 view .LVU450
 606:../Drivers/STM32L4xx_HAL_Driver/Src/stm32l4xx_ll_usb.c ****     {
 1452              		.loc 1 606 10 is_stmt 0 view .LVU451
 1453 0058 00EB4313 		add	r3, r0, r3, lsl #5
 1454              	.LVL111:
 606:../Drivers/STM32L4xx_HAL_Driver/Src/stm32l4xx_ll_usb.c ****     {
 1455              		.loc 1 606 26 view .LVU452
 1456 005c D3F80029 		ldr	r2, [r3, #2304]
 606:../Drivers/STM32L4xx_HAL_Driver/Src/stm32l4xx_ll_usb.c ****     {
 1457              		.loc 1 606 8 view .LVU453
 1458 0060 002A     		cmp	r2, #0
 1459 0062 1EDB     		blt	.L105
ARM GAS  /tmp/ccJzOZLR.s 			page 57


 1460              	.LVL112:
 1461              	.L99:
 612:../Drivers/STM32L4xx_HAL_Driver/Src/stm32l4xx_ll_usb.c ****     USBx_DEVICE->DAINTMSK &= ~(USB_OTG_DAINTMSK_IEPM & (uint32_t)(1UL << (ep->num & EP_ADDR_MSK)));
 1462              		.loc 1 612 5 is_stmt 1 view .LVU454
 612:../Drivers/STM32L4xx_HAL_Driver/Src/stm32l4xx_ll_usb.c ****     USBx_DEVICE->DAINTMSK &= ~(USB_OTG_DAINTMSK_IEPM & (uint32_t)(1UL << (ep->num & EP_ADDR_MSK)));
 1463              		.loc 1 612 27 is_stmt 0 view .LVU455
 1464 0064 D0F83C58 		ldr	r5, [r0, #2108]
 612:../Drivers/STM32L4xx_HAL_Driver/Src/stm32l4xx_ll_usb.c ****     USBx_DEVICE->DAINTMSK &= ~(USB_OTG_DAINTMSK_IEPM & (uint32_t)(1UL << (ep->num & EP_ADDR_MSK)));
 1465              		.loc 1 612 77 view .LVU456
 1466 0068 0A78     		ldrb	r2, [r1]	@ zero_extendqisi2
 612:../Drivers/STM32L4xx_HAL_Driver/Src/stm32l4xx_ll_usb.c ****     USBx_DEVICE->DAINTMSK &= ~(USB_OTG_DAINTMSK_IEPM & (uint32_t)(1UL << (ep->num & EP_ADDR_MSK)));
 1467              		.loc 1 612 83 view .LVU457
 1468 006a 02F00F02 		and	r2, r2, #15
 612:../Drivers/STM32L4xx_HAL_Driver/Src/stm32l4xx_ll_usb.c ****     USBx_DEVICE->DAINTMSK &= ~(USB_OTG_DAINTMSK_IEPM & (uint32_t)(1UL << (ep->num & EP_ADDR_MSK)));
 1469              		.loc 1 612 56 view .LVU458
 1470 006e 0124     		movs	r4, #1
 1471 0070 04FA02F2 		lsl	r2, r4, r2
 612:../Drivers/STM32L4xx_HAL_Driver/Src/stm32l4xx_ll_usb.c ****     USBx_DEVICE->DAINTMSK &= ~(USB_OTG_DAINTMSK_IEPM & (uint32_t)(1UL << (ep->num & EP_ADDR_MSK)));
 1472              		.loc 1 612 54 view .LVU459
 1473 0074 92B2     		uxth	r2, r2
 612:../Drivers/STM32L4xx_HAL_Driver/Src/stm32l4xx_ll_usb.c ****     USBx_DEVICE->DAINTMSK &= ~(USB_OTG_DAINTMSK_IEPM & (uint32_t)(1UL << (ep->num & EP_ADDR_MSK)));
 1474              		.loc 1 612 27 view .LVU460
 1475 0076 25EA0202 		bic	r2, r5, r2
 1476 007a C0F83C28 		str	r2, [r0, #2108]
 613:../Drivers/STM32L4xx_HAL_Driver/Src/stm32l4xx_ll_usb.c ****     USBx_INEP(epnum)->DIEPCTL &= ~(USB_OTG_DIEPCTL_USBAEP |
 1477              		.loc 1 613 5 is_stmt 1 view .LVU461
 613:../Drivers/STM32L4xx_HAL_Driver/Src/stm32l4xx_ll_usb.c ****     USBx_INEP(epnum)->DIEPCTL &= ~(USB_OTG_DIEPCTL_USBAEP |
 1478              		.loc 1 613 27 is_stmt 0 view .LVU462
 1479 007e D0F81C28 		ldr	r2, [r0, #2076]
 613:../Drivers/STM32L4xx_HAL_Driver/Src/stm32l4xx_ll_usb.c ****     USBx_INEP(epnum)->DIEPCTL &= ~(USB_OTG_DIEPCTL_USBAEP |
 1480              		.loc 1 613 77 view .LVU463
 1481 0082 0978     		ldrb	r1, [r1]	@ zero_extendqisi2
 1482              	.LVL113:
 613:../Drivers/STM32L4xx_HAL_Driver/Src/stm32l4xx_ll_usb.c ****     USBx_INEP(epnum)->DIEPCTL &= ~(USB_OTG_DIEPCTL_USBAEP |
 1483              		.loc 1 613 83 view .LVU464
 1484 0084 01F00F01 		and	r1, r1, #15
 613:../Drivers/STM32L4xx_HAL_Driver/Src/stm32l4xx_ll_usb.c ****     USBx_INEP(epnum)->DIEPCTL &= ~(USB_OTG_DIEPCTL_USBAEP |
 1485              		.loc 1 613 56 view .LVU465
 1486 0088 8C40     		lsls	r4, r4, r1
 613:../Drivers/STM32L4xx_HAL_Driver/Src/stm32l4xx_ll_usb.c ****     USBx_INEP(epnum)->DIEPCTL &= ~(USB_OTG_DIEPCTL_USBAEP |
 1487              		.loc 1 613 54 view .LVU466
 1488 008a A4B2     		uxth	r4, r4
 613:../Drivers/STM32L4xx_HAL_Driver/Src/stm32l4xx_ll_usb.c ****     USBx_INEP(epnum)->DIEPCTL &= ~(USB_OTG_DIEPCTL_USBAEP |
 1489              		.loc 1 613 27 view .LVU467
 1490 008c 22EA0404 		bic	r4, r2, r4
 1491 0090 C0F81C48 		str	r4, [r0, #2076]
 614:../Drivers/STM32L4xx_HAL_Driver/Src/stm32l4xx_ll_usb.c ****                                    USB_OTG_DIEPCTL_MPSIZ |
 1492              		.loc 1 614 5 is_stmt 1 view .LVU468
 614:../Drivers/STM32L4xx_HAL_Driver/Src/stm32l4xx_ll_usb.c ****                                    USB_OTG_DIEPCTL_MPSIZ |
 1493              		.loc 1 614 31 is_stmt 0 view .LVU469
 1494 0094 D3F80019 		ldr	r1, [r3, #2304]
 1495 0098 104A     		ldr	r2, .L106+4
 1496 009a 0A40     		ands	r2, r2, r1
 1497 009c C3F80029 		str	r2, [r3, #2304]
 1498 00a0 D7E7     		b	.L100
 1499              	.LVL114:
 1500              	.L105:
ARM GAS  /tmp/ccJzOZLR.s 			page 58


 608:../Drivers/STM32L4xx_HAL_Driver/Src/stm32l4xx_ll_usb.c ****       USBx_INEP(epnum)->DIEPCTL |= USB_OTG_DIEPCTL_EPDIS;
 1501              		.loc 1 608 7 is_stmt 1 view .LVU470
 608:../Drivers/STM32L4xx_HAL_Driver/Src/stm32l4xx_ll_usb.c ****       USBx_INEP(epnum)->DIEPCTL |= USB_OTG_DIEPCTL_EPDIS;
 1502              		.loc 1 608 33 is_stmt 0 view .LVU471
 1503 00a2 D3F80029 		ldr	r2, [r3, #2304]
 1504 00a6 42F00062 		orr	r2, r2, #134217728
 1505 00aa C3F80029 		str	r2, [r3, #2304]
 1506              	.LVL115:
 609:../Drivers/STM32L4xx_HAL_Driver/Src/stm32l4xx_ll_usb.c ****     }
 1507              		.loc 1 609 7 is_stmt 1 view .LVU472
 609:../Drivers/STM32L4xx_HAL_Driver/Src/stm32l4xx_ll_usb.c ****     }
 1508              		.loc 1 609 33 is_stmt 0 view .LVU473
 1509 00ae D3F80029 		ldr	r2, [r3, #2304]
 1510 00b2 42F08042 		orr	r2, r2, #1073741824
 1511 00b6 C3F80029 		str	r2, [r3, #2304]
 1512 00ba D3E7     		b	.L99
 1513              	.LVL116:
 1514              	.L104:
 624:../Drivers/STM32L4xx_HAL_Driver/Src/stm32l4xx_ll_usb.c ****       USBx_OUTEP(epnum)->DOEPCTL |= USB_OTG_DOEPCTL_EPDIS;
 1515              		.loc 1 624 7 is_stmt 1 view .LVU474
 624:../Drivers/STM32L4xx_HAL_Driver/Src/stm32l4xx_ll_usb.c ****       USBx_OUTEP(epnum)->DOEPCTL |= USB_OTG_DOEPCTL_EPDIS;
 1516              		.loc 1 624 34 is_stmt 0 view .LVU475
 1517 00bc D3F8002B 		ldr	r2, [r3, #2816]
 1518 00c0 42F00062 		orr	r2, r2, #134217728
 1519 00c4 C3F8002B 		str	r2, [r3, #2816]
 1520              	.LVL117:
 625:../Drivers/STM32L4xx_HAL_Driver/Src/stm32l4xx_ll_usb.c ****     }
 1521              		.loc 1 625 7 is_stmt 1 view .LVU476
 625:../Drivers/STM32L4xx_HAL_Driver/Src/stm32l4xx_ll_usb.c ****     }
 1522              		.loc 1 625 34 is_stmt 0 view .LVU477
 1523 00c8 D3F8002B 		ldr	r2, [r3, #2816]
 1524 00cc 42F08042 		orr	r2, r2, #1073741824
 1525 00d0 C3F8002B 		str	r2, [r3, #2816]
 1526 00d4 9FE7     		b	.L101
 1527              	.L107:
 1528 00d6 00BF     		.align	2
 1529              	.L106:
 1530 00d8 0078F3EF 		.word	-269256704
 1531 00dc 007833EC 		.word	-332171264
 1532              		.cfi_endproc
 1533              	.LFE144:
 1535              		.section	.text.USB_DeactivateDedicatedEndpoint,"ax",%progbits
 1536              		.align	1
 1537              		.global	USB_DeactivateDedicatedEndpoint
 1538              		.syntax unified
 1539              		.thumb
 1540              		.thumb_func
 1541              		.fpu fpv4-sp-d16
 1543              	USB_DeactivateDedicatedEndpoint:
 1544              	.LVL118:
 1545              	.LFB145:
 646:../Drivers/STM32L4xx_HAL_Driver/Src/stm32l4xx_ll_usb.c ****   uint32_t USBx_BASE = (uint32_t)USBx;
 1546              		.loc 1 646 1 is_stmt 1 view -0
 1547              		.cfi_startproc
 1548              		@ args = 0, pretend = 0, frame = 0
 1549              		@ frame_needed = 0, uses_anonymous_args = 0
 1550              		@ link register save eliminated.
ARM GAS  /tmp/ccJzOZLR.s 			page 59


 647:../Drivers/STM32L4xx_HAL_Driver/Src/stm32l4xx_ll_usb.c ****   uint32_t epnum = (uint32_t)ep->num;
 1551              		.loc 1 647 3 view .LVU479
 648:../Drivers/STM32L4xx_HAL_Driver/Src/stm32l4xx_ll_usb.c **** 
 1552              		.loc 1 648 3 view .LVU480
 648:../Drivers/STM32L4xx_HAL_Driver/Src/stm32l4xx_ll_usb.c **** 
 1553              		.loc 1 648 32 is_stmt 0 view .LVU481
 1554 0000 0B78     		ldrb	r3, [r1]	@ zero_extendqisi2
 1555              	.LVL119:
 651:../Drivers/STM32L4xx_HAL_Driver/Src/stm32l4xx_ll_usb.c ****   {
 1556              		.loc 1 651 3 is_stmt 1 view .LVU482
 651:../Drivers/STM32L4xx_HAL_Driver/Src/stm32l4xx_ll_usb.c ****   {
 1557              		.loc 1 651 9 is_stmt 0 view .LVU483
 1558 0002 4A78     		ldrb	r2, [r1, #1]	@ zero_extendqisi2
 651:../Drivers/STM32L4xx_HAL_Driver/Src/stm32l4xx_ll_usb.c ****   {
 1559              		.loc 1 651 6 view .LVU484
 1560 0004 012A     		cmp	r2, #1
 1561 0006 18D0     		beq	.L113
 664:../Drivers/STM32L4xx_HAL_Driver/Src/stm32l4xx_ll_usb.c ****     {
 1562              		.loc 1 664 5 is_stmt 1 view .LVU485
 664:../Drivers/STM32L4xx_HAL_Driver/Src/stm32l4xx_ll_usb.c ****     {
 1563              		.loc 1 664 10 is_stmt 0 view .LVU486
 1564 0008 00EB4313 		add	r3, r0, r3, lsl #5
 1565              	.LVL120:
 664:../Drivers/STM32L4xx_HAL_Driver/Src/stm32l4xx_ll_usb.c ****     {
 1566              		.loc 1 664 27 view .LVU487
 1567 000c D3F8002B 		ldr	r2, [r3, #2816]
 664:../Drivers/STM32L4xx_HAL_Driver/Src/stm32l4xx_ll_usb.c ****     {
 1568              		.loc 1 664 8 view .LVU488
 1569 0010 002A     		cmp	r2, #0
 1570 0012 38DB     		blt	.L114
 1571              	.LVL121:
 1572              	.L112:
 670:../Drivers/STM32L4xx_HAL_Driver/Src/stm32l4xx_ll_usb.c ****     USBx_DEVICE->DAINTMSK &= ~(USB_OTG_DAINTMSK_OEPM & ((uint32_t)(1UL << (ep->num & EP_ADDR_MSK)) 
 1573              		.loc 1 670 5 is_stmt 1 view .LVU489
 670:../Drivers/STM32L4xx_HAL_Driver/Src/stm32l4xx_ll_usb.c ****     USBx_DEVICE->DAINTMSK &= ~(USB_OTG_DAINTMSK_OEPM & ((uint32_t)(1UL << (ep->num & EP_ADDR_MSK)) 
 1574              		.loc 1 670 32 is_stmt 0 view .LVU490
 1575 0014 D3F8002B 		ldr	r2, [r3, #2816]
 1576 0018 22F40042 		bic	r2, r2, #32768
 1577 001c C3F8002B 		str	r2, [r3, #2816]
 671:../Drivers/STM32L4xx_HAL_Driver/Src/stm32l4xx_ll_usb.c ****   }
 1578              		.loc 1 671 5 is_stmt 1 view .LVU491
 671:../Drivers/STM32L4xx_HAL_Driver/Src/stm32l4xx_ll_usb.c ****   }
 1579              		.loc 1 671 27 is_stmt 0 view .LVU492
 1580 0020 D0F81C38 		ldr	r3, [r0, #2076]
 671:../Drivers/STM32L4xx_HAL_Driver/Src/stm32l4xx_ll_usb.c ****   }
 1581              		.loc 1 671 78 view .LVU493
 1582 0024 0A78     		ldrb	r2, [r1]	@ zero_extendqisi2
 671:../Drivers/STM32L4xx_HAL_Driver/Src/stm32l4xx_ll_usb.c ****   }
 1583              		.loc 1 671 84 view .LVU494
 1584 0026 02F00F01 		and	r1, r2, #15
 1585              	.LVL122:
 671:../Drivers/STM32L4xx_HAL_Driver/Src/stm32l4xx_ll_usb.c ****   }
 1586              		.loc 1 671 57 view .LVU495
 1587 002a 0122     		movs	r2, #1
 1588 002c 8A40     		lsls	r2, r2, r1
 671:../Drivers/STM32L4xx_HAL_Driver/Src/stm32l4xx_ll_usb.c ****   }
 1589              		.loc 1 671 27 view .LVU496
ARM GAS  /tmp/ccJzOZLR.s 			page 60


 1590 002e 23EA0243 		bic	r3, r3, r2, lsl #16
 1591 0032 C0F81C38 		str	r3, [r0, #2076]
 1592              	.L111:
 674:../Drivers/STM32L4xx_HAL_Driver/Src/stm32l4xx_ll_usb.c **** }
 1593              		.loc 1 674 3 is_stmt 1 view .LVU497
 675:../Drivers/STM32L4xx_HAL_Driver/Src/stm32l4xx_ll_usb.c **** 
 1594              		.loc 1 675 1 is_stmt 0 view .LVU498
 1595 0036 0020     		movs	r0, #0
 1596              	.LVL123:
 675:../Drivers/STM32L4xx_HAL_Driver/Src/stm32l4xx_ll_usb.c **** 
 1597              		.loc 1 675 1 view .LVU499
 1598 0038 7047     		bx	lr
 1599              	.LVL124:
 1600              	.L113:
 653:../Drivers/STM32L4xx_HAL_Driver/Src/stm32l4xx_ll_usb.c ****     {
 1601              		.loc 1 653 5 is_stmt 1 view .LVU500
 653:../Drivers/STM32L4xx_HAL_Driver/Src/stm32l4xx_ll_usb.c ****     {
 1602              		.loc 1 653 10 is_stmt 0 view .LVU501
 1603 003a 00EB4313 		add	r3, r0, r3, lsl #5
 1604              	.LVL125:
 653:../Drivers/STM32L4xx_HAL_Driver/Src/stm32l4xx_ll_usb.c ****     {
 1605              		.loc 1 653 26 view .LVU502
 1606 003e D3F80029 		ldr	r2, [r3, #2304]
 653:../Drivers/STM32L4xx_HAL_Driver/Src/stm32l4xx_ll_usb.c ****     {
 1607              		.loc 1 653 8 view .LVU503
 1608 0042 002A     		cmp	r2, #0
 1609 0044 12DB     		blt	.L115
 1610              	.LVL126:
 1611              	.L110:
 659:../Drivers/STM32L4xx_HAL_Driver/Src/stm32l4xx_ll_usb.c ****     USBx_DEVICE->DAINTMSK &= ~(USB_OTG_DAINTMSK_IEPM & (uint32_t)(1UL << (ep->num & EP_ADDR_MSK)));
 1612              		.loc 1 659 5 is_stmt 1 view .LVU504
 659:../Drivers/STM32L4xx_HAL_Driver/Src/stm32l4xx_ll_usb.c ****     USBx_DEVICE->DAINTMSK &= ~(USB_OTG_DAINTMSK_IEPM & (uint32_t)(1UL << (ep->num & EP_ADDR_MSK)));
 1613              		.loc 1 659 31 is_stmt 0 view .LVU505
 1614 0046 D3F80029 		ldr	r2, [r3, #2304]
 1615 004a 22F40042 		bic	r2, r2, #32768
 1616 004e C3F80029 		str	r2, [r3, #2304]
 660:../Drivers/STM32L4xx_HAL_Driver/Src/stm32l4xx_ll_usb.c ****   }
 1617              		.loc 1 660 5 is_stmt 1 view .LVU506
 660:../Drivers/STM32L4xx_HAL_Driver/Src/stm32l4xx_ll_usb.c ****   }
 1618              		.loc 1 660 27 is_stmt 0 view .LVU507
 1619 0052 D0F81C28 		ldr	r2, [r0, #2076]
 660:../Drivers/STM32L4xx_HAL_Driver/Src/stm32l4xx_ll_usb.c ****   }
 1620              		.loc 1 660 77 view .LVU508
 1621 0056 0B78     		ldrb	r3, [r1]	@ zero_extendqisi2
 660:../Drivers/STM32L4xx_HAL_Driver/Src/stm32l4xx_ll_usb.c ****   }
 1622              		.loc 1 660 83 view .LVU509
 1623 0058 03F00F01 		and	r1, r3, #15
 1624              	.LVL127:
 660:../Drivers/STM32L4xx_HAL_Driver/Src/stm32l4xx_ll_usb.c ****   }
 1625              		.loc 1 660 56 view .LVU510
 1626 005c 0123     		movs	r3, #1
 1627 005e 8B40     		lsls	r3, r3, r1
 660:../Drivers/STM32L4xx_HAL_Driver/Src/stm32l4xx_ll_usb.c ****   }
 1628              		.loc 1 660 54 view .LVU511
 1629 0060 9BB2     		uxth	r3, r3
 660:../Drivers/STM32L4xx_HAL_Driver/Src/stm32l4xx_ll_usb.c ****   }
 1630              		.loc 1 660 27 view .LVU512
ARM GAS  /tmp/ccJzOZLR.s 			page 61


 1631 0062 22EA0303 		bic	r3, r2, r3
 1632 0066 C0F81C38 		str	r3, [r0, #2076]
 1633 006a E4E7     		b	.L111
 1634              	.LVL128:
 1635              	.L115:
 655:../Drivers/STM32L4xx_HAL_Driver/Src/stm32l4xx_ll_usb.c ****       USBx_INEP(epnum)->DIEPCTL  |= USB_OTG_DIEPCTL_EPDIS;
 1636              		.loc 1 655 7 is_stmt 1 view .LVU513
 655:../Drivers/STM32L4xx_HAL_Driver/Src/stm32l4xx_ll_usb.c ****       USBx_INEP(epnum)->DIEPCTL  |= USB_OTG_DIEPCTL_EPDIS;
 1637              		.loc 1 655 34 is_stmt 0 view .LVU514
 1638 006c D3F80029 		ldr	r2, [r3, #2304]
 1639 0070 42F00062 		orr	r2, r2, #134217728
 1640 0074 C3F80029 		str	r2, [r3, #2304]
 1641              	.LVL129:
 656:../Drivers/STM32L4xx_HAL_Driver/Src/stm32l4xx_ll_usb.c ****     }
 1642              		.loc 1 656 7 is_stmt 1 view .LVU515
 656:../Drivers/STM32L4xx_HAL_Driver/Src/stm32l4xx_ll_usb.c ****     }
 1643              		.loc 1 656 34 is_stmt 0 view .LVU516
 1644 0078 D3F80029 		ldr	r2, [r3, #2304]
 1645 007c 42F08042 		orr	r2, r2, #1073741824
 1646 0080 C3F80029 		str	r2, [r3, #2304]
 1647 0084 DFE7     		b	.L110
 1648              	.LVL130:
 1649              	.L114:
 666:../Drivers/STM32L4xx_HAL_Driver/Src/stm32l4xx_ll_usb.c ****       USBx_OUTEP(epnum)->DOEPCTL  |= USB_OTG_DOEPCTL_EPDIS;
 1650              		.loc 1 666 7 is_stmt 1 view .LVU517
 666:../Drivers/STM32L4xx_HAL_Driver/Src/stm32l4xx_ll_usb.c ****       USBx_OUTEP(epnum)->DOEPCTL  |= USB_OTG_DOEPCTL_EPDIS;
 1651              		.loc 1 666 35 is_stmt 0 view .LVU518
 1652 0086 D3F8002B 		ldr	r2, [r3, #2816]
 1653 008a 42F00062 		orr	r2, r2, #134217728
 1654 008e C3F8002B 		str	r2, [r3, #2816]
 1655              	.LVL131:
 667:../Drivers/STM32L4xx_HAL_Driver/Src/stm32l4xx_ll_usb.c ****     }
 1656              		.loc 1 667 7 is_stmt 1 view .LVU519
 667:../Drivers/STM32L4xx_HAL_Driver/Src/stm32l4xx_ll_usb.c ****     }
 1657              		.loc 1 667 35 is_stmt 0 view .LVU520
 1658 0092 D3F8002B 		ldr	r2, [r3, #2816]
 1659 0096 42F08042 		orr	r2, r2, #1073741824
 1660 009a C3F8002B 		str	r2, [r3, #2816]
 1661 009e B9E7     		b	.L112
 1662              		.cfi_endproc
 1663              	.LFE145:
 1665              		.section	.text.USB_EP0StartXfer,"ax",%progbits
 1666              		.align	1
 1667              		.global	USB_EP0StartXfer
 1668              		.syntax unified
 1669              		.thumb
 1670              		.thumb_func
 1671              		.fpu fpv4-sp-d16
 1673              	USB_EP0StartXfer:
 1674              	.LVL132:
 1675              	.LFB147:
 792:../Drivers/STM32L4xx_HAL_Driver/Src/stm32l4xx_ll_usb.c ****   uint32_t USBx_BASE = (uint32_t)USBx;
 1676              		.loc 1 792 1 is_stmt 1 view -0
 1677              		.cfi_startproc
 1678              		@ args = 0, pretend = 0, frame = 0
 1679              		@ frame_needed = 0, uses_anonymous_args = 0
 1680              		@ link register save eliminated.
ARM GAS  /tmp/ccJzOZLR.s 			page 62


 793:../Drivers/STM32L4xx_HAL_Driver/Src/stm32l4xx_ll_usb.c ****   uint32_t epnum = (uint32_t)ep->num;
 1681              		.loc 1 793 3 view .LVU522
 794:../Drivers/STM32L4xx_HAL_Driver/Src/stm32l4xx_ll_usb.c **** 
 1682              		.loc 1 794 3 view .LVU523
 794:../Drivers/STM32L4xx_HAL_Driver/Src/stm32l4xx_ll_usb.c **** 
 1683              		.loc 1 794 32 is_stmt 0 view .LVU524
 1684 0000 0B78     		ldrb	r3, [r1]	@ zero_extendqisi2
 1685              	.LVL133:
 797:../Drivers/STM32L4xx_HAL_Driver/Src/stm32l4xx_ll_usb.c ****   {
 1686              		.loc 1 797 3 is_stmt 1 view .LVU525
 797:../Drivers/STM32L4xx_HAL_Driver/Src/stm32l4xx_ll_usb.c ****   {
 1687              		.loc 1 797 9 is_stmt 0 view .LVU526
 1688 0002 4A78     		ldrb	r2, [r1, #1]	@ zero_extendqisi2
 797:../Drivers/STM32L4xx_HAL_Driver/Src/stm32l4xx_ll_usb.c ****   {
 1689              		.loc 1 797 6 view .LVU527
 1690 0004 012A     		cmp	r2, #1
 1691 0006 25D0     		beq	.L127
 839:../Drivers/STM32L4xx_HAL_Driver/Src/stm32l4xx_ll_usb.c ****     USBx_OUTEP(epnum)->DOEPTSIZ &= ~(USB_OTG_DOEPTSIZ_PKTCNT);
 1692              		.loc 1 839 5 is_stmt 1 view .LVU528
 839:../Drivers/STM32L4xx_HAL_Driver/Src/stm32l4xx_ll_usb.c ****     USBx_OUTEP(epnum)->DOEPTSIZ &= ~(USB_OTG_DOEPTSIZ_PKTCNT);
 1693              		.loc 1 839 33 is_stmt 0 view .LVU529
 1694 0008 00EB4310 		add	r0, r0, r3, lsl #5
 1695              	.LVL134:
 839:../Drivers/STM32L4xx_HAL_Driver/Src/stm32l4xx_ll_usb.c ****     USBx_OUTEP(epnum)->DOEPTSIZ &= ~(USB_OTG_DOEPTSIZ_PKTCNT);
 1696              		.loc 1 839 33 view .LVU530
 1697 000c 00F53063 		add	r3, r0, #2816
 1698              	.LVL135:
 839:../Drivers/STM32L4xx_HAL_Driver/Src/stm32l4xx_ll_usb.c ****     USBx_OUTEP(epnum)->DOEPTSIZ &= ~(USB_OTG_DOEPTSIZ_PKTCNT);
 1699              		.loc 1 839 33 view .LVU531
 1700 0010 1A69     		ldr	r2, [r3, #16]
 1701 0012 D20C     		lsrs	r2, r2, #19
 1702 0014 D204     		lsls	r2, r2, #19
 1703 0016 1A61     		str	r2, [r3, #16]
 1704              	.LVL136:
 840:../Drivers/STM32L4xx_HAL_Driver/Src/stm32l4xx_ll_usb.c **** 
 1705              		.loc 1 840 5 is_stmt 1 view .LVU532
 840:../Drivers/STM32L4xx_HAL_Driver/Src/stm32l4xx_ll_usb.c **** 
 1706              		.loc 1 840 33 is_stmt 0 view .LVU533
 1707 0018 1A69     		ldr	r2, [r3, #16]
 1708 001a 22F0FF52 		bic	r2, r2, #534773760
 1709 001e 22F4C012 		bic	r2, r2, #1572864
 1710 0022 1A61     		str	r2, [r3, #16]
 842:../Drivers/STM32L4xx_HAL_Driver/Src/stm32l4xx_ll_usb.c ****     {
 1711              		.loc 1 842 5 is_stmt 1 view .LVU534
 842:../Drivers/STM32L4xx_HAL_Driver/Src/stm32l4xx_ll_usb.c ****     {
 1712              		.loc 1 842 11 is_stmt 0 view .LVU535
 1713 0024 8A69     		ldr	r2, [r1, #24]
 842:../Drivers/STM32L4xx_HAL_Driver/Src/stm32l4xx_ll_usb.c ****     {
 1714              		.loc 1 842 8 view .LVU536
 1715 0026 0AB1     		cbz	r2, .L122
 844:../Drivers/STM32L4xx_HAL_Driver/Src/stm32l4xx_ll_usb.c ****     }
 1716              		.loc 1 844 7 is_stmt 1 view .LVU537
 844:../Drivers/STM32L4xx_HAL_Driver/Src/stm32l4xx_ll_usb.c ****     }
 1717              		.loc 1 844 24 is_stmt 0 view .LVU538
 1718 0028 CA68     		ldr	r2, [r1, #12]
 844:../Drivers/STM32L4xx_HAL_Driver/Src/stm32l4xx_ll_usb.c ****     }
 1719              		.loc 1 844 20 view .LVU539
ARM GAS  /tmp/ccJzOZLR.s 			page 63


 1720 002a 8A61     		str	r2, [r1, #24]
 1721              	.L122:
 848:../Drivers/STM32L4xx_HAL_Driver/Src/stm32l4xx_ll_usb.c **** 
 1722              		.loc 1 848 5 is_stmt 1 view .LVU540
 848:../Drivers/STM32L4xx_HAL_Driver/Src/stm32l4xx_ll_usb.c **** 
 1723              		.loc 1 848 23 is_stmt 0 view .LVU541
 1724 002c CA68     		ldr	r2, [r1, #12]
 848:../Drivers/STM32L4xx_HAL_Driver/Src/stm32l4xx_ll_usb.c **** 
 1725              		.loc 1 848 19 view .LVU542
 1726 002e CA61     		str	r2, [r1, #28]
 850:../Drivers/STM32L4xx_HAL_Driver/Src/stm32l4xx_ll_usb.c ****     USBx_OUTEP(epnum)->DOEPTSIZ |= (USB_OTG_DOEPTSIZ_XFRSIZ & ep->xfer_size);
 1727              		.loc 1 850 5 is_stmt 1 view .LVU543
 850:../Drivers/STM32L4xx_HAL_Driver/Src/stm32l4xx_ll_usb.c ****     USBx_OUTEP(epnum)->DOEPTSIZ |= (USB_OTG_DOEPTSIZ_XFRSIZ & ep->xfer_size);
 1728              		.loc 1 850 33 is_stmt 0 view .LVU544
 1729 0030 1A69     		ldr	r2, [r3, #16]
 1730 0032 42F40022 		orr	r2, r2, #524288
 1731 0036 1A61     		str	r2, [r3, #16]
 851:../Drivers/STM32L4xx_HAL_Driver/Src/stm32l4xx_ll_usb.c **** 
 1732              		.loc 1 851 5 is_stmt 1 view .LVU545
 851:../Drivers/STM32L4xx_HAL_Driver/Src/stm32l4xx_ll_usb.c **** 
 1733              		.loc 1 851 33 is_stmt 0 view .LVU546
 1734 0038 1A69     		ldr	r2, [r3, #16]
 851:../Drivers/STM32L4xx_HAL_Driver/Src/stm32l4xx_ll_usb.c **** 
 1735              		.loc 1 851 65 view .LVU547
 1736 003a C969     		ldr	r1, [r1, #28]
 1737              	.LVL137:
 851:../Drivers/STM32L4xx_HAL_Driver/Src/stm32l4xx_ll_usb.c **** 
 1738              		.loc 1 851 61 view .LVU548
 1739 003c C1F31201 		ubfx	r1, r1, #0, #19
 851:../Drivers/STM32L4xx_HAL_Driver/Src/stm32l4xx_ll_usb.c **** 
 1740              		.loc 1 851 33 view .LVU549
 1741 0040 0A43     		orrs	r2, r2, r1
 1742 0042 1A61     		str	r2, [r3, #16]
 854:../Drivers/STM32L4xx_HAL_Driver/Src/stm32l4xx_ll_usb.c ****   }
 1743              		.loc 1 854 5 is_stmt 1 view .LVU550
 854:../Drivers/STM32L4xx_HAL_Driver/Src/stm32l4xx_ll_usb.c ****   }
 1744              		.loc 1 854 32 is_stmt 0 view .LVU551
 1745 0044 D0F8003B 		ldr	r3, [r0, #2816]
 1746 0048 43F00443 		orr	r3, r3, #-2080374784
 1747 004c C0F8003B 		str	r3, [r0, #2816]
 857:../Drivers/STM32L4xx_HAL_Driver/Src/stm32l4xx_ll_usb.c **** }
 1748              		.loc 1 857 3 is_stmt 1 view .LVU552
 858:../Drivers/STM32L4xx_HAL_Driver/Src/stm32l4xx_ll_usb.c **** 
 1749              		.loc 1 858 1 is_stmt 0 view .LVU553
 1750 0050 0020     		movs	r0, #0
 1751 0052 7047     		bx	lr
 1752              	.LVL138:
 1753              	.L127:
 792:../Drivers/STM32L4xx_HAL_Driver/Src/stm32l4xx_ll_usb.c ****   uint32_t USBx_BASE = (uint32_t)USBx;
 1754              		.loc 1 792 1 view .LVU554
 1755 0054 30B4     		push	{r4, r5}
 1756              	.LCFI24:
 1757              		.cfi_def_cfa_offset 8
 1758              		.cfi_offset 4, -8
 1759              		.cfi_offset 5, -4
 800:../Drivers/STM32L4xx_HAL_Driver/Src/stm32l4xx_ll_usb.c ****     {
 1760              		.loc 1 800 5 is_stmt 1 view .LVU555
ARM GAS  /tmp/ccJzOZLR.s 			page 64


 800:../Drivers/STM32L4xx_HAL_Driver/Src/stm32l4xx_ll_usb.c ****     {
 1761              		.loc 1 800 11 is_stmt 0 view .LVU556
 1762 0056 8A69     		ldr	r2, [r1, #24]
 800:../Drivers/STM32L4xx_HAL_Driver/Src/stm32l4xx_ll_usb.c ****     {
 1763              		.loc 1 800 8 view .LVU557
 1764 0058 62BB     		cbnz	r2, .L118
 802:../Drivers/STM32L4xx_HAL_Driver/Src/stm32l4xx_ll_usb.c ****       USBx_INEP(epnum)->DIEPTSIZ |= (USB_OTG_DIEPTSIZ_PKTCNT & (1U << 19));
 1765              		.loc 1 802 7 is_stmt 1 view .LVU558
 802:../Drivers/STM32L4xx_HAL_Driver/Src/stm32l4xx_ll_usb.c ****       USBx_INEP(epnum)->DIEPTSIZ |= (USB_OTG_DIEPTSIZ_PKTCNT & (1U << 19));
 1766              		.loc 1 802 34 is_stmt 0 view .LVU559
 1767 005a 00EB4312 		add	r2, r0, r3, lsl #5
 1768 005e D2F81049 		ldr	r4, [r2, #2320]
 1769 0062 24F0FF54 		bic	r4, r4, #534773760
 1770 0066 24F4C014 		bic	r4, r4, #1572864
 1771 006a C2F81049 		str	r4, [r2, #2320]
 803:../Drivers/STM32L4xx_HAL_Driver/Src/stm32l4xx_ll_usb.c ****       USBx_INEP(epnum)->DIEPTSIZ &= ~(USB_OTG_DIEPTSIZ_XFRSIZ);
 1772              		.loc 1 803 7 is_stmt 1 view .LVU560
 803:../Drivers/STM32L4xx_HAL_Driver/Src/stm32l4xx_ll_usb.c ****       USBx_INEP(epnum)->DIEPTSIZ &= ~(USB_OTG_DIEPTSIZ_XFRSIZ);
 1773              		.loc 1 803 34 is_stmt 0 view .LVU561
 1774 006e D2F81049 		ldr	r4, [r2, #2320]
 1775 0072 44F40024 		orr	r4, r4, #524288
 1776 0076 C2F81049 		str	r4, [r2, #2320]
 804:../Drivers/STM32L4xx_HAL_Driver/Src/stm32l4xx_ll_usb.c ****     }
 1777              		.loc 1 804 7 is_stmt 1 view .LVU562
 804:../Drivers/STM32L4xx_HAL_Driver/Src/stm32l4xx_ll_usb.c ****     }
 1778              		.loc 1 804 34 is_stmt 0 view .LVU563
 1779 007a D2F81049 		ldr	r4, [r2, #2320]
 1780 007e E40C     		lsrs	r4, r4, #19
 1781 0080 E404     		lsls	r4, r4, #19
 1782 0082 C2F81049 		str	r4, [r2, #2320]
 1783              	.L119:
 825:../Drivers/STM32L4xx_HAL_Driver/Src/stm32l4xx_ll_usb.c **** 
 1784              		.loc 1 825 5 is_stmt 1 view .LVU564
 825:../Drivers/STM32L4xx_HAL_Driver/Src/stm32l4xx_ll_usb.c **** 
 1785              		.loc 1 825 31 is_stmt 0 view .LVU565
 1786 0086 00EB4313 		add	r3, r0, r3, lsl #5
 1787              	.LVL139:
 825:../Drivers/STM32L4xx_HAL_Driver/Src/stm32l4xx_ll_usb.c **** 
 1788              		.loc 1 825 31 view .LVU566
 1789 008a D3F80029 		ldr	r2, [r3, #2304]
 1790 008e 42F00442 		orr	r2, r2, #-2080374784
 1791 0092 C3F80029 		str	r2, [r3, #2304]
 828:../Drivers/STM32L4xx_HAL_Driver/Src/stm32l4xx_ll_usb.c ****     {
 1792              		.loc 1 828 5 is_stmt 1 view .LVU567
 828:../Drivers/STM32L4xx_HAL_Driver/Src/stm32l4xx_ll_usb.c ****     {
 1793              		.loc 1 828 11 is_stmt 0 view .LVU568
 1794 0096 8B69     		ldr	r3, [r1, #24]
 828:../Drivers/STM32L4xx_HAL_Driver/Src/stm32l4xx_ll_usb.c ****     {
 1795              		.loc 1 828 8 view .LVU569
 1796 0098 4BB1     		cbz	r3, .L121
 830:../Drivers/STM32L4xx_HAL_Driver/Src/stm32l4xx_ll_usb.c ****     }
 1797              		.loc 1 830 7 is_stmt 1 view .LVU570
 830:../Drivers/STM32L4xx_HAL_Driver/Src/stm32l4xx_ll_usb.c ****     }
 1798              		.loc 1 830 31 is_stmt 0 view .LVU571
 1799 009a D0F83438 		ldr	r3, [r0, #2100]
 830:../Drivers/STM32L4xx_HAL_Driver/Src/stm32l4xx_ll_usb.c ****     }
 1800              		.loc 1 830 44 view .LVU572
ARM GAS  /tmp/ccJzOZLR.s 			page 65


 1801 009e 0A78     		ldrb	r2, [r1]	@ zero_extendqisi2
 830:../Drivers/STM32L4xx_HAL_Driver/Src/stm32l4xx_ll_usb.c ****     }
 1802              		.loc 1 830 50 view .LVU573
 1803 00a0 02F00F01 		and	r1, r2, #15
 1804              	.LVL140:
 830:../Drivers/STM32L4xx_HAL_Driver/Src/stm32l4xx_ll_usb.c ****     }
 1805              		.loc 1 830 38 view .LVU574
 1806 00a4 0122     		movs	r2, #1
 1807 00a6 8A40     		lsls	r2, r2, r1
 830:../Drivers/STM32L4xx_HAL_Driver/Src/stm32l4xx_ll_usb.c ****     }
 1808              		.loc 1 830 31 view .LVU575
 1809 00a8 1343     		orrs	r3, r3, r2
 1810 00aa C0F83438 		str	r3, [r0, #2100]
 1811              	.L121:
 857:../Drivers/STM32L4xx_HAL_Driver/Src/stm32l4xx_ll_usb.c **** }
 1812              		.loc 1 857 3 is_stmt 1 view .LVU576
 858:../Drivers/STM32L4xx_HAL_Driver/Src/stm32l4xx_ll_usb.c **** 
 1813              		.loc 1 858 1 is_stmt 0 view .LVU577
 1814 00ae 0020     		movs	r0, #0
 1815              	.LVL141:
 858:../Drivers/STM32L4xx_HAL_Driver/Src/stm32l4xx_ll_usb.c **** 
 1816              		.loc 1 858 1 view .LVU578
 1817 00b0 30BC     		pop	{r4, r5}
 1818              	.LCFI25:
 1819              		.cfi_remember_state
 1820              		.cfi_restore 5
 1821              		.cfi_restore 4
 1822              		.cfi_def_cfa_offset 0
 1823 00b2 7047     		bx	lr
 1824              	.LVL142:
 1825              	.L118:
 1826              	.LCFI26:
 1827              		.cfi_restore_state
 813:../Drivers/STM32L4xx_HAL_Driver/Src/stm32l4xx_ll_usb.c ****       USBx_INEP(epnum)->DIEPTSIZ &= ~(USB_OTG_DIEPTSIZ_PKTCNT);
 1828              		.loc 1 813 7 is_stmt 1 view .LVU579
 813:../Drivers/STM32L4xx_HAL_Driver/Src/stm32l4xx_ll_usb.c ****       USBx_INEP(epnum)->DIEPTSIZ &= ~(USB_OTG_DIEPTSIZ_PKTCNT);
 1829              		.loc 1 813 34 is_stmt 0 view .LVU580
 1830 00b4 00EB4312 		add	r2, r0, r3, lsl #5
 1831 00b8 02F51062 		add	r2, r2, #2304
 1832 00bc 1469     		ldr	r4, [r2, #16]
 1833 00be E40C     		lsrs	r4, r4, #19
 1834 00c0 E404     		lsls	r4, r4, #19
 1835 00c2 1461     		str	r4, [r2, #16]
 814:../Drivers/STM32L4xx_HAL_Driver/Src/stm32l4xx_ll_usb.c **** 
 1836              		.loc 1 814 7 is_stmt 1 view .LVU581
 814:../Drivers/STM32L4xx_HAL_Driver/Src/stm32l4xx_ll_usb.c **** 
 1837              		.loc 1 814 34 is_stmt 0 view .LVU582
 1838 00c4 1469     		ldr	r4, [r2, #16]
 1839 00c6 24F0FF54 		bic	r4, r4, #534773760
 1840 00ca 24F4C014 		bic	r4, r4, #1572864
 1841 00ce 1461     		str	r4, [r2, #16]
 816:../Drivers/STM32L4xx_HAL_Driver/Src/stm32l4xx_ll_usb.c ****       {
 1842              		.loc 1 816 7 is_stmt 1 view .LVU583
 816:../Drivers/STM32L4xx_HAL_Driver/Src/stm32l4xx_ll_usb.c ****       {
 1843              		.loc 1 816 28 is_stmt 0 view .LVU584
 1844 00d0 CC68     		ldr	r4, [r1, #12]
 816:../Drivers/STM32L4xx_HAL_Driver/Src/stm32l4xx_ll_usb.c ****       {
ARM GAS  /tmp/ccJzOZLR.s 			page 66


 1845              		.loc 1 816 10 view .LVU585
 1846 00d2 8D69     		ldr	r5, [r1, #24]
 1847 00d4 A542     		cmp	r5, r4
 1848 00d6 00D9     		bls	.L120
 818:../Drivers/STM32L4xx_HAL_Driver/Src/stm32l4xx_ll_usb.c ****       }
 1849              		.loc 1 818 9 is_stmt 1 view .LVU586
 818:../Drivers/STM32L4xx_HAL_Driver/Src/stm32l4xx_ll_usb.c ****       }
 1850              		.loc 1 818 22 is_stmt 0 view .LVU587
 1851 00d8 8C61     		str	r4, [r1, #24]
 1852              	.L120:
 820:../Drivers/STM32L4xx_HAL_Driver/Src/stm32l4xx_ll_usb.c ****       USBx_INEP(epnum)->DIEPTSIZ |= (USB_OTG_DIEPTSIZ_XFRSIZ & ep->xfer_len);
 1853              		.loc 1 820 7 is_stmt 1 view .LVU588
 820:../Drivers/STM32L4xx_HAL_Driver/Src/stm32l4xx_ll_usb.c ****       USBx_INEP(epnum)->DIEPTSIZ |= (USB_OTG_DIEPTSIZ_XFRSIZ & ep->xfer_len);
 1854              		.loc 1 820 34 is_stmt 0 view .LVU589
 1855 00da 1469     		ldr	r4, [r2, #16]
 1856 00dc 44F40024 		orr	r4, r4, #524288
 1857 00e0 1461     		str	r4, [r2, #16]
 821:../Drivers/STM32L4xx_HAL_Driver/Src/stm32l4xx_ll_usb.c ****     }
 1858              		.loc 1 821 7 is_stmt 1 view .LVU590
 821:../Drivers/STM32L4xx_HAL_Driver/Src/stm32l4xx_ll_usb.c ****     }
 1859              		.loc 1 821 34 is_stmt 0 view .LVU591
 1860 00e2 1469     		ldr	r4, [r2, #16]
 821:../Drivers/STM32L4xx_HAL_Driver/Src/stm32l4xx_ll_usb.c ****     }
 1861              		.loc 1 821 62 view .LVU592
 1862 00e4 8D69     		ldr	r5, [r1, #24]
 1863 00e6 C5F3120C 		ubfx	ip, r5, #0, #19
 821:../Drivers/STM32L4xx_HAL_Driver/Src/stm32l4xx_ll_usb.c ****     }
 1864              		.loc 1 821 34 view .LVU593
 1865 00ea 44EA0C04 		orr	r4, r4, ip
 1866 00ee 1461     		str	r4, [r2, #16]
 1867 00f0 C9E7     		b	.L119
 1868              		.cfi_endproc
 1869              	.LFE147:
 1871              		.section	.text.USB_EPStopXfer,"ax",%progbits
 1872              		.align	1
 1873              		.global	USB_EPStopXfer
 1874              		.syntax unified
 1875              		.thumb
 1876              		.thumb_func
 1877              		.fpu fpv4-sp-d16
 1879              	USB_EPStopXfer:
 1880              	.LVL143:
 1881              	.LFB148:
 868:../Drivers/STM32L4xx_HAL_Driver/Src/stm32l4xx_ll_usb.c ****   __IO uint32_t count = 0U;
 1882              		.loc 1 868 1 is_stmt 1 view -0
 1883              		.cfi_startproc
 1884              		@ args = 0, pretend = 0, frame = 8
 1885              		@ frame_needed = 0, uses_anonymous_args = 0
 1886              		@ link register save eliminated.
 868:../Drivers/STM32L4xx_HAL_Driver/Src/stm32l4xx_ll_usb.c ****   __IO uint32_t count = 0U;
 1887              		.loc 1 868 1 is_stmt 0 view .LVU595
 1888 0000 10B4     		push	{r4}
 1889              	.LCFI27:
 1890              		.cfi_def_cfa_offset 4
 1891              		.cfi_offset 4, -4
 1892 0002 83B0     		sub	sp, sp, #12
 1893              	.LCFI28:
ARM GAS  /tmp/ccJzOZLR.s 			page 67


 1894              		.cfi_def_cfa_offset 16
 1895 0004 0246     		mov	r2, r0
 869:../Drivers/STM32L4xx_HAL_Driver/Src/stm32l4xx_ll_usb.c ****   HAL_StatusTypeDef ret = HAL_OK;
 1896              		.loc 1 869 3 is_stmt 1 view .LVU596
 869:../Drivers/STM32L4xx_HAL_Driver/Src/stm32l4xx_ll_usb.c ****   HAL_StatusTypeDef ret = HAL_OK;
 1897              		.loc 1 869 17 is_stmt 0 view .LVU597
 1898 0006 0023     		movs	r3, #0
 1899 0008 0193     		str	r3, [sp, #4]
 870:../Drivers/STM32L4xx_HAL_Driver/Src/stm32l4xx_ll_usb.c ****   uint32_t USBx_BASE = (uint32_t)USBx;
 1900              		.loc 1 870 3 is_stmt 1 view .LVU598
 1901              	.LVL144:
 871:../Drivers/STM32L4xx_HAL_Driver/Src/stm32l4xx_ll_usb.c **** 
 1902              		.loc 1 871 3 view .LVU599
 874:../Drivers/STM32L4xx_HAL_Driver/Src/stm32l4xx_ll_usb.c ****   {
 1903              		.loc 1 874 3 view .LVU600
 874:../Drivers/STM32L4xx_HAL_Driver/Src/stm32l4xx_ll_usb.c ****   {
 1904              		.loc 1 874 9 is_stmt 0 view .LVU601
 1905 000a 4878     		ldrb	r0, [r1, #1]	@ zero_extendqisi2
 1906              	.LVL145:
 874:../Drivers/STM32L4xx_HAL_Driver/Src/stm32l4xx_ll_usb.c ****   {
 1907              		.loc 1 874 6 view .LVU602
 1908 000c 0128     		cmp	r0, #1
 1909 000e 0BD0     		beq	.L137
 896:../Drivers/STM32L4xx_HAL_Driver/Src/stm32l4xx_ll_usb.c ****     {
 1910              		.loc 1 896 5 is_stmt 1 view .LVU603
 896:../Drivers/STM32L4xx_HAL_Driver/Src/stm32l4xx_ll_usb.c ****     {
 1911              		.loc 1 896 11 is_stmt 0 view .LVU604
 1912 0010 0B78     		ldrb	r3, [r1]	@ zero_extendqisi2
 1913 0012 02EB4313 		add	r3, r2, r3, lsl #5
 896:../Drivers/STM32L4xx_HAL_Driver/Src/stm32l4xx_ll_usb.c ****     {
 1914              		.loc 1 896 30 view .LVU605
 1915 0016 D3F8000B 		ldr	r0, [r3, #2816]
 896:../Drivers/STM32L4xx_HAL_Driver/Src/stm32l4xx_ll_usb.c ****     {
 1916              		.loc 1 896 8 view .LVU606
 1917 001a 0028     		cmp	r0, #0
 1918 001c 2DDB     		blt	.L138
 870:../Drivers/STM32L4xx_HAL_Driver/Src/stm32l4xx_ll_usb.c ****   uint32_t USBx_BASE = (uint32_t)USBx;
 1919              		.loc 1 870 21 view .LVU607
 1920 001e 0020     		movs	r0, #0
 1921              	.L130:
 1922              	.LVL146:
 914:../Drivers/STM32L4xx_HAL_Driver/Src/stm32l4xx_ll_usb.c **** }
 1923              		.loc 1 914 3 is_stmt 1 view .LVU608
 915:../Drivers/STM32L4xx_HAL_Driver/Src/stm32l4xx_ll_usb.c **** 
 1924              		.loc 1 915 1 is_stmt 0 view .LVU609
 1925 0020 03B0     		add	sp, sp, #12
 1926              	.LCFI29:
 1927              		.cfi_remember_state
 1928              		.cfi_def_cfa_offset 4
 1929              		@ sp needed
 1930 0022 5DF8044B 		ldr	r4, [sp], #4
 1931              	.LCFI30:
 1932              		.cfi_restore 4
 1933              		.cfi_def_cfa_offset 0
 1934 0026 7047     		bx	lr
 1935              	.LVL147:
 1936              	.L137:
ARM GAS  /tmp/ccJzOZLR.s 			page 68


 1937              	.LCFI31:
 1938              		.cfi_restore_state
 877:../Drivers/STM32L4xx_HAL_Driver/Src/stm32l4xx_ll_usb.c ****     {
 1939              		.loc 1 877 5 is_stmt 1 view .LVU610
 877:../Drivers/STM32L4xx_HAL_Driver/Src/stm32l4xx_ll_usb.c ****     {
 1940              		.loc 1 877 11 is_stmt 0 view .LVU611
 1941 0028 0B78     		ldrb	r3, [r1]	@ zero_extendqisi2
 1942 002a 02EB4313 		add	r3, r2, r3, lsl #5
 877:../Drivers/STM32L4xx_HAL_Driver/Src/stm32l4xx_ll_usb.c ****     {
 1943              		.loc 1 877 29 view .LVU612
 1944 002e D3F80049 		ldr	r4, [r3, #2304]
 877:../Drivers/STM32L4xx_HAL_Driver/Src/stm32l4xx_ll_usb.c ****     {
 1945              		.loc 1 877 8 view .LVU613
 1946 0032 002C     		cmp	r4, #0
 1947 0034 01DB     		blt	.L139
 870:../Drivers/STM32L4xx_HAL_Driver/Src/stm32l4xx_ll_usb.c ****   uint32_t USBx_BASE = (uint32_t)USBx;
 1948              		.loc 1 870 21 view .LVU614
 1949 0036 0020     		movs	r0, #0
 1950 0038 F2E7     		b	.L130
 1951              	.L139:
 879:../Drivers/STM32L4xx_HAL_Driver/Src/stm32l4xx_ll_usb.c ****       USBx_INEP(ep->num)->DIEPCTL |= (USB_OTG_DIEPCTL_EPDIS);
 1952              		.loc 1 879 7 is_stmt 1 view .LVU615
 879:../Drivers/STM32L4xx_HAL_Driver/Src/stm32l4xx_ll_usb.c ****       USBx_INEP(ep->num)->DIEPCTL |= (USB_OTG_DIEPCTL_EPDIS);
 1953              		.loc 1 879 35 is_stmt 0 view .LVU616
 1954 003a D3F80049 		ldr	r4, [r3, #2304]
 1955 003e 44F00064 		orr	r4, r4, #134217728
 1956 0042 C3F80049 		str	r4, [r3, #2304]
 880:../Drivers/STM32L4xx_HAL_Driver/Src/stm32l4xx_ll_usb.c **** 
 1957              		.loc 1 880 7 is_stmt 1 view .LVU617
 1958 0046 0B78     		ldrb	r3, [r1]	@ zero_extendqisi2
 880:../Drivers/STM32L4xx_HAL_Driver/Src/stm32l4xx_ll_usb.c **** 
 1959              		.loc 1 880 35 is_stmt 0 view .LVU618
 1960 0048 02EB4313 		add	r3, r2, r3, lsl #5
 1961 004c D3F80049 		ldr	r4, [r3, #2304]
 1962 0050 44F08044 		orr	r4, r4, #1073741824
 1963 0054 C3F80049 		str	r4, [r3, #2304]
 1964              	.L131:
 882:../Drivers/STM32L4xx_HAL_Driver/Src/stm32l4xx_ll_usb.c ****       {
 1965              		.loc 1 882 7 is_stmt 1 view .LVU619
 884:../Drivers/STM32L4xx_HAL_Driver/Src/stm32l4xx_ll_usb.c **** 
 1966              		.loc 1 884 9 view .LVU620
 884:../Drivers/STM32L4xx_HAL_Driver/Src/stm32l4xx_ll_usb.c **** 
 1967              		.loc 1 884 14 is_stmt 0 view .LVU621
 1968 0058 019B     		ldr	r3, [sp, #4]
 1969 005a 0133     		adds	r3, r3, #1
 1970 005c 0193     		str	r3, [sp, #4]
 886:../Drivers/STM32L4xx_HAL_Driver/Src/stm32l4xx_ll_usb.c ****         {
 1971              		.loc 1 886 9 is_stmt 1 view .LVU622
 886:../Drivers/STM32L4xx_HAL_Driver/Src/stm32l4xx_ll_usb.c ****         {
 1972              		.loc 1 886 19 is_stmt 0 view .LVU623
 1973 005e 019C     		ldr	r4, [sp, #4]
 886:../Drivers/STM32L4xx_HAL_Driver/Src/stm32l4xx_ll_usb.c ****         {
 1974              		.loc 1 886 12 view .LVU624
 1975 0060 42F21073 		movw	r3, #10000
 1976 0064 9C42     		cmp	r4, r3
 1977 0066 DBD8     		bhi	.L130
 891:../Drivers/STM32L4xx_HAL_Driver/Src/stm32l4xx_ll_usb.c ****     }
ARM GAS  /tmp/ccJzOZLR.s 			page 69


 1978              		.loc 1 891 15 is_stmt 1 view .LVU625
 891:../Drivers/STM32L4xx_HAL_Driver/Src/stm32l4xx_ll_usb.c ****     }
 1979              		.loc 1 891 18 is_stmt 0 view .LVU626
 1980 0068 0B78     		ldrb	r3, [r1]	@ zero_extendqisi2
 1981 006a 02EB4313 		add	r3, r2, r3, lsl #5
 891:../Drivers/STM32L4xx_HAL_Driver/Src/stm32l4xx_ll_usb.c ****     }
 1982              		.loc 1 891 36 view .LVU627
 1983 006e D3F80039 		ldr	r3, [r3, #2304]
 891:../Drivers/STM32L4xx_HAL_Driver/Src/stm32l4xx_ll_usb.c ****     }
 1984              		.loc 1 891 7 view .LVU628
 1985 0072 002B     		cmp	r3, #0
 1986 0074 F0DB     		blt	.L131
 870:../Drivers/STM32L4xx_HAL_Driver/Src/stm32l4xx_ll_usb.c ****   uint32_t USBx_BASE = (uint32_t)USBx;
 1987              		.loc 1 870 21 view .LVU629
 1988 0076 0020     		movs	r0, #0
 1989 0078 D2E7     		b	.L130
 1990              	.L138:
 898:../Drivers/STM32L4xx_HAL_Driver/Src/stm32l4xx_ll_usb.c ****       USBx_OUTEP(ep->num)->DOEPCTL |= (USB_OTG_DOEPCTL_EPDIS);
 1991              		.loc 1 898 7 is_stmt 1 view .LVU630
 898:../Drivers/STM32L4xx_HAL_Driver/Src/stm32l4xx_ll_usb.c ****       USBx_OUTEP(ep->num)->DOEPCTL |= (USB_OTG_DOEPCTL_EPDIS);
 1992              		.loc 1 898 36 is_stmt 0 view .LVU631
 1993 007a D3F8000B 		ldr	r0, [r3, #2816]
 1994 007e 40F00060 		orr	r0, r0, #134217728
 1995 0082 C3F8000B 		str	r0, [r3, #2816]
 899:../Drivers/STM32L4xx_HAL_Driver/Src/stm32l4xx_ll_usb.c **** 
 1996              		.loc 1 899 7 is_stmt 1 view .LVU632
 1997 0086 0B78     		ldrb	r3, [r1]	@ zero_extendqisi2
 899:../Drivers/STM32L4xx_HAL_Driver/Src/stm32l4xx_ll_usb.c **** 
 1998              		.loc 1 899 36 is_stmt 0 view .LVU633
 1999 0088 02EB4313 		add	r3, r2, r3, lsl #5
 2000 008c D3F8000B 		ldr	r0, [r3, #2816]
 2001 0090 40F08040 		orr	r0, r0, #1073741824
 2002 0094 C3F8000B 		str	r0, [r3, #2816]
 2003              	.L132:
 901:../Drivers/STM32L4xx_HAL_Driver/Src/stm32l4xx_ll_usb.c ****       {
 2004              		.loc 1 901 7 is_stmt 1 view .LVU634
 903:../Drivers/STM32L4xx_HAL_Driver/Src/stm32l4xx_ll_usb.c **** 
 2005              		.loc 1 903 9 view .LVU635
 903:../Drivers/STM32L4xx_HAL_Driver/Src/stm32l4xx_ll_usb.c **** 
 2006              		.loc 1 903 14 is_stmt 0 view .LVU636
 2007 0098 019B     		ldr	r3, [sp, #4]
 2008 009a 0133     		adds	r3, r3, #1
 2009 009c 0193     		str	r3, [sp, #4]
 905:../Drivers/STM32L4xx_HAL_Driver/Src/stm32l4xx_ll_usb.c ****         {
 2010              		.loc 1 905 9 is_stmt 1 view .LVU637
 905:../Drivers/STM32L4xx_HAL_Driver/Src/stm32l4xx_ll_usb.c ****         {
 2011              		.loc 1 905 19 is_stmt 0 view .LVU638
 2012 009e 0198     		ldr	r0, [sp, #4]
 905:../Drivers/STM32L4xx_HAL_Driver/Src/stm32l4xx_ll_usb.c ****         {
 2013              		.loc 1 905 12 view .LVU639
 2014 00a0 42F21073 		movw	r3, #10000
 2015 00a4 9842     		cmp	r0, r3
 2016 00a6 08D8     		bhi	.L135
 910:../Drivers/STM32L4xx_HAL_Driver/Src/stm32l4xx_ll_usb.c ****     }
 2017              		.loc 1 910 15 is_stmt 1 view .LVU640
 910:../Drivers/STM32L4xx_HAL_Driver/Src/stm32l4xx_ll_usb.c ****     }
 2018              		.loc 1 910 18 is_stmt 0 view .LVU641
ARM GAS  /tmp/ccJzOZLR.s 			page 70


 2019 00a8 0B78     		ldrb	r3, [r1]	@ zero_extendqisi2
 2020 00aa 02EB4313 		add	r3, r2, r3, lsl #5
 910:../Drivers/STM32L4xx_HAL_Driver/Src/stm32l4xx_ll_usb.c ****     }
 2021              		.loc 1 910 37 view .LVU642
 2022 00ae D3F8003B 		ldr	r3, [r3, #2816]
 910:../Drivers/STM32L4xx_HAL_Driver/Src/stm32l4xx_ll_usb.c ****     }
 2023              		.loc 1 910 7 view .LVU643
 2024 00b2 002B     		cmp	r3, #0
 2025 00b4 F0DB     		blt	.L132
 870:../Drivers/STM32L4xx_HAL_Driver/Src/stm32l4xx_ll_usb.c ****   uint32_t USBx_BASE = (uint32_t)USBx;
 2026              		.loc 1 870 21 view .LVU644
 2027 00b6 0020     		movs	r0, #0
 2028 00b8 B2E7     		b	.L130
 2029              	.L135:
 907:../Drivers/STM32L4xx_HAL_Driver/Src/stm32l4xx_ll_usb.c ****           break;
 2030              		.loc 1 907 15 view .LVU645
 2031 00ba 0120     		movs	r0, #1
 2032 00bc B0E7     		b	.L130
 2033              		.cfi_endproc
 2034              	.LFE148:
 2036              		.section	.text.USB_WritePacket,"ax",%progbits
 2037              		.align	1
 2038              		.global	USB_WritePacket
 2039              		.syntax unified
 2040              		.thumb
 2041              		.thumb_func
 2042              		.fpu fpv4-sp-d16
 2044              	USB_WritePacket:
 2045              	.LVL148:
 2046              	.LFB149:
 929:../Drivers/STM32L4xx_HAL_Driver/Src/stm32l4xx_ll_usb.c ****   uint32_t USBx_BASE = (uint32_t)USBx;
 2047              		.loc 1 929 1 is_stmt 1 view -0
 2048              		.cfi_startproc
 2049              		@ args = 0, pretend = 0, frame = 0
 2050              		@ frame_needed = 0, uses_anonymous_args = 0
 929:../Drivers/STM32L4xx_HAL_Driver/Src/stm32l4xx_ll_usb.c ****   uint32_t USBx_BASE = (uint32_t)USBx;
 2051              		.loc 1 929 1 is_stmt 0 view .LVU647
 2052 0000 10B5     		push	{r4, lr}
 2053              	.LCFI32:
 2054              		.cfi_def_cfa_offset 8
 2055              		.cfi_offset 4, -8
 2056              		.cfi_offset 14, -4
 930:../Drivers/STM32L4xx_HAL_Driver/Src/stm32l4xx_ll_usb.c ****   uint8_t *pSrc = src;
 2057              		.loc 1 930 3 is_stmt 1 view .LVU648
 2058              	.LVL149:
 931:../Drivers/STM32L4xx_HAL_Driver/Src/stm32l4xx_ll_usb.c ****   uint32_t count32b;
 2059              		.loc 1 931 3 view .LVU649
 932:../Drivers/STM32L4xx_HAL_Driver/Src/stm32l4xx_ll_usb.c ****   uint32_t i;
 2060              		.loc 1 932 3 view .LVU650
 933:../Drivers/STM32L4xx_HAL_Driver/Src/stm32l4xx_ll_usb.c **** 
 2061              		.loc 1 933 3 view .LVU651
 935:../Drivers/STM32L4xx_HAL_Driver/Src/stm32l4xx_ll_usb.c ****   for (i = 0U; i < count32b; i++)
 2062              		.loc 1 935 3 view .LVU652
 935:../Drivers/STM32L4xx_HAL_Driver/Src/stm32l4xx_ll_usb.c ****   for (i = 0U; i < count32b; i++)
 2063              		.loc 1 935 29 is_stmt 0 view .LVU653
 2064 0002 03F1030E 		add	lr, r3, #3
 935:../Drivers/STM32L4xx_HAL_Driver/Src/stm32l4xx_ll_usb.c ****   for (i = 0U; i < count32b; i++)
ARM GAS  /tmp/ccJzOZLR.s 			page 71


 2065              		.loc 1 935 12 view .LVU654
 2066 0006 4FEA9E0E 		lsr	lr, lr, #2
 2067              	.LVL150:
 936:../Drivers/STM32L4xx_HAL_Driver/Src/stm32l4xx_ll_usb.c ****   {
 2068              		.loc 1 936 3 is_stmt 1 view .LVU655
 936:../Drivers/STM32L4xx_HAL_Driver/Src/stm32l4xx_ll_usb.c ****   {
 2069              		.loc 1 936 10 is_stmt 0 view .LVU656
 2070 000a 4FF0000C 		mov	ip, #0
 936:../Drivers/STM32L4xx_HAL_Driver/Src/stm32l4xx_ll_usb.c ****   {
 2071              		.loc 1 936 3 view .LVU657
 2072 000e 08E0     		b	.L141
 2073              	.LVL151:
 2074              	.L142:
 938:../Drivers/STM32L4xx_HAL_Driver/Src/stm32l4xx_ll_usb.c ****     pSrc++;
 2075              		.loc 1 938 5 is_stmt 1 discriminator 3 view .LVU658
 2076 0010 00EB0233 		add	r3, r0, r2, lsl #12
 2077 0014 03F58053 		add	r3, r3, #4096
 938:../Drivers/STM32L4xx_HAL_Driver/Src/stm32l4xx_ll_usb.c ****     pSrc++;
 2078              		.loc 1 938 39 is_stmt 0 discriminator 3 view .LVU659
 2079 0018 51F8044B 		ldr	r4, [r1], #4	@ unaligned
 2080              	.LVL152:
 938:../Drivers/STM32L4xx_HAL_Driver/Src/stm32l4xx_ll_usb.c ****     pSrc++;
 2081              		.loc 1 938 37 discriminator 3 view .LVU660
 2082 001c 1C60     		str	r4, [r3]
 939:../Drivers/STM32L4xx_HAL_Driver/Src/stm32l4xx_ll_usb.c ****     pSrc++;
 2083              		.loc 1 939 5 is_stmt 1 discriminator 3 view .LVU661
 2084              	.LVL153:
 940:../Drivers/STM32L4xx_HAL_Driver/Src/stm32l4xx_ll_usb.c ****     pSrc++;
 2085              		.loc 1 940 5 discriminator 3 view .LVU662
 941:../Drivers/STM32L4xx_HAL_Driver/Src/stm32l4xx_ll_usb.c ****     pSrc++;
 2086              		.loc 1 941 5 discriminator 3 view .LVU663
 942:../Drivers/STM32L4xx_HAL_Driver/Src/stm32l4xx_ll_usb.c ****   }
 2087              		.loc 1 942 5 discriminator 3 view .LVU664
 936:../Drivers/STM32L4xx_HAL_Driver/Src/stm32l4xx_ll_usb.c ****   {
 2088              		.loc 1 936 30 discriminator 3 view .LVU665
 936:../Drivers/STM32L4xx_HAL_Driver/Src/stm32l4xx_ll_usb.c ****   {
 2089              		.loc 1 936 31 is_stmt 0 discriminator 3 view .LVU666
 2090 001e 0CF1010C 		add	ip, ip, #1
 2091              	.LVL154:
 2092              	.L141:
 936:../Drivers/STM32L4xx_HAL_Driver/Src/stm32l4xx_ll_usb.c ****   {
 2093              		.loc 1 936 16 is_stmt 1 discriminator 1 view .LVU667
 936:../Drivers/STM32L4xx_HAL_Driver/Src/stm32l4xx_ll_usb.c ****   {
 2094              		.loc 1 936 3 is_stmt 0 discriminator 1 view .LVU668
 2095 0022 F445     		cmp	ip, lr
 2096 0024 F4D3     		bcc	.L142
 945:../Drivers/STM32L4xx_HAL_Driver/Src/stm32l4xx_ll_usb.c **** }
 2097              		.loc 1 945 3 is_stmt 1 view .LVU669
 946:../Drivers/STM32L4xx_HAL_Driver/Src/stm32l4xx_ll_usb.c **** 
 2098              		.loc 1 946 1 is_stmt 0 view .LVU670
 2099 0026 0020     		movs	r0, #0
 2100              	.LVL155:
 946:../Drivers/STM32L4xx_HAL_Driver/Src/stm32l4xx_ll_usb.c **** 
 2101              		.loc 1 946 1 view .LVU671
 2102 0028 10BD     		pop	{r4, pc}
 2103              		.cfi_endproc
 2104              	.LFE149:
ARM GAS  /tmp/ccJzOZLR.s 			page 72


 2106              		.section	.text.USB_EPStartXfer,"ax",%progbits
 2107              		.align	1
 2108              		.global	USB_EPStartXfer
 2109              		.syntax unified
 2110              		.thumb
 2111              		.thumb_func
 2112              		.fpu fpv4-sp-d16
 2114              	USB_EPStartXfer:
 2115              	.LVL156:
 2116              	.LFB146:
 684:../Drivers/STM32L4xx_HAL_Driver/Src/stm32l4xx_ll_usb.c ****   uint32_t USBx_BASE = (uint32_t)USBx;
 2117              		.loc 1 684 1 is_stmt 1 view -0
 2118              		.cfi_startproc
 2119              		@ args = 0, pretend = 0, frame = 0
 2120              		@ frame_needed = 0, uses_anonymous_args = 0
 684:../Drivers/STM32L4xx_HAL_Driver/Src/stm32l4xx_ll_usb.c ****   uint32_t USBx_BASE = (uint32_t)USBx;
 2121              		.loc 1 684 1 is_stmt 0 view .LVU673
 2122 0000 70B5     		push	{r4, r5, r6, lr}
 2123              	.LCFI33:
 2124              		.cfi_def_cfa_offset 16
 2125              		.cfi_offset 4, -16
 2126              		.cfi_offset 5, -12
 2127              		.cfi_offset 6, -8
 2128              		.cfi_offset 14, -4
 685:../Drivers/STM32L4xx_HAL_Driver/Src/stm32l4xx_ll_usb.c ****   uint32_t epnum = (uint32_t)ep->num;
 2129              		.loc 1 685 3 is_stmt 1 view .LVU674
 2130              	.LVL157:
 686:../Drivers/STM32L4xx_HAL_Driver/Src/stm32l4xx_ll_usb.c ****   uint16_t pktcnt;
 2131              		.loc 1 686 3 view .LVU675
 686:../Drivers/STM32L4xx_HAL_Driver/Src/stm32l4xx_ll_usb.c ****   uint16_t pktcnt;
 2132              		.loc 1 686 32 is_stmt 0 view .LVU676
 2133 0002 0B78     		ldrb	r3, [r1]	@ zero_extendqisi2
 2134              	.LVL158:
 687:../Drivers/STM32L4xx_HAL_Driver/Src/stm32l4xx_ll_usb.c **** 
 2135              		.loc 1 687 3 is_stmt 1 view .LVU677
 690:../Drivers/STM32L4xx_HAL_Driver/Src/stm32l4xx_ll_usb.c ****   {
 2136              		.loc 1 690 3 view .LVU678
 690:../Drivers/STM32L4xx_HAL_Driver/Src/stm32l4xx_ll_usb.c ****   {
 2137              		.loc 1 690 9 is_stmt 0 view .LVU679
 2138 0004 4A78     		ldrb	r2, [r1, #1]	@ zero_extendqisi2
 690:../Drivers/STM32L4xx_HAL_Driver/Src/stm32l4xx_ll_usb.c ****   {
 2139              		.loc 1 690 6 view .LVU680
 2140 0006 012A     		cmp	r2, #1
 2141 0008 27D0     		beq	.L157
 750:../Drivers/STM32L4xx_HAL_Driver/Src/stm32l4xx_ll_usb.c ****     USBx_OUTEP(epnum)->DOEPTSIZ &= ~(USB_OTG_DOEPTSIZ_PKTCNT);
 2142              		.loc 1 750 5 is_stmt 1 view .LVU681
 750:../Drivers/STM32L4xx_HAL_Driver/Src/stm32l4xx_ll_usb.c ****     USBx_OUTEP(epnum)->DOEPTSIZ &= ~(USB_OTG_DOEPTSIZ_PKTCNT);
 2143              		.loc 1 750 33 is_stmt 0 view .LVU682
 2144 000a 00EB4313 		add	r3, r0, r3, lsl #5
 2145              	.LVL159:
 750:../Drivers/STM32L4xx_HAL_Driver/Src/stm32l4xx_ll_usb.c ****     USBx_OUTEP(epnum)->DOEPTSIZ &= ~(USB_OTG_DOEPTSIZ_PKTCNT);
 2146              		.loc 1 750 33 view .LVU683
 2147 000e 03F53062 		add	r2, r3, #2816
 2148 0012 1469     		ldr	r4, [r2, #16]
 2149 0014 E40C     		lsrs	r4, r4, #19
 2150 0016 E404     		lsls	r4, r4, #19
 2151 0018 1461     		str	r4, [r2, #16]
ARM GAS  /tmp/ccJzOZLR.s 			page 73


 2152              	.LVL160:
 751:../Drivers/STM32L4xx_HAL_Driver/Src/stm32l4xx_ll_usb.c **** 
 2153              		.loc 1 751 5 is_stmt 1 view .LVU684
 751:../Drivers/STM32L4xx_HAL_Driver/Src/stm32l4xx_ll_usb.c **** 
 2154              		.loc 1 751 33 is_stmt 0 view .LVU685
 2155 001a 1469     		ldr	r4, [r2, #16]
 2156 001c 24F0FF54 		bic	r4, r4, #534773760
 2157 0020 24F4C014 		bic	r4, r4, #1572864
 2158 0024 1461     		str	r4, [r2, #16]
 753:../Drivers/STM32L4xx_HAL_Driver/Src/stm32l4xx_ll_usb.c ****     {
 2159              		.loc 1 753 5 is_stmt 1 view .LVU686
 753:../Drivers/STM32L4xx_HAL_Driver/Src/stm32l4xx_ll_usb.c ****     {
 2160              		.loc 1 753 11 is_stmt 0 view .LVU687
 2161 0026 8C69     		ldr	r4, [r1, #24]
 753:../Drivers/STM32L4xx_HAL_Driver/Src/stm32l4xx_ll_usb.c ****     {
 2162              		.loc 1 753 8 view .LVU688
 2163 0028 002C     		cmp	r4, #0
 2164 002a 40F09380 		bne	.L152
 755:../Drivers/STM32L4xx_HAL_Driver/Src/stm32l4xx_ll_usb.c ****       USBx_OUTEP(epnum)->DOEPTSIZ |= (USB_OTG_DOEPTSIZ_PKTCNT & (1U << 19));
 2165              		.loc 1 755 7 is_stmt 1 view .LVU689
 755:../Drivers/STM32L4xx_HAL_Driver/Src/stm32l4xx_ll_usb.c ****       USBx_OUTEP(epnum)->DOEPTSIZ |= (USB_OTG_DOEPTSIZ_PKTCNT & (1U << 19));
 2166              		.loc 1 755 35 is_stmt 0 view .LVU690
 2167 002e 1469     		ldr	r4, [r2, #16]
 755:../Drivers/STM32L4xx_HAL_Driver/Src/stm32l4xx_ll_usb.c ****       USBx_OUTEP(epnum)->DOEPTSIZ |= (USB_OTG_DOEPTSIZ_PKTCNT & (1U << 19));
 2168              		.loc 1 755 67 view .LVU691
 2169 0030 CD68     		ldr	r5, [r1, #12]
 755:../Drivers/STM32L4xx_HAL_Driver/Src/stm32l4xx_ll_usb.c ****       USBx_OUTEP(epnum)->DOEPTSIZ |= (USB_OTG_DOEPTSIZ_PKTCNT & (1U << 19));
 2170              		.loc 1 755 63 view .LVU692
 2171 0032 C5F31205 		ubfx	r5, r5, #0, #19
 755:../Drivers/STM32L4xx_HAL_Driver/Src/stm32l4xx_ll_usb.c ****       USBx_OUTEP(epnum)->DOEPTSIZ |= (USB_OTG_DOEPTSIZ_PKTCNT & (1U << 19));
 2172              		.loc 1 755 35 view .LVU693
 2173 0036 2C43     		orrs	r4, r4, r5
 2174 0038 1461     		str	r4, [r2, #16]
 756:../Drivers/STM32L4xx_HAL_Driver/Src/stm32l4xx_ll_usb.c ****     }
 2175              		.loc 1 756 7 is_stmt 1 view .LVU694
 756:../Drivers/STM32L4xx_HAL_Driver/Src/stm32l4xx_ll_usb.c ****     }
 2176              		.loc 1 756 35 is_stmt 0 view .LVU695
 2177 003a 1469     		ldr	r4, [r2, #16]
 2178 003c 44F40024 		orr	r4, r4, #524288
 2179 0040 1461     		str	r4, [r2, #16]
 2180              	.L153:
 767:../Drivers/STM32L4xx_HAL_Driver/Src/stm32l4xx_ll_usb.c ****     {
 2181              		.loc 1 767 5 is_stmt 1 view .LVU696
 767:../Drivers/STM32L4xx_HAL_Driver/Src/stm32l4xx_ll_usb.c ****     {
 2182              		.loc 1 767 11 is_stmt 0 view .LVU697
 2183 0042 0A79     		ldrb	r2, [r1, #4]	@ zero_extendqisi2
 767:../Drivers/STM32L4xx_HAL_Driver/Src/stm32l4xx_ll_usb.c ****     {
 2184              		.loc 1 767 8 view .LVU698
 2185 0044 012A     		cmp	r2, #1
 2186 0046 00F09B80 		beq	.L158
 2187              	.L154:
 779:../Drivers/STM32L4xx_HAL_Driver/Src/stm32l4xx_ll_usb.c ****   }
 2188              		.loc 1 779 5 is_stmt 1 view .LVU699
 779:../Drivers/STM32L4xx_HAL_Driver/Src/stm32l4xx_ll_usb.c ****   }
 2189              		.loc 1 779 32 is_stmt 0 view .LVU700
 2190 004a D3F8002B 		ldr	r2, [r3, #2816]
 2191 004e 42F00442 		orr	r2, r2, #-2080374784
ARM GAS  /tmp/ccJzOZLR.s 			page 74


 2192 0052 C3F8002B 		str	r2, [r3, #2816]
 2193              	.LVL161:
 2194              	.L149:
 782:../Drivers/STM32L4xx_HAL_Driver/Src/stm32l4xx_ll_usb.c **** }
 2195              		.loc 1 782 3 is_stmt 1 view .LVU701
 783:../Drivers/STM32L4xx_HAL_Driver/Src/stm32l4xx_ll_usb.c **** 
 2196              		.loc 1 783 1 is_stmt 0 view .LVU702
 2197 0056 0020     		movs	r0, #0
 2198 0058 70BD     		pop	{r4, r5, r6, pc}
 2199              	.LVL162:
 2200              	.L157:
 693:../Drivers/STM32L4xx_HAL_Driver/Src/stm32l4xx_ll_usb.c ****     {
 2201              		.loc 1 693 5 is_stmt 1 view .LVU703
 693:../Drivers/STM32L4xx_HAL_Driver/Src/stm32l4xx_ll_usb.c ****     {
 2202              		.loc 1 693 11 is_stmt 0 view .LVU704
 2203 005a 8A69     		ldr	r2, [r1, #24]
 693:../Drivers/STM32L4xx_HAL_Driver/Src/stm32l4xx_ll_usb.c ****     {
 2204              		.loc 1 693 8 view .LVU705
 2205 005c 72BB     		cbnz	r2, .L146
 695:../Drivers/STM32L4xx_HAL_Driver/Src/stm32l4xx_ll_usb.c ****       USBx_INEP(epnum)->DIEPTSIZ |= (USB_OTG_DIEPTSIZ_PKTCNT & (1U << 19));
 2206              		.loc 1 695 7 is_stmt 1 view .LVU706
 695:../Drivers/STM32L4xx_HAL_Driver/Src/stm32l4xx_ll_usb.c ****       USBx_INEP(epnum)->DIEPTSIZ |= (USB_OTG_DIEPTSIZ_PKTCNT & (1U << 19));
 2207              		.loc 1 695 34 is_stmt 0 view .LVU707
 2208 005e 00EB4312 		add	r2, r0, r3, lsl #5
 2209 0062 D2F81049 		ldr	r4, [r2, #2320]
 2210 0066 24F0FF54 		bic	r4, r4, #534773760
 2211 006a 24F4C014 		bic	r4, r4, #1572864
 2212 006e C2F81049 		str	r4, [r2, #2320]
 696:../Drivers/STM32L4xx_HAL_Driver/Src/stm32l4xx_ll_usb.c ****       USBx_INEP(epnum)->DIEPTSIZ &= ~(USB_OTG_DIEPTSIZ_XFRSIZ);
 2213              		.loc 1 696 7 is_stmt 1 view .LVU708
 696:../Drivers/STM32L4xx_HAL_Driver/Src/stm32l4xx_ll_usb.c ****       USBx_INEP(epnum)->DIEPTSIZ &= ~(USB_OTG_DIEPTSIZ_XFRSIZ);
 2214              		.loc 1 696 34 is_stmt 0 view .LVU709
 2215 0072 D2F81049 		ldr	r4, [r2, #2320]
 2216 0076 44F40024 		orr	r4, r4, #524288
 2217 007a C2F81049 		str	r4, [r2, #2320]
 697:../Drivers/STM32L4xx_HAL_Driver/Src/stm32l4xx_ll_usb.c ****     }
 2218              		.loc 1 697 7 is_stmt 1 view .LVU710
 697:../Drivers/STM32L4xx_HAL_Driver/Src/stm32l4xx_ll_usb.c ****     }
 2219              		.loc 1 697 34 is_stmt 0 view .LVU711
 2220 007e D2F81049 		ldr	r4, [r2, #2320]
 2221 0082 E40C     		lsrs	r4, r4, #19
 2222 0084 E404     		lsls	r4, r4, #19
 2223 0086 C2F81049 		str	r4, [r2, #2320]
 2224              	.L147:
 720:../Drivers/STM32L4xx_HAL_Driver/Src/stm32l4xx_ll_usb.c **** 
 2225              		.loc 1 720 5 is_stmt 1 view .LVU712
 720:../Drivers/STM32L4xx_HAL_Driver/Src/stm32l4xx_ll_usb.c **** 
 2226              		.loc 1 720 31 is_stmt 0 view .LVU713
 2227 008a 00EB4313 		add	r3, r0, r3, lsl #5
 2228              	.LVL163:
 720:../Drivers/STM32L4xx_HAL_Driver/Src/stm32l4xx_ll_usb.c **** 
 2229              		.loc 1 720 31 view .LVU714
 2230 008e D3F80029 		ldr	r2, [r3, #2304]
 2231 0092 42F00442 		orr	r2, r2, #-2080374784
 2232 0096 C3F80029 		str	r2, [r3, #2304]
 722:../Drivers/STM32L4xx_HAL_Driver/Src/stm32l4xx_ll_usb.c ****     {
 2233              		.loc 1 722 5 is_stmt 1 view .LVU715
ARM GAS  /tmp/ccJzOZLR.s 			page 75


 722:../Drivers/STM32L4xx_HAL_Driver/Src/stm32l4xx_ll_usb.c ****     {
 2234              		.loc 1 722 11 is_stmt 0 view .LVU716
 2235 009a 0A79     		ldrb	r2, [r1, #4]	@ zero_extendqisi2
 722:../Drivers/STM32L4xx_HAL_Driver/Src/stm32l4xx_ll_usb.c ****     {
 2236              		.loc 1 722 8 view .LVU717
 2237 009c 012A     		cmp	r2, #1
 2238 009e 41D0     		beq	.L148
 725:../Drivers/STM32L4xx_HAL_Driver/Src/stm32l4xx_ll_usb.c ****       {
 2239              		.loc 1 725 7 is_stmt 1 view .LVU718
 725:../Drivers/STM32L4xx_HAL_Driver/Src/stm32l4xx_ll_usb.c ****       {
 2240              		.loc 1 725 13 is_stmt 0 view .LVU719
 2241 00a0 8B69     		ldr	r3, [r1, #24]
 725:../Drivers/STM32L4xx_HAL_Driver/Src/stm32l4xx_ll_usb.c ****       {
 2242              		.loc 1 725 10 view .LVU720
 2243 00a2 002B     		cmp	r3, #0
 2244 00a4 D7D0     		beq	.L149
 727:../Drivers/STM32L4xx_HAL_Driver/Src/stm32l4xx_ll_usb.c ****       }
 2245              		.loc 1 727 9 is_stmt 1 view .LVU721
 727:../Drivers/STM32L4xx_HAL_Driver/Src/stm32l4xx_ll_usb.c ****       }
 2246              		.loc 1 727 33 is_stmt 0 view .LVU722
 2247 00a6 D0F83438 		ldr	r3, [r0, #2100]
 727:../Drivers/STM32L4xx_HAL_Driver/Src/stm32l4xx_ll_usb.c ****       }
 2248              		.loc 1 727 46 view .LVU723
 2249 00aa 0A78     		ldrb	r2, [r1]	@ zero_extendqisi2
 727:../Drivers/STM32L4xx_HAL_Driver/Src/stm32l4xx_ll_usb.c ****       }
 2250              		.loc 1 727 52 view .LVU724
 2251 00ac 02F00F01 		and	r1, r2, #15
 2252              	.LVL164:
 727:../Drivers/STM32L4xx_HAL_Driver/Src/stm32l4xx_ll_usb.c ****       }
 2253              		.loc 1 727 40 view .LVU725
 2254 00b0 0122     		movs	r2, #1
 2255 00b2 8A40     		lsls	r2, r2, r1
 727:../Drivers/STM32L4xx_HAL_Driver/Src/stm32l4xx_ll_usb.c ****       }
 2256              		.loc 1 727 33 view .LVU726
 2257 00b4 1343     		orrs	r3, r3, r2
 2258 00b6 C0F83438 		str	r3, [r0, #2100]
 2259 00ba CCE7     		b	.L149
 2260              	.LVL165:
 2261              	.L146:
 706:../Drivers/STM32L4xx_HAL_Driver/Src/stm32l4xx_ll_usb.c ****       USBx_INEP(epnum)->DIEPTSIZ &= ~(USB_OTG_DIEPTSIZ_PKTCNT);
 2262              		.loc 1 706 7 is_stmt 1 view .LVU727
 706:../Drivers/STM32L4xx_HAL_Driver/Src/stm32l4xx_ll_usb.c ****       USBx_INEP(epnum)->DIEPTSIZ &= ~(USB_OTG_DIEPTSIZ_PKTCNT);
 2263              		.loc 1 706 34 is_stmt 0 view .LVU728
 2264 00bc 00EB4312 		add	r2, r0, r3, lsl #5
 2265 00c0 D2F81049 		ldr	r4, [r2, #2320]
 2266 00c4 E40C     		lsrs	r4, r4, #19
 2267 00c6 E404     		lsls	r4, r4, #19
 2268 00c8 C2F81049 		str	r4, [r2, #2320]
 707:../Drivers/STM32L4xx_HAL_Driver/Src/stm32l4xx_ll_usb.c ****       USBx_INEP(epnum)->DIEPTSIZ |= (USB_OTG_DIEPTSIZ_PKTCNT &
 2269              		.loc 1 707 7 is_stmt 1 view .LVU729
 707:../Drivers/STM32L4xx_HAL_Driver/Src/stm32l4xx_ll_usb.c ****       USBx_INEP(epnum)->DIEPTSIZ |= (USB_OTG_DIEPTSIZ_PKTCNT &
 2270              		.loc 1 707 34 is_stmt 0 view .LVU730
 2271 00cc D2F81049 		ldr	r4, [r2, #2320]
 2272 00d0 24F0FF54 		bic	r4, r4, #534773760
 2273 00d4 24F4C014 		bic	r4, r4, #1572864
 2274 00d8 C2F81049 		str	r4, [r2, #2320]
 708:../Drivers/STM32L4xx_HAL_Driver/Src/stm32l4xx_ll_usb.c ****                                      (((ep->xfer_len + ep->maxpacket - 1U) / ep->maxpacket) << 19))
ARM GAS  /tmp/ccJzOZLR.s 			page 76


 2275              		.loc 1 708 7 is_stmt 1 view .LVU731
 708:../Drivers/STM32L4xx_HAL_Driver/Src/stm32l4xx_ll_usb.c ****                                      (((ep->xfer_len + ep->maxpacket - 1U) / ep->maxpacket) << 19))
 2276              		.loc 1 708 34 is_stmt 0 view .LVU732
 2277 00dc D2F81059 		ldr	r5, [r2, #2320]
 709:../Drivers/STM32L4xx_HAL_Driver/Src/stm32l4xx_ll_usb.c **** 
 2278              		.loc 1 709 43 view .LVU733
 2279 00e0 8C69     		ldr	r4, [r1, #24]
 709:../Drivers/STM32L4xx_HAL_Driver/Src/stm32l4xx_ll_usb.c **** 
 2280              		.loc 1 709 58 view .LVU734
 2281 00e2 CE68     		ldr	r6, [r1, #12]
 709:../Drivers/STM32L4xx_HAL_Driver/Src/stm32l4xx_ll_usb.c **** 
 2282              		.loc 1 709 54 view .LVU735
 2283 00e4 3444     		add	r4, r4, r6
 709:../Drivers/STM32L4xx_HAL_Driver/Src/stm32l4xx_ll_usb.c **** 
 2284              		.loc 1 709 70 view .LVU736
 2285 00e6 013C     		subs	r4, r4, #1
 709:../Drivers/STM32L4xx_HAL_Driver/Src/stm32l4xx_ll_usb.c **** 
 2286              		.loc 1 709 76 view .LVU737
 2287 00e8 B4FBF6F4 		udiv	r4, r4, r6
 708:../Drivers/STM32L4xx_HAL_Driver/Src/stm32l4xx_ll_usb.c ****                                      (((ep->xfer_len + ep->maxpacket - 1U) / ep->maxpacket) << 19))
 2288              		.loc 1 708 62 view .LVU738
 2289 00ec 2E4E     		ldr	r6, .L159
 2290 00ee 06EAC444 		and	r4, r6, r4, lsl #19
 708:../Drivers/STM32L4xx_HAL_Driver/Src/stm32l4xx_ll_usb.c ****                                      (((ep->xfer_len + ep->maxpacket - 1U) / ep->maxpacket) << 19))
 2291              		.loc 1 708 34 view .LVU739
 2292 00f2 2C43     		orrs	r4, r4, r5
 2293 00f4 C2F81049 		str	r4, [r2, #2320]
 711:../Drivers/STM32L4xx_HAL_Driver/Src/stm32l4xx_ll_usb.c **** 
 2294              		.loc 1 711 7 is_stmt 1 view .LVU740
 711:../Drivers/STM32L4xx_HAL_Driver/Src/stm32l4xx_ll_usb.c **** 
 2295              		.loc 1 711 34 is_stmt 0 view .LVU741
 2296 00f8 D2F81049 		ldr	r4, [r2, #2320]
 711:../Drivers/STM32L4xx_HAL_Driver/Src/stm32l4xx_ll_usb.c **** 
 2297              		.loc 1 711 66 view .LVU742
 2298 00fc 8D69     		ldr	r5, [r1, #24]
 711:../Drivers/STM32L4xx_HAL_Driver/Src/stm32l4xx_ll_usb.c **** 
 2299              		.loc 1 711 62 view .LVU743
 2300 00fe C5F31205 		ubfx	r5, r5, #0, #19
 711:../Drivers/STM32L4xx_HAL_Driver/Src/stm32l4xx_ll_usb.c **** 
 2301              		.loc 1 711 34 view .LVU744
 2302 0102 2C43     		orrs	r4, r4, r5
 2303 0104 C2F81049 		str	r4, [r2, #2320]
 706:../Drivers/STM32L4xx_HAL_Driver/Src/stm32l4xx_ll_usb.c ****       USBx_INEP(epnum)->DIEPTSIZ &= ~(USB_OTG_DIEPTSIZ_PKTCNT);
 2304              		.loc 1 706 34 view .LVU745
 2305 0108 02F51062 		add	r2, r2, #2304
 713:../Drivers/STM32L4xx_HAL_Driver/Src/stm32l4xx_ll_usb.c ****       {
 2306              		.loc 1 713 7 is_stmt 1 view .LVU746
 713:../Drivers/STM32L4xx_HAL_Driver/Src/stm32l4xx_ll_usb.c ****       {
 2307              		.loc 1 713 13 is_stmt 0 view .LVU747
 2308 010c 0C79     		ldrb	r4, [r1, #4]	@ zero_extendqisi2
 713:../Drivers/STM32L4xx_HAL_Driver/Src/stm32l4xx_ll_usb.c ****       {
 2309              		.loc 1 713 10 view .LVU748
 2310 010e 012C     		cmp	r4, #1
 2311 0110 BBD1     		bne	.L147
 715:../Drivers/STM32L4xx_HAL_Driver/Src/stm32l4xx_ll_usb.c ****         USBx_INEP(epnum)->DIEPTSIZ |= (USB_OTG_DIEPTSIZ_MULCNT & (1U << 29));
 2312              		.loc 1 715 9 is_stmt 1 view .LVU749
 715:../Drivers/STM32L4xx_HAL_Driver/Src/stm32l4xx_ll_usb.c ****         USBx_INEP(epnum)->DIEPTSIZ |= (USB_OTG_DIEPTSIZ_MULCNT & (1U << 29));
ARM GAS  /tmp/ccJzOZLR.s 			page 77


 2313              		.loc 1 715 36 is_stmt 0 view .LVU750
 2314 0112 1469     		ldr	r4, [r2, #16]
 2315 0114 24F0C044 		bic	r4, r4, #1610612736
 2316 0118 1461     		str	r4, [r2, #16]
 716:../Drivers/STM32L4xx_HAL_Driver/Src/stm32l4xx_ll_usb.c ****       }
 2317              		.loc 1 716 9 is_stmt 1 view .LVU751
 716:../Drivers/STM32L4xx_HAL_Driver/Src/stm32l4xx_ll_usb.c ****       }
 2318              		.loc 1 716 36 is_stmt 0 view .LVU752
 2319 011a 1469     		ldr	r4, [r2, #16]
 2320 011c 44F00054 		orr	r4, r4, #536870912
 2321 0120 1461     		str	r4, [r2, #16]
 2322 0122 B2E7     		b	.L147
 2323              	.LVL166:
 2324              	.L148:
 732:../Drivers/STM32L4xx_HAL_Driver/Src/stm32l4xx_ll_usb.c ****       {
 2325              		.loc 1 732 7 is_stmt 1 view .LVU753
 732:../Drivers/STM32L4xx_HAL_Driver/Src/stm32l4xx_ll_usb.c ****       {
 2326              		.loc 1 732 23 is_stmt 0 view .LVU754
 2327 0124 D0F80828 		ldr	r2, [r0, #2056]
 732:../Drivers/STM32L4xx_HAL_Driver/Src/stm32l4xx_ll_usb.c ****       {
 2328              		.loc 1 732 10 view .LVU755
 2329 0128 12F4807F 		tst	r2, #256
 2330 012c 0BD1     		bne	.L150
 734:../Drivers/STM32L4xx_HAL_Driver/Src/stm32l4xx_ll_usb.c ****       }
 2331              		.loc 1 734 9 is_stmt 1 view .LVU756
 734:../Drivers/STM32L4xx_HAL_Driver/Src/stm32l4xx_ll_usb.c ****       }
 2332              		.loc 1 734 35 is_stmt 0 view .LVU757
 2333 012e D3F80029 		ldr	r2, [r3, #2304]
 2334 0132 42F00052 		orr	r2, r2, #536870912
 2335 0136 C3F80029 		str	r2, [r3, #2304]
 2336              	.L151:
 741:../Drivers/STM32L4xx_HAL_Driver/Src/stm32l4xx_ll_usb.c ****     }
 2337              		.loc 1 741 7 is_stmt 1 view .LVU758
 741:../Drivers/STM32L4xx_HAL_Driver/Src/stm32l4xx_ll_usb.c ****     }
 2338              		.loc 1 741 13 is_stmt 0 view .LVU759
 2339 013a 0B8B     		ldrh	r3, [r1, #24]
 2340 013c 0A78     		ldrb	r2, [r1]	@ zero_extendqisi2
 2341 013e 0969     		ldr	r1, [r1, #16]
 2342              	.LVL167:
 741:../Drivers/STM32L4xx_HAL_Driver/Src/stm32l4xx_ll_usb.c ****     }
 2343              		.loc 1 741 13 view .LVU760
 2344 0140 FFF7FEFF 		bl	USB_WritePacket
 2345              	.LVL168:
 741:../Drivers/STM32L4xx_HAL_Driver/Src/stm32l4xx_ll_usb.c ****     }
 2346              		.loc 1 741 13 view .LVU761
 2347 0144 87E7     		b	.L149
 2348              	.LVL169:
 2349              	.L150:
 738:../Drivers/STM32L4xx_HAL_Driver/Src/stm32l4xx_ll_usb.c ****       }
 2350              		.loc 1 738 9 is_stmt 1 view .LVU762
 738:../Drivers/STM32L4xx_HAL_Driver/Src/stm32l4xx_ll_usb.c ****       }
 2351              		.loc 1 738 35 is_stmt 0 view .LVU763
 2352 0146 D3F80029 		ldr	r2, [r3, #2304]
 2353 014a 42F08052 		orr	r2, r2, #268435456
 2354 014e C3F80029 		str	r2, [r3, #2304]
 2355 0152 F2E7     		b	.L151
 2356              	.L152:
ARM GAS  /tmp/ccJzOZLR.s 			page 78


 760:../Drivers/STM32L4xx_HAL_Driver/Src/stm32l4xx_ll_usb.c ****       ep->xfer_size = ep->maxpacket * pktcnt;
 2357              		.loc 1 760 7 is_stmt 1 view .LVU764
 760:../Drivers/STM32L4xx_HAL_Driver/Src/stm32l4xx_ll_usb.c ****       ep->xfer_size = ep->maxpacket * pktcnt;
 2358              		.loc 1 760 45 is_stmt 0 view .LVU765
 2359 0154 CD68     		ldr	r5, [r1, #12]
 760:../Drivers/STM32L4xx_HAL_Driver/Src/stm32l4xx_ll_usb.c ****       ep->xfer_size = ep->maxpacket * pktcnt;
 2360              		.loc 1 760 41 view .LVU766
 2361 0156 2C44     		add	r4, r4, r5
 760:../Drivers/STM32L4xx_HAL_Driver/Src/stm32l4xx_ll_usb.c ****       ep->xfer_size = ep->maxpacket * pktcnt;
 2362              		.loc 1 760 57 view .LVU767
 2363 0158 013C     		subs	r4, r4, #1
 760:../Drivers/STM32L4xx_HAL_Driver/Src/stm32l4xx_ll_usb.c ****       ep->xfer_size = ep->maxpacket * pktcnt;
 2364              		.loc 1 760 63 view .LVU768
 2365 015a B4FBF5F4 		udiv	r4, r4, r5
 2366              	.LVL170:
 761:../Drivers/STM32L4xx_HAL_Driver/Src/stm32l4xx_ll_usb.c **** 
 2367              		.loc 1 761 7 is_stmt 1 view .LVU769
 2368 015e A4B2     		uxth	r4, r4
 761:../Drivers/STM32L4xx_HAL_Driver/Src/stm32l4xx_ll_usb.c **** 
 2369              		.loc 1 761 37 is_stmt 0 view .LVU770
 2370 0160 04FB05F5 		mul	r5, r4, r5
 761:../Drivers/STM32L4xx_HAL_Driver/Src/stm32l4xx_ll_usb.c **** 
 2371              		.loc 1 761 21 view .LVU771
 2372 0164 CD61     		str	r5, [r1, #28]
 763:../Drivers/STM32L4xx_HAL_Driver/Src/stm32l4xx_ll_usb.c ****       USBx_OUTEP(epnum)->DOEPTSIZ |= USB_OTG_DOEPTSIZ_XFRSIZ & ep->xfer_size;
 2373              		.loc 1 763 7 is_stmt 1 view .LVU772
 763:../Drivers/STM32L4xx_HAL_Driver/Src/stm32l4xx_ll_usb.c ****       USBx_OUTEP(epnum)->DOEPTSIZ |= USB_OTG_DOEPTSIZ_XFRSIZ & ep->xfer_size;
 2374              		.loc 1 763 35 is_stmt 0 view .LVU773
 2375 0166 1569     		ldr	r5, [r2, #16]
 763:../Drivers/STM32L4xx_HAL_Driver/Src/stm32l4xx_ll_usb.c ****       USBx_OUTEP(epnum)->DOEPTSIZ |= USB_OTG_DOEPTSIZ_XFRSIZ & ep->xfer_size;
 2376              		.loc 1 763 62 view .LVU774
 2377 0168 0F4E     		ldr	r6, .L159
 2378 016a 06EAC444 		and	r4, r6, r4, lsl #19
 2379              	.LVL171:
 763:../Drivers/STM32L4xx_HAL_Driver/Src/stm32l4xx_ll_usb.c ****       USBx_OUTEP(epnum)->DOEPTSIZ |= USB_OTG_DOEPTSIZ_XFRSIZ & ep->xfer_size;
 2380              		.loc 1 763 35 view .LVU775
 2381 016e 2C43     		orrs	r4, r4, r5
 2382 0170 1461     		str	r4, [r2, #16]
 2383              	.LVL172:
 764:../Drivers/STM32L4xx_HAL_Driver/Src/stm32l4xx_ll_usb.c ****     }
 2384              		.loc 1 764 7 is_stmt 1 view .LVU776
 764:../Drivers/STM32L4xx_HAL_Driver/Src/stm32l4xx_ll_usb.c ****     }
 2385              		.loc 1 764 35 is_stmt 0 view .LVU777
 2386 0172 1469     		ldr	r4, [r2, #16]
 764:../Drivers/STM32L4xx_HAL_Driver/Src/stm32l4xx_ll_usb.c ****     }
 2387              		.loc 1 764 66 view .LVU778
 2388 0174 CD69     		ldr	r5, [r1, #28]
 764:../Drivers/STM32L4xx_HAL_Driver/Src/stm32l4xx_ll_usb.c ****     }
 2389              		.loc 1 764 62 view .LVU779
 2390 0176 C5F31205 		ubfx	r5, r5, #0, #19
 764:../Drivers/STM32L4xx_HAL_Driver/Src/stm32l4xx_ll_usb.c ****     }
 2391              		.loc 1 764 35 view .LVU780
 2392 017a 2C43     		orrs	r4, r4, r5
 2393 017c 1461     		str	r4, [r2, #16]
 2394 017e 60E7     		b	.L153
 2395              	.L158:
 769:../Drivers/STM32L4xx_HAL_Driver/Src/stm32l4xx_ll_usb.c ****       {
ARM GAS  /tmp/ccJzOZLR.s 			page 79


 2396              		.loc 1 769 7 is_stmt 1 view .LVU781
 769:../Drivers/STM32L4xx_HAL_Driver/Src/stm32l4xx_ll_usb.c ****       {
 2397              		.loc 1 769 23 is_stmt 0 view .LVU782
 2398 0180 D0F80828 		ldr	r2, [r0, #2056]
 769:../Drivers/STM32L4xx_HAL_Driver/Src/stm32l4xx_ll_usb.c ****       {
 2399              		.loc 1 769 10 view .LVU783
 2400 0184 12F4807F 		tst	r2, #256
 2401 0188 06D1     		bne	.L155
 771:../Drivers/STM32L4xx_HAL_Driver/Src/stm32l4xx_ll_usb.c ****       }
 2402              		.loc 1 771 9 is_stmt 1 view .LVU784
 771:../Drivers/STM32L4xx_HAL_Driver/Src/stm32l4xx_ll_usb.c ****       }
 2403              		.loc 1 771 36 is_stmt 0 view .LVU785
 2404 018a D3F8002B 		ldr	r2, [r3, #2816]
 2405 018e 42F00052 		orr	r2, r2, #536870912
 2406 0192 C3F8002B 		str	r2, [r3, #2816]
 2407 0196 58E7     		b	.L154
 2408              	.L155:
 775:../Drivers/STM32L4xx_HAL_Driver/Src/stm32l4xx_ll_usb.c ****       }
 2409              		.loc 1 775 9 is_stmt 1 view .LVU786
 775:../Drivers/STM32L4xx_HAL_Driver/Src/stm32l4xx_ll_usb.c ****       }
 2410              		.loc 1 775 36 is_stmt 0 view .LVU787
 2411 0198 D3F8002B 		ldr	r2, [r3, #2816]
 2412 019c 42F08052 		orr	r2, r2, #268435456
 2413 01a0 C3F8002B 		str	r2, [r3, #2816]
 2414 01a4 51E7     		b	.L154
 2415              	.L160:
 2416 01a6 00BF     		.align	2
 2417              	.L159:
 2418 01a8 0000F81F 		.word	536346624
 2419              		.cfi_endproc
 2420              	.LFE146:
 2422              		.section	.text.USB_ReadPacket,"ax",%progbits
 2423              		.align	1
 2424              		.global	USB_ReadPacket
 2425              		.syntax unified
 2426              		.thumb
 2427              		.thumb_func
 2428              		.fpu fpv4-sp-d16
 2430              	USB_ReadPacket:
 2431              	.LVL173:
 2432              	.LFB150:
 956:../Drivers/STM32L4xx_HAL_Driver/Src/stm32l4xx_ll_usb.c ****   uint32_t USBx_BASE = (uint32_t)USBx;
 2433              		.loc 1 956 1 is_stmt 1 view -0
 2434              		.cfi_startproc
 2435              		@ args = 0, pretend = 0, frame = 8
 2436              		@ frame_needed = 0, uses_anonymous_args = 0
 956:../Drivers/STM32L4xx_HAL_Driver/Src/stm32l4xx_ll_usb.c ****   uint32_t USBx_BASE = (uint32_t)USBx;
 2437              		.loc 1 956 1 is_stmt 0 view .LVU789
 2438 0000 00B5     		push	{lr}
 2439              	.LCFI34:
 2440              		.cfi_def_cfa_offset 4
 2441              		.cfi_offset 14, -4
 2442 0002 83B0     		sub	sp, sp, #12
 2443              	.LCFI35:
 2444              		.cfi_def_cfa_offset 16
 2445 0004 8446     		mov	ip, r0
 2446 0006 0846     		mov	r0, r1
ARM GAS  /tmp/ccJzOZLR.s 			page 80


 2447              	.LVL174:
 957:../Drivers/STM32L4xx_HAL_Driver/Src/stm32l4xx_ll_usb.c ****   uint8_t *pDest = dest;
 2448              		.loc 1 957 3 is_stmt 1 view .LVU790
 958:../Drivers/STM32L4xx_HAL_Driver/Src/stm32l4xx_ll_usb.c ****   uint32_t pData;
 2449              		.loc 1 958 3 view .LVU791
 959:../Drivers/STM32L4xx_HAL_Driver/Src/stm32l4xx_ll_usb.c ****   uint32_t i;
 2450              		.loc 1 959 3 view .LVU792
 960:../Drivers/STM32L4xx_HAL_Driver/Src/stm32l4xx_ll_usb.c ****   uint32_t count32b = (uint32_t)len >> 2U;
 2451              		.loc 1 960 3 view .LVU793
 961:../Drivers/STM32L4xx_HAL_Driver/Src/stm32l4xx_ll_usb.c ****   uint16_t remaining_bytes = len % 4U;
 2452              		.loc 1 961 3 view .LVU794
 961:../Drivers/STM32L4xx_HAL_Driver/Src/stm32l4xx_ll_usb.c ****   uint16_t remaining_bytes = len % 4U;
 2453              		.loc 1 961 37 is_stmt 0 view .LVU795
 2454 0008 4FEA920E 		lsr	lr, r2, #2
 2455              	.LVL175:
 962:../Drivers/STM32L4xx_HAL_Driver/Src/stm32l4xx_ll_usb.c **** 
 2456              		.loc 1 962 3 is_stmt 1 view .LVU796
 962:../Drivers/STM32L4xx_HAL_Driver/Src/stm32l4xx_ll_usb.c **** 
 2457              		.loc 1 962 12 is_stmt 0 view .LVU797
 2458 000c 02F00302 		and	r2, r2, #3
 2459              	.LVL176:
 964:../Drivers/STM32L4xx_HAL_Driver/Src/stm32l4xx_ll_usb.c ****   {
 2460              		.loc 1 964 3 is_stmt 1 view .LVU798
 964:../Drivers/STM32L4xx_HAL_Driver/Src/stm32l4xx_ll_usb.c ****   {
 2461              		.loc 1 964 10 is_stmt 0 view .LVU799
 2462 0010 0023     		movs	r3, #0
 964:../Drivers/STM32L4xx_HAL_Driver/Src/stm32l4xx_ll_usb.c ****   {
 2463              		.loc 1 964 3 view .LVU800
 2464 0012 05E0     		b	.L162
 2465              	.LVL177:
 2466              	.L163:
 966:../Drivers/STM32L4xx_HAL_Driver/Src/stm32l4xx_ll_usb.c ****     pDest++;
 2467              		.loc 1 966 5 is_stmt 1 discriminator 3 view .LVU801
 2468 0014 0CF58051 		add	r1, ip, #4096
 2469 0018 0968     		ldr	r1, [r1]
 2470 001a 40F8041B 		str	r1, [r0], #4	@ unaligned
 2471              	.LVL178:
 967:../Drivers/STM32L4xx_HAL_Driver/Src/stm32l4xx_ll_usb.c ****     pDest++;
 2472              		.loc 1 967 5 discriminator 3 view .LVU802
 968:../Drivers/STM32L4xx_HAL_Driver/Src/stm32l4xx_ll_usb.c ****     pDest++;
 2473              		.loc 1 968 5 discriminator 3 view .LVU803
 969:../Drivers/STM32L4xx_HAL_Driver/Src/stm32l4xx_ll_usb.c ****     pDest++;
 2474              		.loc 1 969 5 discriminator 3 view .LVU804
 970:../Drivers/STM32L4xx_HAL_Driver/Src/stm32l4xx_ll_usb.c ****   }
 2475              		.loc 1 970 5 discriminator 3 view .LVU805
 964:../Drivers/STM32L4xx_HAL_Driver/Src/stm32l4xx_ll_usb.c ****   {
 2476              		.loc 1 964 30 discriminator 3 view .LVU806
 964:../Drivers/STM32L4xx_HAL_Driver/Src/stm32l4xx_ll_usb.c ****   {
 2477              		.loc 1 964 31 is_stmt 0 discriminator 3 view .LVU807
 2478 001e 0133     		adds	r3, r3, #1
 2479              	.LVL179:
 2480              	.L162:
 964:../Drivers/STM32L4xx_HAL_Driver/Src/stm32l4xx_ll_usb.c ****   {
 2481              		.loc 1 964 16 is_stmt 1 discriminator 1 view .LVU808
 964:../Drivers/STM32L4xx_HAL_Driver/Src/stm32l4xx_ll_usb.c ****   {
 2482              		.loc 1 964 3 is_stmt 0 discriminator 1 view .LVU809
 2483 0020 7345     		cmp	r3, lr
ARM GAS  /tmp/ccJzOZLR.s 			page 81


 2484 0022 F7D3     		bcc	.L163
 974:../Drivers/STM32L4xx_HAL_Driver/Src/stm32l4xx_ll_usb.c ****   {
 2485              		.loc 1 974 3 is_stmt 1 view .LVU810
 974:../Drivers/STM32L4xx_HAL_Driver/Src/stm32l4xx_ll_usb.c ****   {
 2486              		.loc 1 974 6 is_stmt 0 view .LVU811
 2487 0024 9AB1     		cbz	r2, .L164
 976:../Drivers/STM32L4xx_HAL_Driver/Src/stm32l4xx_ll_usb.c ****     __UNALIGNED_UINT32_WRITE(&pData, USBx_DFIFO(0U));
 2488              		.loc 1 976 5 is_stmt 1 view .LVU812
 2489              	.LVL180:
 977:../Drivers/STM32L4xx_HAL_Driver/Src/stm32l4xx_ll_usb.c **** 
 2490              		.loc 1 977 5 view .LVU813
 2491 0026 0CF5805C 		add	ip, ip, #4096
 2492              	.LVL181:
 977:../Drivers/STM32L4xx_HAL_Driver/Src/stm32l4xx_ll_usb.c **** 
 2493              		.loc 1 977 5 is_stmt 0 view .LVU814
 2494 002a DCF80030 		ldr	r3, [ip]
 2495 002e 0193     		str	r3, [sp, #4]
 976:../Drivers/STM32L4xx_HAL_Driver/Src/stm32l4xx_ll_usb.c ****     __UNALIGNED_UINT32_WRITE(&pData, USBx_DFIFO(0U));
 2496              		.loc 1 976 7 view .LVU815
 2497 0030 4FF0000C 		mov	ip, #0
 2498              	.LVL182:
 2499              	.L165:
 979:../Drivers/STM32L4xx_HAL_Driver/Src/stm32l4xx_ll_usb.c ****     {
 2500              		.loc 1 979 5 is_stmt 1 discriminator 1 view .LVU816
 981:../Drivers/STM32L4xx_HAL_Driver/Src/stm32l4xx_ll_usb.c ****       i++;
 2501              		.loc 1 981 7 discriminator 1 view .LVU817
 981:../Drivers/STM32L4xx_HAL_Driver/Src/stm32l4xx_ll_usb.c ****       i++;
 2502              		.loc 1 981 50 is_stmt 0 discriminator 1 view .LVU818
 2503 0034 5FFA8CF3 		uxtb	r3, ip
 2504 0038 D900     		lsls	r1, r3, #3
 981:../Drivers/STM32L4xx_HAL_Driver/Src/stm32l4xx_ll_usb.c ****       i++;
 2505              		.loc 1 981 43 discriminator 1 view .LVU819
 2506 003a 019B     		ldr	r3, [sp, #4]
 2507 003c CB40     		lsrs	r3, r3, r1
 981:../Drivers/STM32L4xx_HAL_Driver/Src/stm32l4xx_ll_usb.c ****       i++;
 2508              		.loc 1 981 25 discriminator 1 view .LVU820
 2509 003e 00F8013B 		strb	r3, [r0], #1
 2510              	.LVL183:
 982:../Drivers/STM32L4xx_HAL_Driver/Src/stm32l4xx_ll_usb.c ****       pDest++;
 2511              		.loc 1 982 7 is_stmt 1 discriminator 1 view .LVU821
 982:../Drivers/STM32L4xx_HAL_Driver/Src/stm32l4xx_ll_usb.c ****       pDest++;
 2512              		.loc 1 982 8 is_stmt 0 discriminator 1 view .LVU822
 2513 0042 0CF1010C 		add	ip, ip, #1
 2514              	.LVL184:
 983:../Drivers/STM32L4xx_HAL_Driver/Src/stm32l4xx_ll_usb.c ****       remaining_bytes--;
 2515              		.loc 1 983 7 is_stmt 1 discriminator 1 view .LVU823
 984:../Drivers/STM32L4xx_HAL_Driver/Src/stm32l4xx_ll_usb.c ****     } while (remaining_bytes != 0U);
 2516              		.loc 1 984 7 discriminator 1 view .LVU824
 984:../Drivers/STM32L4xx_HAL_Driver/Src/stm32l4xx_ll_usb.c ****     } while (remaining_bytes != 0U);
 2517              		.loc 1 984 22 is_stmt 0 discriminator 1 view .LVU825
 2518 0046 013A     		subs	r2, r2, #1
 2519              	.LVL185:
 984:../Drivers/STM32L4xx_HAL_Driver/Src/stm32l4xx_ll_usb.c ****     } while (remaining_bytes != 0U);
 2520              		.loc 1 984 22 discriminator 1 view .LVU826
 2521 0048 92B2     		uxth	r2, r2
 2522              	.LVL186:
 985:../Drivers/STM32L4xx_HAL_Driver/Src/stm32l4xx_ll_usb.c ****   }
ARM GAS  /tmp/ccJzOZLR.s 			page 82


 2523              		.loc 1 985 13 is_stmt 1 discriminator 1 view .LVU827
 985:../Drivers/STM32L4xx_HAL_Driver/Src/stm32l4xx_ll_usb.c ****   }
 2524              		.loc 1 985 5 is_stmt 0 discriminator 1 view .LVU828
 2525 004a 002A     		cmp	r2, #0
 2526 004c F2D1     		bne	.L165
 2527              	.LVL187:
 2528              	.L164:
 988:../Drivers/STM32L4xx_HAL_Driver/Src/stm32l4xx_ll_usb.c **** }
 2529              		.loc 1 988 3 is_stmt 1 view .LVU829
 989:../Drivers/STM32L4xx_HAL_Driver/Src/stm32l4xx_ll_usb.c **** 
 2530              		.loc 1 989 1 is_stmt 0 view .LVU830
 2531 004e 03B0     		add	sp, sp, #12
 2532              	.LCFI36:
 2533              		.cfi_def_cfa_offset 4
 2534              		@ sp needed
 2535 0050 5DF804FB 		ldr	pc, [sp], #4
 2536              		.cfi_endproc
 2537              	.LFE150:
 2539              		.section	.text.USB_EPSetStall,"ax",%progbits
 2540              		.align	1
 2541              		.global	USB_EPSetStall
 2542              		.syntax unified
 2543              		.thumb
 2544              		.thumb_func
 2545              		.fpu fpv4-sp-d16
 2547              	USB_EPSetStall:
 2548              	.LVL188:
 2549              	.LFB151:
 998:../Drivers/STM32L4xx_HAL_Driver/Src/stm32l4xx_ll_usb.c ****   uint32_t USBx_BASE = (uint32_t)USBx;
 2550              		.loc 1 998 1 is_stmt 1 view -0
 2551              		.cfi_startproc
 2552              		@ args = 0, pretend = 0, frame = 0
 2553              		@ frame_needed = 0, uses_anonymous_args = 0
 2554              		@ link register save eliminated.
 999:../Drivers/STM32L4xx_HAL_Driver/Src/stm32l4xx_ll_usb.c ****   uint32_t epnum = (uint32_t)ep->num;
 2555              		.loc 1 999 3 view .LVU832
1000:../Drivers/STM32L4xx_HAL_Driver/Src/stm32l4xx_ll_usb.c **** 
 2556              		.loc 1 1000 3 view .LVU833
1000:../Drivers/STM32L4xx_HAL_Driver/Src/stm32l4xx_ll_usb.c **** 
 2557              		.loc 1 1000 32 is_stmt 0 view .LVU834
 2558 0000 0B78     		ldrb	r3, [r1]	@ zero_extendqisi2
 2559              	.LVL189:
1002:../Drivers/STM32L4xx_HAL_Driver/Src/stm32l4xx_ll_usb.c ****   {
 2560              		.loc 1 1002 3 is_stmt 1 view .LVU835
1002:../Drivers/STM32L4xx_HAL_Driver/Src/stm32l4xx_ll_usb.c ****   {
 2561              		.loc 1 1002 9 is_stmt 0 view .LVU836
 2562 0002 4A78     		ldrb	r2, [r1, #1]	@ zero_extendqisi2
1002:../Drivers/STM32L4xx_HAL_Driver/Src/stm32l4xx_ll_usb.c ****   {
 2563              		.loc 1 1002 6 view .LVU837
 2564 0004 012A     		cmp	r2, #1
 2565 0006 14D0     		beq	.L172
1012:../Drivers/STM32L4xx_HAL_Driver/Src/stm32l4xx_ll_usb.c ****     {
 2566              		.loc 1 1012 5 is_stmt 1 view .LVU838
1012:../Drivers/STM32L4xx_HAL_Driver/Src/stm32l4xx_ll_usb.c ****     {
 2567              		.loc 1 1012 11 is_stmt 0 view .LVU839
 2568 0008 00EB4310 		add	r0, r0, r3, lsl #5
 2569              	.LVL190:
ARM GAS  /tmp/ccJzOZLR.s 			page 83


1012:../Drivers/STM32L4xx_HAL_Driver/Src/stm32l4xx_ll_usb.c ****     {
 2570              		.loc 1 1012 28 view .LVU840
 2571 000c D0F8002B 		ldr	r2, [r0, #2816]
1012:../Drivers/STM32L4xx_HAL_Driver/Src/stm32l4xx_ll_usb.c ****     {
 2572              		.loc 1 1012 8 view .LVU841
 2573 0010 002A     		cmp	r2, #0
 2574 0012 06DB     		blt	.L171
1012:../Drivers/STM32L4xx_HAL_Driver/Src/stm32l4xx_ll_usb.c ****     {
 2575              		.loc 1 1012 70 discriminator 1 view .LVU842
 2576 0014 2BB1     		cbz	r3, .L171
1014:../Drivers/STM32L4xx_HAL_Driver/Src/stm32l4xx_ll_usb.c ****     }
 2577              		.loc 1 1014 7 is_stmt 1 view .LVU843
1014:../Drivers/STM32L4xx_HAL_Driver/Src/stm32l4xx_ll_usb.c ****     }
 2578              		.loc 1 1014 34 is_stmt 0 view .LVU844
 2579 0016 D0F8003B 		ldr	r3, [r0, #2816]
 2580              	.LVL191:
1014:../Drivers/STM32L4xx_HAL_Driver/Src/stm32l4xx_ll_usb.c ****     }
 2581              		.loc 1 1014 34 view .LVU845
 2582 001a 23F08043 		bic	r3, r3, #1073741824
 2583 001e C0F8003B 		str	r3, [r0, #2816]
 2584              	.LVL192:
 2585              	.L171:
1016:../Drivers/STM32L4xx_HAL_Driver/Src/stm32l4xx_ll_usb.c ****   }
 2586              		.loc 1 1016 5 is_stmt 1 view .LVU846
1016:../Drivers/STM32L4xx_HAL_Driver/Src/stm32l4xx_ll_usb.c ****   }
 2587              		.loc 1 1016 32 is_stmt 0 view .LVU847
 2588 0022 D0F8003B 		ldr	r3, [r0, #2816]
 2589 0026 43F40013 		orr	r3, r3, #2097152
 2590 002a C0F8003B 		str	r3, [r0, #2816]
 2591              	.L170:
1019:../Drivers/STM32L4xx_HAL_Driver/Src/stm32l4xx_ll_usb.c **** }
 2592              		.loc 1 1019 3 is_stmt 1 view .LVU848
1020:../Drivers/STM32L4xx_HAL_Driver/Src/stm32l4xx_ll_usb.c **** 
 2593              		.loc 1 1020 1 is_stmt 0 view .LVU849
 2594 002e 0020     		movs	r0, #0
 2595 0030 7047     		bx	lr
 2596              	.LVL193:
 2597              	.L172:
1004:../Drivers/STM32L4xx_HAL_Driver/Src/stm32l4xx_ll_usb.c ****     {
 2598              		.loc 1 1004 5 is_stmt 1 view .LVU850
1004:../Drivers/STM32L4xx_HAL_Driver/Src/stm32l4xx_ll_usb.c ****     {
 2599              		.loc 1 1004 11 is_stmt 0 view .LVU851
 2600 0032 00EB4310 		add	r0, r0, r3, lsl #5
 2601              	.LVL194:
1004:../Drivers/STM32L4xx_HAL_Driver/Src/stm32l4xx_ll_usb.c ****     {
 2602              		.loc 1 1004 27 view .LVU852
 2603 0036 D0F80029 		ldr	r2, [r0, #2304]
1004:../Drivers/STM32L4xx_HAL_Driver/Src/stm32l4xx_ll_usb.c ****     {
 2604              		.loc 1 1004 8 view .LVU853
 2605 003a 002A     		cmp	r2, #0
 2606 003c 06DB     		blt	.L169
1004:../Drivers/STM32L4xx_HAL_Driver/Src/stm32l4xx_ll_usb.c ****     {
 2607              		.loc 1 1004 69 discriminator 1 view .LVU854
 2608 003e 2BB1     		cbz	r3, .L169
1006:../Drivers/STM32L4xx_HAL_Driver/Src/stm32l4xx_ll_usb.c ****     }
 2609              		.loc 1 1006 7 is_stmt 1 view .LVU855
1006:../Drivers/STM32L4xx_HAL_Driver/Src/stm32l4xx_ll_usb.c ****     }
ARM GAS  /tmp/ccJzOZLR.s 			page 84


 2610              		.loc 1 1006 33 is_stmt 0 view .LVU856
 2611 0040 D0F80039 		ldr	r3, [r0, #2304]
 2612              	.LVL195:
1006:../Drivers/STM32L4xx_HAL_Driver/Src/stm32l4xx_ll_usb.c ****     }
 2613              		.loc 1 1006 33 view .LVU857
 2614 0044 23F08043 		bic	r3, r3, #1073741824
 2615 0048 C0F80039 		str	r3, [r0, #2304]
 2616              	.LVL196:
 2617              	.L169:
1008:../Drivers/STM32L4xx_HAL_Driver/Src/stm32l4xx_ll_usb.c ****   }
 2618              		.loc 1 1008 5 is_stmt 1 view .LVU858
1008:../Drivers/STM32L4xx_HAL_Driver/Src/stm32l4xx_ll_usb.c ****   }
 2619              		.loc 1 1008 31 is_stmt 0 view .LVU859
 2620 004c D0F80039 		ldr	r3, [r0, #2304]
 2621 0050 43F40013 		orr	r3, r3, #2097152
 2622 0054 C0F80039 		str	r3, [r0, #2304]
 2623 0058 E9E7     		b	.L170
 2624              		.cfi_endproc
 2625              	.LFE151:
 2627              		.section	.text.USB_EPClearStall,"ax",%progbits
 2628              		.align	1
 2629              		.global	USB_EPClearStall
 2630              		.syntax unified
 2631              		.thumb
 2632              		.thumb_func
 2633              		.fpu fpv4-sp-d16
 2635              	USB_EPClearStall:
 2636              	.LVL197:
 2637              	.LFB152:
1029:../Drivers/STM32L4xx_HAL_Driver/Src/stm32l4xx_ll_usb.c ****   uint32_t USBx_BASE = (uint32_t)USBx;
 2638              		.loc 1 1029 1 is_stmt 1 view -0
 2639              		.cfi_startproc
 2640              		@ args = 0, pretend = 0, frame = 0
 2641              		@ frame_needed = 0, uses_anonymous_args = 0
 2642              		@ link register save eliminated.
1030:../Drivers/STM32L4xx_HAL_Driver/Src/stm32l4xx_ll_usb.c ****   uint32_t epnum = (uint32_t)ep->num;
 2643              		.loc 1 1030 3 view .LVU861
1031:../Drivers/STM32L4xx_HAL_Driver/Src/stm32l4xx_ll_usb.c **** 
 2644              		.loc 1 1031 3 view .LVU862
1031:../Drivers/STM32L4xx_HAL_Driver/Src/stm32l4xx_ll_usb.c **** 
 2645              		.loc 1 1031 32 is_stmt 0 view .LVU863
 2646 0000 0B78     		ldrb	r3, [r1]	@ zero_extendqisi2
 2647              	.LVL198:
1033:../Drivers/STM32L4xx_HAL_Driver/Src/stm32l4xx_ll_usb.c ****   {
 2648              		.loc 1 1033 3 is_stmt 1 view .LVU864
1033:../Drivers/STM32L4xx_HAL_Driver/Src/stm32l4xx_ll_usb.c ****   {
 2649              		.loc 1 1033 9 is_stmt 0 view .LVU865
 2650 0002 4A78     		ldrb	r2, [r1, #1]	@ zero_extendqisi2
1033:../Drivers/STM32L4xx_HAL_Driver/Src/stm32l4xx_ll_usb.c ****   {
 2651              		.loc 1 1033 6 view .LVU866
 2652 0004 012A     		cmp	r2, #1
 2653 0006 0ED0     		beq	.L176
1043:../Drivers/STM32L4xx_HAL_Driver/Src/stm32l4xx_ll_usb.c ****     if ((ep->type == EP_TYPE_INTR) || (ep->type == EP_TYPE_BULK))
 2654              		.loc 1 1043 5 is_stmt 1 view .LVU867
1043:../Drivers/STM32L4xx_HAL_Driver/Src/stm32l4xx_ll_usb.c ****     if ((ep->type == EP_TYPE_INTR) || (ep->type == EP_TYPE_BULK))
 2655              		.loc 1 1043 32 is_stmt 0 view .LVU868
 2656 0008 00EB4310 		add	r0, r0, r3, lsl #5
ARM GAS  /tmp/ccJzOZLR.s 			page 85


 2657              	.LVL199:
1043:../Drivers/STM32L4xx_HAL_Driver/Src/stm32l4xx_ll_usb.c ****     if ((ep->type == EP_TYPE_INTR) || (ep->type == EP_TYPE_BULK))
 2658              		.loc 1 1043 32 view .LVU869
 2659 000c D0F8003B 		ldr	r3, [r0, #2816]
 2660              	.LVL200:
1043:../Drivers/STM32L4xx_HAL_Driver/Src/stm32l4xx_ll_usb.c ****     if ((ep->type == EP_TYPE_INTR) || (ep->type == EP_TYPE_BULK))
 2661              		.loc 1 1043 32 view .LVU870
 2662 0010 23F40013 		bic	r3, r3, #2097152
 2663 0014 C0F8003B 		str	r3, [r0, #2816]
 2664              	.LVL201:
1044:../Drivers/STM32L4xx_HAL_Driver/Src/stm32l4xx_ll_usb.c ****     {
 2665              		.loc 1 1044 5 is_stmt 1 view .LVU871
1044:../Drivers/STM32L4xx_HAL_Driver/Src/stm32l4xx_ll_usb.c ****     {
 2666              		.loc 1 1044 12 is_stmt 0 view .LVU872
 2667 0018 0B79     		ldrb	r3, [r1, #4]	@ zero_extendqisi2
1044:../Drivers/STM32L4xx_HAL_Driver/Src/stm32l4xx_ll_usb.c ****     {
 2668              		.loc 1 1044 36 view .LVU873
 2669 001a 023B     		subs	r3, r3, #2
 2670 001c DBB2     		uxtb	r3, r3
1044:../Drivers/STM32L4xx_HAL_Driver/Src/stm32l4xx_ll_usb.c ****     {
 2671              		.loc 1 1044 8 view .LVU874
 2672 001e 012B     		cmp	r3, #1
 2673 0020 15D9     		bls	.L177
 2674              	.L175:
1049:../Drivers/STM32L4xx_HAL_Driver/Src/stm32l4xx_ll_usb.c **** }
 2675              		.loc 1 1049 3 is_stmt 1 view .LVU875
1050:../Drivers/STM32L4xx_HAL_Driver/Src/stm32l4xx_ll_usb.c **** 
 2676              		.loc 1 1050 1 is_stmt 0 view .LVU876
 2677 0022 0020     		movs	r0, #0
 2678 0024 7047     		bx	lr
 2679              	.LVL202:
 2680              	.L176:
1035:../Drivers/STM32L4xx_HAL_Driver/Src/stm32l4xx_ll_usb.c ****     if ((ep->type == EP_TYPE_INTR) || (ep->type == EP_TYPE_BULK))
 2681              		.loc 1 1035 5 is_stmt 1 view .LVU877
1035:../Drivers/STM32L4xx_HAL_Driver/Src/stm32l4xx_ll_usb.c ****     if ((ep->type == EP_TYPE_INTR) || (ep->type == EP_TYPE_BULK))
 2682              		.loc 1 1035 31 is_stmt 0 view .LVU878
 2683 0026 00EB4310 		add	r0, r0, r3, lsl #5
 2684              	.LVL203:
1035:../Drivers/STM32L4xx_HAL_Driver/Src/stm32l4xx_ll_usb.c ****     if ((ep->type == EP_TYPE_INTR) || (ep->type == EP_TYPE_BULK))
 2685              		.loc 1 1035 31 view .LVU879
 2686 002a D0F80039 		ldr	r3, [r0, #2304]
 2687              	.LVL204:
1035:../Drivers/STM32L4xx_HAL_Driver/Src/stm32l4xx_ll_usb.c ****     if ((ep->type == EP_TYPE_INTR) || (ep->type == EP_TYPE_BULK))
 2688              		.loc 1 1035 31 view .LVU880
 2689 002e 23F40013 		bic	r3, r3, #2097152
 2690 0032 C0F80039 		str	r3, [r0, #2304]
 2691              	.LVL205:
1036:../Drivers/STM32L4xx_HAL_Driver/Src/stm32l4xx_ll_usb.c ****     {
 2692              		.loc 1 1036 5 is_stmt 1 view .LVU881
1036:../Drivers/STM32L4xx_HAL_Driver/Src/stm32l4xx_ll_usb.c ****     {
 2693              		.loc 1 1036 12 is_stmt 0 view .LVU882
 2694 0036 0B79     		ldrb	r3, [r1, #4]	@ zero_extendqisi2
1036:../Drivers/STM32L4xx_HAL_Driver/Src/stm32l4xx_ll_usb.c ****     {
 2695              		.loc 1 1036 36 view .LVU883
 2696 0038 023B     		subs	r3, r3, #2
 2697 003a DBB2     		uxtb	r3, r3
1036:../Drivers/STM32L4xx_HAL_Driver/Src/stm32l4xx_ll_usb.c ****     {
ARM GAS  /tmp/ccJzOZLR.s 			page 86


 2698              		.loc 1 1036 8 view .LVU884
 2699 003c 012B     		cmp	r3, #1
 2700 003e F0D8     		bhi	.L175
1038:../Drivers/STM32L4xx_HAL_Driver/Src/stm32l4xx_ll_usb.c ****     }
 2701              		.loc 1 1038 7 is_stmt 1 view .LVU885
1038:../Drivers/STM32L4xx_HAL_Driver/Src/stm32l4xx_ll_usb.c ****     }
 2702              		.loc 1 1038 33 is_stmt 0 view .LVU886
 2703 0040 D0F80039 		ldr	r3, [r0, #2304]
 2704 0044 43F08053 		orr	r3, r3, #268435456
 2705 0048 C0F80039 		str	r3, [r0, #2304]
 2706 004c E9E7     		b	.L175
 2707              	.L177:
1046:../Drivers/STM32L4xx_HAL_Driver/Src/stm32l4xx_ll_usb.c ****     }
 2708              		.loc 1 1046 7 is_stmt 1 view .LVU887
1046:../Drivers/STM32L4xx_HAL_Driver/Src/stm32l4xx_ll_usb.c ****     }
 2709              		.loc 1 1046 34 is_stmt 0 view .LVU888
 2710 004e D0F8003B 		ldr	r3, [r0, #2816]
 2711 0052 43F08053 		orr	r3, r3, #268435456
 2712 0056 C0F8003B 		str	r3, [r0, #2816]
 2713 005a E2E7     		b	.L175
 2714              		.cfi_endproc
 2715              	.LFE152:
 2717              		.section	.text.USB_StopDevice,"ax",%progbits
 2718              		.align	1
 2719              		.global	USB_StopDevice
 2720              		.syntax unified
 2721              		.thumb
 2722              		.thumb_func
 2723              		.fpu fpv4-sp-d16
 2725              	USB_StopDevice:
 2726              	.LVL206:
 2727              	.LFB153:
1058:../Drivers/STM32L4xx_HAL_Driver/Src/stm32l4xx_ll_usb.c ****   HAL_StatusTypeDef ret;
 2728              		.loc 1 1058 1 is_stmt 1 view -0
 2729              		.cfi_startproc
 2730              		@ args = 0, pretend = 0, frame = 0
 2731              		@ frame_needed = 0, uses_anonymous_args = 0
1058:../Drivers/STM32L4xx_HAL_Driver/Src/stm32l4xx_ll_usb.c ****   HAL_StatusTypeDef ret;
 2732              		.loc 1 1058 1 is_stmt 0 view .LVU890
 2733 0000 10B5     		push	{r4, lr}
 2734              	.LCFI37:
 2735              		.cfi_def_cfa_offset 8
 2736              		.cfi_offset 4, -8
 2737              		.cfi_offset 14, -4
 2738 0002 0446     		mov	r4, r0
1059:../Drivers/STM32L4xx_HAL_Driver/Src/stm32l4xx_ll_usb.c ****   uint32_t USBx_BASE = (uint32_t)USBx;
 2739              		.loc 1 1059 3 is_stmt 1 view .LVU891
1060:../Drivers/STM32L4xx_HAL_Driver/Src/stm32l4xx_ll_usb.c ****   uint32_t i;
 2740              		.loc 1 1060 3 view .LVU892
 2741              	.LVL207:
1061:../Drivers/STM32L4xx_HAL_Driver/Src/stm32l4xx_ll_usb.c **** 
 2742              		.loc 1 1061 3 view .LVU893
1064:../Drivers/STM32L4xx_HAL_Driver/Src/stm32l4xx_ll_usb.c ****   {
 2743              		.loc 1 1064 3 view .LVU894
1064:../Drivers/STM32L4xx_HAL_Driver/Src/stm32l4xx_ll_usb.c ****   {
 2744              		.loc 1 1064 10 is_stmt 0 view .LVU895
 2745 0004 0022     		movs	r2, #0
ARM GAS  /tmp/ccJzOZLR.s 			page 87


1064:../Drivers/STM32L4xx_HAL_Driver/Src/stm32l4xx_ll_usb.c ****   {
 2746              		.loc 1 1064 3 view .LVU896
 2747 0006 08E0     		b	.L179
 2748              	.LVL208:
 2749              	.L180:
1066:../Drivers/STM32L4xx_HAL_Driver/Src/stm32l4xx_ll_usb.c ****     USBx_OUTEP(i)->DOEPINT = 0xFB7FU;
 2750              		.loc 1 1066 5 is_stmt 1 discriminator 3 view .LVU897
 2751 0008 04EB4213 		add	r3, r4, r2, lsl #5
1066:../Drivers/STM32L4xx_HAL_Driver/Src/stm32l4xx_ll_usb.c ****     USBx_OUTEP(i)->DOEPINT = 0xFB7FU;
 2752              		.loc 1 1066 27 is_stmt 0 discriminator 3 view .LVU898
 2753 000c 4FF67F31 		movw	r1, #64383
 2754 0010 C3F80819 		str	r1, [r3, #2312]
1067:../Drivers/STM32L4xx_HAL_Driver/Src/stm32l4xx_ll_usb.c ****   }
 2755              		.loc 1 1067 5 is_stmt 1 discriminator 3 view .LVU899
1067:../Drivers/STM32L4xx_HAL_Driver/Src/stm32l4xx_ll_usb.c ****   }
 2756              		.loc 1 1067 28 is_stmt 0 discriminator 3 view .LVU900
 2757 0014 C3F8081B 		str	r1, [r3, #2824]
1064:../Drivers/STM32L4xx_HAL_Driver/Src/stm32l4xx_ll_usb.c ****   {
 2758              		.loc 1 1064 25 is_stmt 1 discriminator 3 view .LVU901
1064:../Drivers/STM32L4xx_HAL_Driver/Src/stm32l4xx_ll_usb.c ****   {
 2759              		.loc 1 1064 26 is_stmt 0 discriminator 3 view .LVU902
 2760 0018 0132     		adds	r2, r2, #1
 2761              	.LVL209:
 2762              	.L179:
1064:../Drivers/STM32L4xx_HAL_Driver/Src/stm32l4xx_ll_usb.c ****   {
 2763              		.loc 1 1064 16 is_stmt 1 discriminator 1 view .LVU903
1064:../Drivers/STM32L4xx_HAL_Driver/Src/stm32l4xx_ll_usb.c ****   {
 2764              		.loc 1 1064 3 is_stmt 0 discriminator 1 view .LVU904
 2765 001a 0E2A     		cmp	r2, #14
 2766 001c F4D9     		bls	.L180
1071:../Drivers/STM32L4xx_HAL_Driver/Src/stm32l4xx_ll_usb.c ****   USBx_DEVICE->DOEPMSK  = 0U;
 2767              		.loc 1 1071 3 is_stmt 1 view .LVU905
1071:../Drivers/STM32L4xx_HAL_Driver/Src/stm32l4xx_ll_usb.c ****   USBx_DEVICE->DOEPMSK  = 0U;
 2768              		.loc 1 1071 25 is_stmt 0 view .LVU906
 2769 001e 0022     		movs	r2, #0
 2770              	.LVL210:
1071:../Drivers/STM32L4xx_HAL_Driver/Src/stm32l4xx_ll_usb.c ****   USBx_DEVICE->DOEPMSK  = 0U;
 2771              		.loc 1 1071 25 view .LVU907
 2772 0020 C4F81028 		str	r2, [r4, #2064]
1072:../Drivers/STM32L4xx_HAL_Driver/Src/stm32l4xx_ll_usb.c ****   USBx_DEVICE->DAINTMSK = 0U;
 2773              		.loc 1 1072 3 is_stmt 1 view .LVU908
1072:../Drivers/STM32L4xx_HAL_Driver/Src/stm32l4xx_ll_usb.c ****   USBx_DEVICE->DAINTMSK = 0U;
 2774              		.loc 1 1072 25 is_stmt 0 view .LVU909
 2775 0024 C4F81428 		str	r2, [r4, #2068]
1073:../Drivers/STM32L4xx_HAL_Driver/Src/stm32l4xx_ll_usb.c **** 
 2776              		.loc 1 1073 3 is_stmt 1 view .LVU910
1073:../Drivers/STM32L4xx_HAL_Driver/Src/stm32l4xx_ll_usb.c **** 
 2777              		.loc 1 1073 25 is_stmt 0 view .LVU911
 2778 0028 C4F81C28 		str	r2, [r4, #2076]
1076:../Drivers/STM32L4xx_HAL_Driver/Src/stm32l4xx_ll_usb.c ****   if (ret != HAL_OK)
 2779              		.loc 1 1076 3 is_stmt 1 view .LVU912
1076:../Drivers/STM32L4xx_HAL_Driver/Src/stm32l4xx_ll_usb.c ****   if (ret != HAL_OK)
 2780              		.loc 1 1076 9 is_stmt 0 view .LVU913
 2781 002c 2046     		mov	r0, r4
 2782              	.LVL211:
1076:../Drivers/STM32L4xx_HAL_Driver/Src/stm32l4xx_ll_usb.c ****   if (ret != HAL_OK)
 2783              		.loc 1 1076 9 view .LVU914
ARM GAS  /tmp/ccJzOZLR.s 			page 88


 2784 002e FFF7FEFF 		bl	USB_FlushRxFifo
 2785              	.LVL212:
1077:../Drivers/STM32L4xx_HAL_Driver/Src/stm32l4xx_ll_usb.c ****   {
 2786              		.loc 1 1077 3 is_stmt 1 view .LVU915
1077:../Drivers/STM32L4xx_HAL_Driver/Src/stm32l4xx_ll_usb.c ****   {
 2787              		.loc 1 1077 6 is_stmt 0 view .LVU916
 2788 0032 00B1     		cbz	r0, .L183
 2789              	.L181:
1089:../Drivers/STM32L4xx_HAL_Driver/Src/stm32l4xx_ll_usb.c **** 
 2790              		.loc 1 1089 1 view .LVU917
 2791 0034 10BD     		pop	{r4, pc}
 2792              	.LVL213:
 2793              	.L183:
1082:../Drivers/STM32L4xx_HAL_Driver/Src/stm32l4xx_ll_usb.c ****   if (ret != HAL_OK)
 2794              		.loc 1 1082 3 is_stmt 1 view .LVU918
1082:../Drivers/STM32L4xx_HAL_Driver/Src/stm32l4xx_ll_usb.c ****   if (ret != HAL_OK)
 2795              		.loc 1 1082 9 is_stmt 0 view .LVU919
 2796 0036 1021     		movs	r1, #16
 2797 0038 2046     		mov	r0, r4
 2798              	.LVL214:
1082:../Drivers/STM32L4xx_HAL_Driver/Src/stm32l4xx_ll_usb.c ****   if (ret != HAL_OK)
 2799              		.loc 1 1082 9 view .LVU920
 2800 003a FFF7FEFF 		bl	USB_FlushTxFifo
 2801              	.LVL215:
1083:../Drivers/STM32L4xx_HAL_Driver/Src/stm32l4xx_ll_usb.c ****   {
 2802              		.loc 1 1083 3 is_stmt 1 view .LVU921
 2803 003e F9E7     		b	.L181
 2804              		.cfi_endproc
 2805              	.LFE153:
 2807              		.section	.text.USB_SetDevAddress,"ax",%progbits
 2808              		.align	1
 2809              		.global	USB_SetDevAddress
 2810              		.syntax unified
 2811              		.thumb
 2812              		.thumb_func
 2813              		.fpu fpv4-sp-d16
 2815              	USB_SetDevAddress:
 2816              	.LVL216:
 2817              	.LFB154:
1099:../Drivers/STM32L4xx_HAL_Driver/Src/stm32l4xx_ll_usb.c ****   uint32_t USBx_BASE = (uint32_t)USBx;
 2818              		.loc 1 1099 1 view -0
 2819              		.cfi_startproc
 2820              		@ args = 0, pretend = 0, frame = 0
 2821              		@ frame_needed = 0, uses_anonymous_args = 0
 2822              		@ link register save eliminated.
1100:../Drivers/STM32L4xx_HAL_Driver/Src/stm32l4xx_ll_usb.c **** 
 2823              		.loc 1 1100 3 view .LVU923
1102:../Drivers/STM32L4xx_HAL_Driver/Src/stm32l4xx_ll_usb.c ****   USBx_DEVICE->DCFG |= ((uint32_t)address << 4) & USB_OTG_DCFG_DAD;
 2824              		.loc 1 1102 3 view .LVU924
1102:../Drivers/STM32L4xx_HAL_Driver/Src/stm32l4xx_ll_usb.c ****   USBx_DEVICE->DCFG |= ((uint32_t)address << 4) & USB_OTG_DCFG_DAD;
 2825              		.loc 1 1102 21 is_stmt 0 view .LVU925
 2826 0000 D0F80038 		ldr	r3, [r0, #2048]
 2827 0004 23F4FE63 		bic	r3, r3, #2032
 2828 0008 C0F80038 		str	r3, [r0, #2048]
1103:../Drivers/STM32L4xx_HAL_Driver/Src/stm32l4xx_ll_usb.c **** 
 2829              		.loc 1 1103 3 is_stmt 1 view .LVU926
1103:../Drivers/STM32L4xx_HAL_Driver/Src/stm32l4xx_ll_usb.c **** 
ARM GAS  /tmp/ccJzOZLR.s 			page 89


 2830              		.loc 1 1103 21 is_stmt 0 view .LVU927
 2831 000c D0F80038 		ldr	r3, [r0, #2048]
1103:../Drivers/STM32L4xx_HAL_Driver/Src/stm32l4xx_ll_usb.c **** 
 2832              		.loc 1 1103 43 view .LVU928
 2833 0010 0901     		lsls	r1, r1, #4
 2834              	.LVL217:
1103:../Drivers/STM32L4xx_HAL_Driver/Src/stm32l4xx_ll_usb.c **** 
 2835              		.loc 1 1103 49 view .LVU929
 2836 0012 01F4FE61 		and	r1, r1, #2032
1103:../Drivers/STM32L4xx_HAL_Driver/Src/stm32l4xx_ll_usb.c **** 
 2837              		.loc 1 1103 21 view .LVU930
 2838 0016 1943     		orrs	r1, r1, r3
 2839 0018 C0F80018 		str	r1, [r0, #2048]
1105:../Drivers/STM32L4xx_HAL_Driver/Src/stm32l4xx_ll_usb.c **** }
 2840              		.loc 1 1105 3 is_stmt 1 view .LVU931
1106:../Drivers/STM32L4xx_HAL_Driver/Src/stm32l4xx_ll_usb.c **** 
 2841              		.loc 1 1106 1 is_stmt 0 view .LVU932
 2842 001c 0020     		movs	r0, #0
 2843              	.LVL218:
1106:../Drivers/STM32L4xx_HAL_Driver/Src/stm32l4xx_ll_usb.c **** 
 2844              		.loc 1 1106 1 view .LVU933
 2845 001e 7047     		bx	lr
 2846              		.cfi_endproc
 2847              	.LFE154:
 2849              		.section	.text.USB_DevConnect,"ax",%progbits
 2850              		.align	1
 2851              		.global	USB_DevConnect
 2852              		.syntax unified
 2853              		.thumb
 2854              		.thumb_func
 2855              		.fpu fpv4-sp-d16
 2857              	USB_DevConnect:
 2858              	.LVL219:
 2859              	.LFB155:
1114:../Drivers/STM32L4xx_HAL_Driver/Src/stm32l4xx_ll_usb.c ****   uint32_t USBx_BASE = (uint32_t)USBx;
 2860              		.loc 1 1114 1 is_stmt 1 view -0
 2861              		.cfi_startproc
 2862              		@ args = 0, pretend = 0, frame = 0
 2863              		@ frame_needed = 0, uses_anonymous_args = 0
 2864              		@ link register save eliminated.
1115:../Drivers/STM32L4xx_HAL_Driver/Src/stm32l4xx_ll_usb.c **** 
 2865              		.loc 1 1115 3 view .LVU935
1118:../Drivers/STM32L4xx_HAL_Driver/Src/stm32l4xx_ll_usb.c **** 
 2866              		.loc 1 1118 3 view .LVU936
1118:../Drivers/STM32L4xx_HAL_Driver/Src/stm32l4xx_ll_usb.c **** 
 2867              		.loc 1 1118 16 is_stmt 0 view .LVU937
 2868 0000 D0F8003E 		ldr	r3, [r0, #3584]
 2869 0004 23F00303 		bic	r3, r3, #3
 2870 0008 C0F8003E 		str	r3, [r0, #3584]
1120:../Drivers/STM32L4xx_HAL_Driver/Src/stm32l4xx_ll_usb.c **** 
 2871              		.loc 1 1120 3 is_stmt 1 view .LVU938
1120:../Drivers/STM32L4xx_HAL_Driver/Src/stm32l4xx_ll_usb.c **** 
 2872              		.loc 1 1120 21 is_stmt 0 view .LVU939
 2873 000c D0F80438 		ldr	r3, [r0, #2052]
 2874 0010 23F00203 		bic	r3, r3, #2
 2875 0014 C0F80438 		str	r3, [r0, #2052]
1122:../Drivers/STM32L4xx_HAL_Driver/Src/stm32l4xx_ll_usb.c **** }
ARM GAS  /tmp/ccJzOZLR.s 			page 90


 2876              		.loc 1 1122 3 is_stmt 1 view .LVU940
1123:../Drivers/STM32L4xx_HAL_Driver/Src/stm32l4xx_ll_usb.c **** 
 2877              		.loc 1 1123 1 is_stmt 0 view .LVU941
 2878 0018 0020     		movs	r0, #0
 2879              	.LVL220:
1123:../Drivers/STM32L4xx_HAL_Driver/Src/stm32l4xx_ll_usb.c **** 
 2880              		.loc 1 1123 1 view .LVU942
 2881 001a 7047     		bx	lr
 2882              		.cfi_endproc
 2883              	.LFE155:
 2885              		.section	.text.USB_DevDisconnect,"ax",%progbits
 2886              		.align	1
 2887              		.global	USB_DevDisconnect
 2888              		.syntax unified
 2889              		.thumb
 2890              		.thumb_func
 2891              		.fpu fpv4-sp-d16
 2893              	USB_DevDisconnect:
 2894              	.LVL221:
 2895              	.LFB156:
1131:../Drivers/STM32L4xx_HAL_Driver/Src/stm32l4xx_ll_usb.c ****   uint32_t USBx_BASE = (uint32_t)USBx;
 2896              		.loc 1 1131 1 is_stmt 1 view -0
 2897              		.cfi_startproc
 2898              		@ args = 0, pretend = 0, frame = 0
 2899              		@ frame_needed = 0, uses_anonymous_args = 0
 2900              		@ link register save eliminated.
1132:../Drivers/STM32L4xx_HAL_Driver/Src/stm32l4xx_ll_usb.c **** 
 2901              		.loc 1 1132 3 view .LVU944
1135:../Drivers/STM32L4xx_HAL_Driver/Src/stm32l4xx_ll_usb.c **** 
 2902              		.loc 1 1135 3 view .LVU945
1135:../Drivers/STM32L4xx_HAL_Driver/Src/stm32l4xx_ll_usb.c **** 
 2903              		.loc 1 1135 16 is_stmt 0 view .LVU946
 2904 0000 D0F8003E 		ldr	r3, [r0, #3584]
 2905 0004 23F00303 		bic	r3, r3, #3
 2906 0008 C0F8003E 		str	r3, [r0, #3584]
1137:../Drivers/STM32L4xx_HAL_Driver/Src/stm32l4xx_ll_usb.c **** 
 2907              		.loc 1 1137 3 is_stmt 1 view .LVU947
1137:../Drivers/STM32L4xx_HAL_Driver/Src/stm32l4xx_ll_usb.c **** 
 2908              		.loc 1 1137 21 is_stmt 0 view .LVU948
 2909 000c D0F80438 		ldr	r3, [r0, #2052]
 2910 0010 43F00203 		orr	r3, r3, #2
 2911 0014 C0F80438 		str	r3, [r0, #2052]
1139:../Drivers/STM32L4xx_HAL_Driver/Src/stm32l4xx_ll_usb.c **** }
 2912              		.loc 1 1139 3 is_stmt 1 view .LVU949
1140:../Drivers/STM32L4xx_HAL_Driver/Src/stm32l4xx_ll_usb.c **** 
 2913              		.loc 1 1140 1 is_stmt 0 view .LVU950
 2914 0018 0020     		movs	r0, #0
 2915              	.LVL222:
1140:../Drivers/STM32L4xx_HAL_Driver/Src/stm32l4xx_ll_usb.c **** 
 2916              		.loc 1 1140 1 view .LVU951
 2917 001a 7047     		bx	lr
 2918              		.cfi_endproc
 2919              	.LFE156:
 2921              		.section	.text.USB_ReadInterrupts,"ax",%progbits
 2922              		.align	1
 2923              		.global	USB_ReadInterrupts
 2924              		.syntax unified
ARM GAS  /tmp/ccJzOZLR.s 			page 91


 2925              		.thumb
 2926              		.thumb_func
 2927              		.fpu fpv4-sp-d16
 2929              	USB_ReadInterrupts:
 2930              	.LVL223:
 2931              	.LFB157:
1148:../Drivers/STM32L4xx_HAL_Driver/Src/stm32l4xx_ll_usb.c ****   uint32_t tmpreg;
 2932              		.loc 1 1148 1 is_stmt 1 view -0
 2933              		.cfi_startproc
 2934              		@ args = 0, pretend = 0, frame = 0
 2935              		@ frame_needed = 0, uses_anonymous_args = 0
 2936              		@ link register save eliminated.
1149:../Drivers/STM32L4xx_HAL_Driver/Src/stm32l4xx_ll_usb.c **** 
 2937              		.loc 1 1149 3 view .LVU953
1151:../Drivers/STM32L4xx_HAL_Driver/Src/stm32l4xx_ll_usb.c ****   tmpreg &= USBx->GINTMSK;
 2938              		.loc 1 1151 3 view .LVU954
1151:../Drivers/STM32L4xx_HAL_Driver/Src/stm32l4xx_ll_usb.c ****   tmpreg &= USBx->GINTMSK;
 2939              		.loc 1 1151 10 is_stmt 0 view .LVU955
 2940 0000 4269     		ldr	r2, [r0, #20]
 2941              	.LVL224:
1152:../Drivers/STM32L4xx_HAL_Driver/Src/stm32l4xx_ll_usb.c **** 
 2942              		.loc 1 1152 3 is_stmt 1 view .LVU956
1152:../Drivers/STM32L4xx_HAL_Driver/Src/stm32l4xx_ll_usb.c **** 
 2943              		.loc 1 1152 17 is_stmt 0 view .LVU957
 2944 0002 8069     		ldr	r0, [r0, #24]
 2945              	.LVL225:
1154:../Drivers/STM32L4xx_HAL_Driver/Src/stm32l4xx_ll_usb.c **** }
 2946              		.loc 1 1154 3 is_stmt 1 view .LVU958
1155:../Drivers/STM32L4xx_HAL_Driver/Src/stm32l4xx_ll_usb.c **** 
 2947              		.loc 1 1155 1 is_stmt 0 view .LVU959
 2948 0004 1040     		ands	r0, r0, r2
 2949              	.LVL226:
1155:../Drivers/STM32L4xx_HAL_Driver/Src/stm32l4xx_ll_usb.c **** 
 2950              		.loc 1 1155 1 view .LVU960
 2951 0006 7047     		bx	lr
 2952              		.cfi_endproc
 2953              	.LFE157:
 2955              		.section	.text.USB_ReadDevAllOutEpInterrupt,"ax",%progbits
 2956              		.align	1
 2957              		.global	USB_ReadDevAllOutEpInterrupt
 2958              		.syntax unified
 2959              		.thumb
 2960              		.thumb_func
 2961              		.fpu fpv4-sp-d16
 2963              	USB_ReadDevAllOutEpInterrupt:
 2964              	.LVL227:
 2965              	.LFB158:
1163:../Drivers/STM32L4xx_HAL_Driver/Src/stm32l4xx_ll_usb.c ****   uint32_t USBx_BASE = (uint32_t)USBx;
 2966              		.loc 1 1163 1 is_stmt 1 view -0
 2967              		.cfi_startproc
 2968              		@ args = 0, pretend = 0, frame = 0
 2969              		@ frame_needed = 0, uses_anonymous_args = 0
 2970              		@ link register save eliminated.
1164:../Drivers/STM32L4xx_HAL_Driver/Src/stm32l4xx_ll_usb.c ****   uint32_t tmpreg;
 2971              		.loc 1 1164 3 view .LVU962
1165:../Drivers/STM32L4xx_HAL_Driver/Src/stm32l4xx_ll_usb.c **** 
 2972              		.loc 1 1165 3 view .LVU963
ARM GAS  /tmp/ccJzOZLR.s 			page 92


1167:../Drivers/STM32L4xx_HAL_Driver/Src/stm32l4xx_ll_usb.c ****   tmpreg &= USBx_DEVICE->DAINTMSK;
 2973              		.loc 1 1167 3 view .LVU964
1167:../Drivers/STM32L4xx_HAL_Driver/Src/stm32l4xx_ll_usb.c ****   tmpreg &= USBx_DEVICE->DAINTMSK;
 2974              		.loc 1 1167 11 is_stmt 0 view .LVU965
 2975 0000 D0F81838 		ldr	r3, [r0, #2072]
1167:../Drivers/STM32L4xx_HAL_Driver/Src/stm32l4xx_ll_usb.c ****   tmpreg &= USBx_DEVICE->DAINTMSK;
 2976              		.loc 1 1167 13 view .LVU966
 2977 0004 00F50060 		add	r0, r0, #2048
 2978              	.LVL228:
1168:../Drivers/STM32L4xx_HAL_Driver/Src/stm32l4xx_ll_usb.c **** 
 2979              		.loc 1 1168 3 is_stmt 1 view .LVU967
1168:../Drivers/STM32L4xx_HAL_Driver/Src/stm32l4xx_ll_usb.c **** 
 2980              		.loc 1 1168 24 is_stmt 0 view .LVU968
 2981 0008 C069     		ldr	r0, [r0, #28]
 2982              	.LVL229:
1168:../Drivers/STM32L4xx_HAL_Driver/Src/stm32l4xx_ll_usb.c **** 
 2983              		.loc 1 1168 10 view .LVU969
 2984 000a 1840     		ands	r0, r0, r3
 2985              	.LVL230:
1170:../Drivers/STM32L4xx_HAL_Driver/Src/stm32l4xx_ll_usb.c **** }
 2986              		.loc 1 1170 3 is_stmt 1 view .LVU970
1171:../Drivers/STM32L4xx_HAL_Driver/Src/stm32l4xx_ll_usb.c **** 
 2987              		.loc 1 1171 1 is_stmt 0 view .LVU971
 2988 000c 000C     		lsrs	r0, r0, #16
 2989              	.LVL231:
1171:../Drivers/STM32L4xx_HAL_Driver/Src/stm32l4xx_ll_usb.c **** 
 2990              		.loc 1 1171 1 view .LVU972
 2991 000e 7047     		bx	lr
 2992              		.cfi_endproc
 2993              	.LFE158:
 2995              		.section	.text.USB_ReadDevAllInEpInterrupt,"ax",%progbits
 2996              		.align	1
 2997              		.global	USB_ReadDevAllInEpInterrupt
 2998              		.syntax unified
 2999              		.thumb
 3000              		.thumb_func
 3001              		.fpu fpv4-sp-d16
 3003              	USB_ReadDevAllInEpInterrupt:
 3004              	.LVL232:
 3005              	.LFB159:
1179:../Drivers/STM32L4xx_HAL_Driver/Src/stm32l4xx_ll_usb.c ****   uint32_t USBx_BASE = (uint32_t)USBx;
 3006              		.loc 1 1179 1 is_stmt 1 view -0
 3007              		.cfi_startproc
 3008              		@ args = 0, pretend = 0, frame = 0
 3009              		@ frame_needed = 0, uses_anonymous_args = 0
 3010              		@ link register save eliminated.
1180:../Drivers/STM32L4xx_HAL_Driver/Src/stm32l4xx_ll_usb.c ****   uint32_t tmpreg;
 3011              		.loc 1 1180 3 view .LVU974
1181:../Drivers/STM32L4xx_HAL_Driver/Src/stm32l4xx_ll_usb.c **** 
 3012              		.loc 1 1181 3 view .LVU975
1183:../Drivers/STM32L4xx_HAL_Driver/Src/stm32l4xx_ll_usb.c ****   tmpreg &= USBx_DEVICE->DAINTMSK;
 3013              		.loc 1 1183 3 view .LVU976
1183:../Drivers/STM32L4xx_HAL_Driver/Src/stm32l4xx_ll_usb.c ****   tmpreg &= USBx_DEVICE->DAINTMSK;
 3014              		.loc 1 1183 11 is_stmt 0 view .LVU977
 3015 0000 D0F81838 		ldr	r3, [r0, #2072]
1183:../Drivers/STM32L4xx_HAL_Driver/Src/stm32l4xx_ll_usb.c ****   tmpreg &= USBx_DEVICE->DAINTMSK;
 3016              		.loc 1 1183 13 view .LVU978
ARM GAS  /tmp/ccJzOZLR.s 			page 93


 3017 0004 00F50060 		add	r0, r0, #2048
 3018              	.LVL233:
1184:../Drivers/STM32L4xx_HAL_Driver/Src/stm32l4xx_ll_usb.c **** 
 3019              		.loc 1 1184 3 is_stmt 1 view .LVU979
1184:../Drivers/STM32L4xx_HAL_Driver/Src/stm32l4xx_ll_usb.c **** 
 3020              		.loc 1 1184 24 is_stmt 0 view .LVU980
 3021 0008 C069     		ldr	r0, [r0, #28]
 3022              	.LVL234:
1184:../Drivers/STM32L4xx_HAL_Driver/Src/stm32l4xx_ll_usb.c **** 
 3023              		.loc 1 1184 10 view .LVU981
 3024 000a 1840     		ands	r0, r0, r3
 3025              	.LVL235:
1186:../Drivers/STM32L4xx_HAL_Driver/Src/stm32l4xx_ll_usb.c **** }
 3026              		.loc 1 1186 3 is_stmt 1 view .LVU982
1187:../Drivers/STM32L4xx_HAL_Driver/Src/stm32l4xx_ll_usb.c **** 
 3027              		.loc 1 1187 1 is_stmt 0 view .LVU983
 3028 000c 80B2     		uxth	r0, r0
 3029              	.LVL236:
1187:../Drivers/STM32L4xx_HAL_Driver/Src/stm32l4xx_ll_usb.c **** 
 3030              		.loc 1 1187 1 view .LVU984
 3031 000e 7047     		bx	lr
 3032              		.cfi_endproc
 3033              	.LFE159:
 3035              		.section	.text.USB_ReadDevOutEPInterrupt,"ax",%progbits
 3036              		.align	1
 3037              		.global	USB_ReadDevOutEPInterrupt
 3038              		.syntax unified
 3039              		.thumb
 3040              		.thumb_func
 3041              		.fpu fpv4-sp-d16
 3043              	USB_ReadDevOutEPInterrupt:
 3044              	.LVL237:
 3045              	.LFB160:
1197:../Drivers/STM32L4xx_HAL_Driver/Src/stm32l4xx_ll_usb.c ****   uint32_t USBx_BASE = (uint32_t)USBx;
 3046              		.loc 1 1197 1 is_stmt 1 view -0
 3047              		.cfi_startproc
 3048              		@ args = 0, pretend = 0, frame = 0
 3049              		@ frame_needed = 0, uses_anonymous_args = 0
 3050              		@ link register save eliminated.
1198:../Drivers/STM32L4xx_HAL_Driver/Src/stm32l4xx_ll_usb.c ****   uint32_t tmpreg;
 3051              		.loc 1 1198 3 view .LVU986
1199:../Drivers/STM32L4xx_HAL_Driver/Src/stm32l4xx_ll_usb.c **** 
 3052              		.loc 1 1199 3 view .LVU987
1201:../Drivers/STM32L4xx_HAL_Driver/Src/stm32l4xx_ll_usb.c ****   tmpreg &= USBx_DEVICE->DOEPMSK;
 3053              		.loc 1 1201 3 view .LVU988
1201:../Drivers/STM32L4xx_HAL_Driver/Src/stm32l4xx_ll_usb.c ****   tmpreg &= USBx_DEVICE->DOEPMSK;
 3054              		.loc 1 1201 13 is_stmt 0 view .LVU989
 3055 0000 00EB4111 		add	r1, r0, r1, lsl #5
 3056              	.LVL238:
1201:../Drivers/STM32L4xx_HAL_Driver/Src/stm32l4xx_ll_usb.c ****   tmpreg &= USBx_DEVICE->DOEPMSK;
 3057              		.loc 1 1201 11 view .LVU990
 3058 0004 D1F8082B 		ldr	r2, [r1, #2824]
 3059              	.LVL239:
1202:../Drivers/STM32L4xx_HAL_Driver/Src/stm32l4xx_ll_usb.c **** 
 3060              		.loc 1 1202 3 is_stmt 1 view .LVU991
1202:../Drivers/STM32L4xx_HAL_Driver/Src/stm32l4xx_ll_usb.c **** 
 3061              		.loc 1 1202 13 is_stmt 0 view .LVU992
ARM GAS  /tmp/ccJzOZLR.s 			page 94


 3062 0008 00F50060 		add	r0, r0, #2048
 3063              	.LVL240:
1202:../Drivers/STM32L4xx_HAL_Driver/Src/stm32l4xx_ll_usb.c **** 
 3064              		.loc 1 1202 24 view .LVU993
 3065 000c 4069     		ldr	r0, [r0, #20]
 3066              	.LVL241:
1204:../Drivers/STM32L4xx_HAL_Driver/Src/stm32l4xx_ll_usb.c **** }
 3067              		.loc 1 1204 3 is_stmt 1 view .LVU994
1205:../Drivers/STM32L4xx_HAL_Driver/Src/stm32l4xx_ll_usb.c **** 
 3068              		.loc 1 1205 1 is_stmt 0 view .LVU995
 3069 000e 1040     		ands	r0, r0, r2
 3070              	.LVL242:
1205:../Drivers/STM32L4xx_HAL_Driver/Src/stm32l4xx_ll_usb.c **** 
 3071              		.loc 1 1205 1 view .LVU996
 3072 0010 7047     		bx	lr
 3073              		.cfi_endproc
 3074              	.LFE160:
 3076              		.section	.text.USB_ReadDevInEPInterrupt,"ax",%progbits
 3077              		.align	1
 3078              		.global	USB_ReadDevInEPInterrupt
 3079              		.syntax unified
 3080              		.thumb
 3081              		.thumb_func
 3082              		.fpu fpv4-sp-d16
 3084              	USB_ReadDevInEPInterrupt:
 3085              	.LVL243:
 3086              	.LFB161:
1215:../Drivers/STM32L4xx_HAL_Driver/Src/stm32l4xx_ll_usb.c ****   uint32_t USBx_BASE = (uint32_t)USBx;
 3087              		.loc 1 1215 1 is_stmt 1 view -0
 3088              		.cfi_startproc
 3089              		@ args = 0, pretend = 0, frame = 0
 3090              		@ frame_needed = 0, uses_anonymous_args = 0
 3091              		@ link register save eliminated.
1215:../Drivers/STM32L4xx_HAL_Driver/Src/stm32l4xx_ll_usb.c ****   uint32_t USBx_BASE = (uint32_t)USBx;
 3092              		.loc 1 1215 1 is_stmt 0 view .LVU998
 3093 0000 10B4     		push	{r4}
 3094              	.LCFI38:
 3095              		.cfi_def_cfa_offset 4
 3096              		.cfi_offset 4, -4
1216:../Drivers/STM32L4xx_HAL_Driver/Src/stm32l4xx_ll_usb.c ****   uint32_t tmpreg;
 3097              		.loc 1 1216 3 is_stmt 1 view .LVU999
 3098              	.LVL244:
1217:../Drivers/STM32L4xx_HAL_Driver/Src/stm32l4xx_ll_usb.c ****   uint32_t msk;
 3099              		.loc 1 1217 3 view .LVU1000
1218:../Drivers/STM32L4xx_HAL_Driver/Src/stm32l4xx_ll_usb.c ****   uint32_t emp;
 3100              		.loc 1 1218 3 view .LVU1001
1219:../Drivers/STM32L4xx_HAL_Driver/Src/stm32l4xx_ll_usb.c **** 
 3101              		.loc 1 1219 3 view .LVU1002
1221:../Drivers/STM32L4xx_HAL_Driver/Src/stm32l4xx_ll_usb.c ****   emp = USBx_DEVICE->DIEPEMPMSK;
 3102              		.loc 1 1221 3 view .LVU1003
1221:../Drivers/STM32L4xx_HAL_Driver/Src/stm32l4xx_ll_usb.c ****   emp = USBx_DEVICE->DIEPEMPMSK;
 3103              		.loc 1 1221 7 is_stmt 0 view .LVU1004
 3104 0002 D0F81048 		ldr	r4, [r0, #2064]
 3105              	.LVL245:
1222:../Drivers/STM32L4xx_HAL_Driver/Src/stm32l4xx_ll_usb.c ****   msk |= ((emp >> (epnum & EP_ADDR_MSK)) & 0x1U) << 7;
 3106              		.loc 1 1222 3 is_stmt 1 view .LVU1005
1222:../Drivers/STM32L4xx_HAL_Driver/Src/stm32l4xx_ll_usb.c ****   msk |= ((emp >> (epnum & EP_ADDR_MSK)) & 0x1U) << 7;
ARM GAS  /tmp/ccJzOZLR.s 			page 95


 3107              		.loc 1 1222 7 is_stmt 0 view .LVU1006
 3108 0006 D0F83438 		ldr	r3, [r0, #2100]
 3109              	.LVL246:
1223:../Drivers/STM32L4xx_HAL_Driver/Src/stm32l4xx_ll_usb.c ****   tmpreg = USBx_INEP((uint32_t)epnum)->DIEPINT & msk;
 3110              		.loc 1 1223 3 is_stmt 1 view .LVU1007
1223:../Drivers/STM32L4xx_HAL_Driver/Src/stm32l4xx_ll_usb.c ****   tmpreg = USBx_INEP((uint32_t)epnum)->DIEPINT & msk;
 3111              		.loc 1 1223 26 is_stmt 0 view .LVU1008
 3112 000a 01F00F02 		and	r2, r1, #15
1223:../Drivers/STM32L4xx_HAL_Driver/Src/stm32l4xx_ll_usb.c ****   tmpreg = USBx_INEP((uint32_t)epnum)->DIEPINT & msk;
 3113              		.loc 1 1223 16 view .LVU1009
 3114 000e D340     		lsrs	r3, r3, r2
 3115              	.LVL247:
1223:../Drivers/STM32L4xx_HAL_Driver/Src/stm32l4xx_ll_usb.c ****   tmpreg = USBx_INEP((uint32_t)epnum)->DIEPINT & msk;
 3116              		.loc 1 1223 50 view .LVU1010
 3117 0010 DB01     		lsls	r3, r3, #7
 3118 0012 DBB2     		uxtb	r3, r3
1223:../Drivers/STM32L4xx_HAL_Driver/Src/stm32l4xx_ll_usb.c ****   tmpreg = USBx_INEP((uint32_t)epnum)->DIEPINT & msk;
 3119              		.loc 1 1223 7 view .LVU1011
 3120 0014 2343     		orrs	r3, r3, r4
 3121              	.LVL248:
1224:../Drivers/STM32L4xx_HAL_Driver/Src/stm32l4xx_ll_usb.c **** 
 3122              		.loc 1 1224 3 is_stmt 1 view .LVU1012
1224:../Drivers/STM32L4xx_HAL_Driver/Src/stm32l4xx_ll_usb.c **** 
 3123              		.loc 1 1224 12 is_stmt 0 view .LVU1013
 3124 0016 00EB4110 		add	r0, r0, r1, lsl #5
 3125              	.LVL249:
1224:../Drivers/STM32L4xx_HAL_Driver/Src/stm32l4xx_ll_usb.c **** 
 3126              		.loc 1 1224 12 view .LVU1014
 3127 001a 00F51060 		add	r0, r0, #2304
1224:../Drivers/STM32L4xx_HAL_Driver/Src/stm32l4xx_ll_usb.c **** 
 3128              		.loc 1 1224 38 view .LVU1015
 3129 001e 8068     		ldr	r0, [r0, #8]
 3130              	.LVL250:
1226:../Drivers/STM32L4xx_HAL_Driver/Src/stm32l4xx_ll_usb.c **** }
 3131              		.loc 1 1226 3 is_stmt 1 view .LVU1016
1227:../Drivers/STM32L4xx_HAL_Driver/Src/stm32l4xx_ll_usb.c **** 
 3132              		.loc 1 1227 1 is_stmt 0 view .LVU1017
 3133 0020 1840     		ands	r0, r0, r3
 3134              	.LVL251:
1227:../Drivers/STM32L4xx_HAL_Driver/Src/stm32l4xx_ll_usb.c **** 
 3135              		.loc 1 1227 1 view .LVU1018
 3136 0022 5DF8044B 		ldr	r4, [sp], #4
 3137              	.LCFI39:
 3138              		.cfi_restore 4
 3139              		.cfi_def_cfa_offset 0
 3140 0026 7047     		bx	lr
 3141              		.cfi_endproc
 3142              	.LFE161:
 3144              		.section	.text.USB_ClearInterrupts,"ax",%progbits
 3145              		.align	1
 3146              		.global	USB_ClearInterrupts
 3147              		.syntax unified
 3148              		.thumb
 3149              		.thumb_func
 3150              		.fpu fpv4-sp-d16
 3152              	USB_ClearInterrupts:
 3153              	.LVL252:
ARM GAS  /tmp/ccJzOZLR.s 			page 96


 3154              	.LFB162:
1236:../Drivers/STM32L4xx_HAL_Driver/Src/stm32l4xx_ll_usb.c ****   USBx->GINTSTS |= interrupt;
 3155              		.loc 1 1236 1 is_stmt 1 view -0
 3156              		.cfi_startproc
 3157              		@ args = 0, pretend = 0, frame = 0
 3158              		@ frame_needed = 0, uses_anonymous_args = 0
 3159              		@ link register save eliminated.
1237:../Drivers/STM32L4xx_HAL_Driver/Src/stm32l4xx_ll_usb.c **** }
 3160              		.loc 1 1237 3 view .LVU1020
1237:../Drivers/STM32L4xx_HAL_Driver/Src/stm32l4xx_ll_usb.c **** }
 3161              		.loc 1 1237 17 is_stmt 0 view .LVU1021
 3162 0000 4369     		ldr	r3, [r0, #20]
 3163 0002 0B43     		orrs	r3, r3, r1
 3164 0004 4361     		str	r3, [r0, #20]
1238:../Drivers/STM32L4xx_HAL_Driver/Src/stm32l4xx_ll_usb.c **** 
 3165              		.loc 1 1238 1 view .LVU1022
 3166 0006 7047     		bx	lr
 3167              		.cfi_endproc
 3168              	.LFE162:
 3170              		.section	.text.USB_GetMode,"ax",%progbits
 3171              		.align	1
 3172              		.global	USB_GetMode
 3173              		.syntax unified
 3174              		.thumb
 3175              		.thumb_func
 3176              		.fpu fpv4-sp-d16
 3178              	USB_GetMode:
 3179              	.LVL253:
 3180              	.LFB163:
1249:../Drivers/STM32L4xx_HAL_Driver/Src/stm32l4xx_ll_usb.c ****   return ((USBx->GINTSTS) & 0x1U);
 3181              		.loc 1 1249 1 is_stmt 1 view -0
 3182              		.cfi_startproc
 3183              		@ args = 0, pretend = 0, frame = 0
 3184              		@ frame_needed = 0, uses_anonymous_args = 0
 3185              		@ link register save eliminated.
1250:../Drivers/STM32L4xx_HAL_Driver/Src/stm32l4xx_ll_usb.c **** }
 3186              		.loc 1 1250 3 view .LVU1024
1250:../Drivers/STM32L4xx_HAL_Driver/Src/stm32l4xx_ll_usb.c **** }
 3187              		.loc 1 1250 16 is_stmt 0 view .LVU1025
 3188 0000 4069     		ldr	r0, [r0, #20]
 3189              	.LVL254:
1251:../Drivers/STM32L4xx_HAL_Driver/Src/stm32l4xx_ll_usb.c **** 
 3190              		.loc 1 1251 1 view .LVU1026
 3191 0002 00F00100 		and	r0, r0, #1
 3192 0006 7047     		bx	lr
 3193              		.cfi_endproc
 3194              	.LFE163:
 3196              		.section	.text.USB_SetCurrentMode,"ax",%progbits
 3197              		.align	1
 3198              		.global	USB_SetCurrentMode
 3199              		.syntax unified
 3200              		.thumb
 3201              		.thumb_func
 3202              		.fpu fpv4-sp-d16
 3204              	USB_SetCurrentMode:
 3205              	.LVL255:
 3206              	.LFB136:
ARM GAS  /tmp/ccJzOZLR.s 			page 97


 221:../Drivers/STM32L4xx_HAL_Driver/Src/stm32l4xx_ll_usb.c ****   uint32_t ms = 0U;
 3207              		.loc 1 221 1 is_stmt 1 view -0
 3208              		.cfi_startproc
 3209              		@ args = 0, pretend = 0, frame = 0
 3210              		@ frame_needed = 0, uses_anonymous_args = 0
 221:../Drivers/STM32L4xx_HAL_Driver/Src/stm32l4xx_ll_usb.c ****   uint32_t ms = 0U;
 3211              		.loc 1 221 1 is_stmt 0 view .LVU1028
 3212 0000 38B5     		push	{r3, r4, r5, lr}
 3213              	.LCFI40:
 3214              		.cfi_def_cfa_offset 16
 3215              		.cfi_offset 3, -16
 3216              		.cfi_offset 4, -12
 3217              		.cfi_offset 5, -8
 3218              		.cfi_offset 14, -4
 3219 0002 0546     		mov	r5, r0
 222:../Drivers/STM32L4xx_HAL_Driver/Src/stm32l4xx_ll_usb.c **** 
 3220              		.loc 1 222 3 is_stmt 1 view .LVU1029
 3221              	.LVL256:
 224:../Drivers/STM32L4xx_HAL_Driver/Src/stm32l4xx_ll_usb.c **** 
 3222              		.loc 1 224 3 view .LVU1030
 224:../Drivers/STM32L4xx_HAL_Driver/Src/stm32l4xx_ll_usb.c **** 
 3223              		.loc 1 224 17 is_stmt 0 view .LVU1031
 3224 0004 C368     		ldr	r3, [r0, #12]
 3225 0006 23F0C043 		bic	r3, r3, #1610612736
 3226 000a C360     		str	r3, [r0, #12]
 226:../Drivers/STM32L4xx_HAL_Driver/Src/stm32l4xx_ll_usb.c ****   {
 3227              		.loc 1 226 3 is_stmt 1 view .LVU1032
 226:../Drivers/STM32L4xx_HAL_Driver/Src/stm32l4xx_ll_usb.c ****   {
 3228              		.loc 1 226 6 is_stmt 0 view .LVU1033
 3229 000c 0129     		cmp	r1, #1
 3230 000e 13D0     		beq	.L204
 236:../Drivers/STM32L4xx_HAL_Driver/Src/stm32l4xx_ll_usb.c ****   {
 3231              		.loc 1 236 8 is_stmt 1 view .LVU1034
 236:../Drivers/STM32L4xx_HAL_Driver/Src/stm32l4xx_ll_usb.c ****   {
 3232              		.loc 1 236 11 is_stmt 0 view .LVU1035
 3233 0010 19BB     		cbnz	r1, .L201
 238:../Drivers/STM32L4xx_HAL_Driver/Src/stm32l4xx_ll_usb.c **** 
 3234              		.loc 1 238 5 is_stmt 1 view .LVU1036
 238:../Drivers/STM32L4xx_HAL_Driver/Src/stm32l4xx_ll_usb.c **** 
 3235              		.loc 1 238 19 is_stmt 0 view .LVU1037
 3236 0012 C368     		ldr	r3, [r0, #12]
 3237 0014 43F08043 		orr	r3, r3, #1073741824
 3238 0018 C360     		str	r3, [r0, #12]
 222:../Drivers/STM32L4xx_HAL_Driver/Src/stm32l4xx_ll_usb.c **** 
 3239              		.loc 1 222 12 view .LVU1038
 3240 001a 0024     		movs	r4, #0
 3241              	.LVL257:
 3242              	.L200:
 240:../Drivers/STM32L4xx_HAL_Driver/Src/stm32l4xx_ll_usb.c ****     {
 3243              		.loc 1 240 5 is_stmt 1 discriminator 2 view .LVU1039
 242:../Drivers/STM32L4xx_HAL_Driver/Src/stm32l4xx_ll_usb.c ****       ms++;
 3244              		.loc 1 242 7 discriminator 2 view .LVU1040
 3245 001c 0120     		movs	r0, #1
 3246 001e FFF7FEFF 		bl	HAL_Delay
 3247              	.LVL258:
 243:../Drivers/STM32L4xx_HAL_Driver/Src/stm32l4xx_ll_usb.c ****     } while ((USB_GetMode(USBx) != (uint32_t)USB_DEVICE_MODE) && (ms < 50U));
 3248              		.loc 1 243 7 discriminator 2 view .LVU1041
ARM GAS  /tmp/ccJzOZLR.s 			page 98


 243:../Drivers/STM32L4xx_HAL_Driver/Src/stm32l4xx_ll_usb.c ****     } while ((USB_GetMode(USBx) != (uint32_t)USB_DEVICE_MODE) && (ms < 50U));
 3249              		.loc 1 243 9 is_stmt 0 discriminator 2 view .LVU1042
 3250 0022 0134     		adds	r4, r4, #1
 3251              	.LVL259:
 244:../Drivers/STM32L4xx_HAL_Driver/Src/stm32l4xx_ll_usb.c ****   }
 3252              		.loc 1 244 13 is_stmt 1 discriminator 2 view .LVU1043
 244:../Drivers/STM32L4xx_HAL_Driver/Src/stm32l4xx_ll_usb.c ****   }
 3253              		.loc 1 244 15 is_stmt 0 discriminator 2 view .LVU1044
 3254 0024 2846     		mov	r0, r5
 3255 0026 FFF7FEFF 		bl	USB_GetMode
 3256              	.LVL260:
 244:../Drivers/STM32L4xx_HAL_Driver/Src/stm32l4xx_ll_usb.c ****   }
 3257              		.loc 1 244 5 discriminator 2 view .LVU1045
 3258 002a 08B1     		cbz	r0, .L197
 244:../Drivers/STM32L4xx_HAL_Driver/Src/stm32l4xx_ll_usb.c ****   }
 3259              		.loc 1 244 63 discriminator 1 view .LVU1046
 3260 002c 312C     		cmp	r4, #49
 3261 002e F5D9     		bls	.L200
 3262              	.L197:
 251:../Drivers/STM32L4xx_HAL_Driver/Src/stm32l4xx_ll_usb.c ****   {
 3263              		.loc 1 251 3 is_stmt 1 view .LVU1047
 251:../Drivers/STM32L4xx_HAL_Driver/Src/stm32l4xx_ll_usb.c ****   {
 3264              		.loc 1 251 6 is_stmt 0 view .LVU1048
 3265 0030 322C     		cmp	r4, #50
 3266 0032 14D0     		beq	.L202
 256:../Drivers/STM32L4xx_HAL_Driver/Src/stm32l4xx_ll_usb.c **** }
 3267              		.loc 1 256 10 view .LVU1049
 3268 0034 0020     		movs	r0, #0
 3269              	.LVL261:
 3270              	.L199:
 257:../Drivers/STM32L4xx_HAL_Driver/Src/stm32l4xx_ll_usb.c **** 
 3271              		.loc 1 257 1 view .LVU1050
 3272 0036 38BD     		pop	{r3, r4, r5, pc}
 3273              	.LVL262:
 3274              	.L204:
 228:../Drivers/STM32L4xx_HAL_Driver/Src/stm32l4xx_ll_usb.c **** 
 3275              		.loc 1 228 5 is_stmt 1 view .LVU1051
 228:../Drivers/STM32L4xx_HAL_Driver/Src/stm32l4xx_ll_usb.c **** 
 3276              		.loc 1 228 19 is_stmt 0 view .LVU1052
 3277 0038 C368     		ldr	r3, [r0, #12]
 3278 003a 43F00053 		orr	r3, r3, #536870912
 3279 003e C360     		str	r3, [r0, #12]
 222:../Drivers/STM32L4xx_HAL_Driver/Src/stm32l4xx_ll_usb.c **** 
 3280              		.loc 1 222 12 view .LVU1053
 3281 0040 0024     		movs	r4, #0
 3282              	.LVL263:
 3283              	.L198:
 230:../Drivers/STM32L4xx_HAL_Driver/Src/stm32l4xx_ll_usb.c ****     {
 3284              		.loc 1 230 5 is_stmt 1 discriminator 2 view .LVU1054
 232:../Drivers/STM32L4xx_HAL_Driver/Src/stm32l4xx_ll_usb.c ****       ms++;
 3285              		.loc 1 232 7 discriminator 2 view .LVU1055
 3286 0042 0120     		movs	r0, #1
 3287 0044 FFF7FEFF 		bl	HAL_Delay
 3288              	.LVL264:
 233:../Drivers/STM32L4xx_HAL_Driver/Src/stm32l4xx_ll_usb.c ****     } while ((USB_GetMode(USBx) != (uint32_t)USB_HOST_MODE) && (ms < 50U));
 3289              		.loc 1 233 7 discriminator 2 view .LVU1056
 233:../Drivers/STM32L4xx_HAL_Driver/Src/stm32l4xx_ll_usb.c ****     } while ((USB_GetMode(USBx) != (uint32_t)USB_HOST_MODE) && (ms < 50U));
ARM GAS  /tmp/ccJzOZLR.s 			page 99


 3290              		.loc 1 233 9 is_stmt 0 discriminator 2 view .LVU1057
 3291 0048 0134     		adds	r4, r4, #1
 3292              	.LVL265:
 234:../Drivers/STM32L4xx_HAL_Driver/Src/stm32l4xx_ll_usb.c ****   }
 3293              		.loc 1 234 13 is_stmt 1 discriminator 2 view .LVU1058
 234:../Drivers/STM32L4xx_HAL_Driver/Src/stm32l4xx_ll_usb.c ****   }
 3294              		.loc 1 234 15 is_stmt 0 discriminator 2 view .LVU1059
 3295 004a 2846     		mov	r0, r5
 3296 004c FFF7FEFF 		bl	USB_GetMode
 3297              	.LVL266:
 234:../Drivers/STM32L4xx_HAL_Driver/Src/stm32l4xx_ll_usb.c ****   }
 3298              		.loc 1 234 5 discriminator 2 view .LVU1060
 3299 0050 0128     		cmp	r0, #1
 3300 0052 EDD0     		beq	.L197
 234:../Drivers/STM32L4xx_HAL_Driver/Src/stm32l4xx_ll_usb.c ****   }
 3301              		.loc 1 234 61 discriminator 1 view .LVU1061
 3302 0054 312C     		cmp	r4, #49
 3303 0056 F4D9     		bls	.L198
 3304 0058 EAE7     		b	.L197
 3305              	.LVL267:
 3306              	.L201:
 248:../Drivers/STM32L4xx_HAL_Driver/Src/stm32l4xx_ll_usb.c ****   }
 3307              		.loc 1 248 12 view .LVU1062
 3308 005a 0120     		movs	r0, #1
 3309              	.LVL268:
 248:../Drivers/STM32L4xx_HAL_Driver/Src/stm32l4xx_ll_usb.c ****   }
 3310              		.loc 1 248 12 view .LVU1063
 3311 005c EBE7     		b	.L199
 3312              	.LVL269:
 3313              	.L202:
 253:../Drivers/STM32L4xx_HAL_Driver/Src/stm32l4xx_ll_usb.c ****   }
 3314              		.loc 1 253 12 view .LVU1064
 3315 005e 0120     		movs	r0, #1
 3316 0060 E9E7     		b	.L199
 3317              		.cfi_endproc
 3318              	.LFE136:
 3320              		.section	.text.USB_ActivateSetup,"ax",%progbits
 3321              		.align	1
 3322              		.global	USB_ActivateSetup
 3323              		.syntax unified
 3324              		.thumb
 3325              		.thumb_func
 3326              		.fpu fpv4-sp-d16
 3328              	USB_ActivateSetup:
 3329              	.LVL270:
 3330              	.LFB164:
1259:../Drivers/STM32L4xx_HAL_Driver/Src/stm32l4xx_ll_usb.c ****   uint32_t USBx_BASE = (uint32_t)USBx;
 3331              		.loc 1 1259 1 is_stmt 1 view -0
 3332              		.cfi_startproc
 3333              		@ args = 0, pretend = 0, frame = 0
 3334              		@ frame_needed = 0, uses_anonymous_args = 0
 3335              		@ link register save eliminated.
1260:../Drivers/STM32L4xx_HAL_Driver/Src/stm32l4xx_ll_usb.c **** 
 3336              		.loc 1 1260 3 view .LVU1066
1263:../Drivers/STM32L4xx_HAL_Driver/Src/stm32l4xx_ll_usb.c **** 
 3337              		.loc 1 1263 3 view .LVU1067
1263:../Drivers/STM32L4xx_HAL_Driver/Src/stm32l4xx_ll_usb.c **** 
ARM GAS  /tmp/ccJzOZLR.s 			page 100


 3338              		.loc 1 1263 26 is_stmt 0 view .LVU1068
 3339 0000 D0F80039 		ldr	r3, [r0, #2304]
 3340 0004 23F4FF63 		bic	r3, r3, #2040
 3341 0008 23F00703 		bic	r3, r3, #7
 3342 000c C0F80039 		str	r3, [r0, #2304]
1265:../Drivers/STM32L4xx_HAL_Driver/Src/stm32l4xx_ll_usb.c **** 
 3343              		.loc 1 1265 3 is_stmt 1 view .LVU1069
1265:../Drivers/STM32L4xx_HAL_Driver/Src/stm32l4xx_ll_usb.c **** 
 3344              		.loc 1 1265 21 is_stmt 0 view .LVU1070
 3345 0010 D0F80438 		ldr	r3, [r0, #2052]
 3346 0014 43F48073 		orr	r3, r3, #256
 3347 0018 C0F80438 		str	r3, [r0, #2052]
1267:../Drivers/STM32L4xx_HAL_Driver/Src/stm32l4xx_ll_usb.c **** }
 3348              		.loc 1 1267 3 is_stmt 1 view .LVU1071
1268:../Drivers/STM32L4xx_HAL_Driver/Src/stm32l4xx_ll_usb.c **** 
 3349              		.loc 1 1268 1 is_stmt 0 view .LVU1072
 3350 001c 0020     		movs	r0, #0
 3351              	.LVL271:
1268:../Drivers/STM32L4xx_HAL_Driver/Src/stm32l4xx_ll_usb.c **** 
 3352              		.loc 1 1268 1 view .LVU1073
 3353 001e 7047     		bx	lr
 3354              		.cfi_endproc
 3355              	.LFE164:
 3357              		.section	.text.USB_EP0_OutStart,"ax",%progbits
 3358              		.align	1
 3359              		.global	USB_EP0_OutStart
 3360              		.syntax unified
 3361              		.thumb
 3362              		.thumb_func
 3363              		.fpu fpv4-sp-d16
 3365              	USB_EP0_OutStart:
 3366              	.LVL272:
 3367              	.LFB165:
1277:../Drivers/STM32L4xx_HAL_Driver/Src/stm32l4xx_ll_usb.c ****   uint32_t USBx_BASE = (uint32_t)USBx;
 3368              		.loc 1 1277 1 is_stmt 1 view -0
 3369              		.cfi_startproc
 3370              		@ args = 0, pretend = 0, frame = 0
 3371              		@ frame_needed = 0, uses_anonymous_args = 0
 3372              		@ link register save eliminated.
1278:../Drivers/STM32L4xx_HAL_Driver/Src/stm32l4xx_ll_usb.c ****   uint32_t gSNPSiD = *(__IO uint32_t *)(&USBx->CID + 0x1U);
 3373              		.loc 1 1278 3 view .LVU1075
1279:../Drivers/STM32L4xx_HAL_Driver/Src/stm32l4xx_ll_usb.c ****   UNUSED(psetup);
 3374              		.loc 1 1279 3 view .LVU1076
1279:../Drivers/STM32L4xx_HAL_Driver/Src/stm32l4xx_ll_usb.c ****   UNUSED(psetup);
 3375              		.loc 1 1279 12 is_stmt 0 view .LVU1077
 3376 0000 026C     		ldr	r2, [r0, #64]
 3377              	.LVL273:
1280:../Drivers/STM32L4xx_HAL_Driver/Src/stm32l4xx_ll_usb.c **** 
 3378              		.loc 1 1280 3 is_stmt 1 view .LVU1078
1282:../Drivers/STM32L4xx_HAL_Driver/Src/stm32l4xx_ll_usb.c ****   {
 3379              		.loc 1 1282 3 view .LVU1079
1282:../Drivers/STM32L4xx_HAL_Driver/Src/stm32l4xx_ll_usb.c ****   {
 3380              		.loc 1 1282 6 is_stmt 0 view .LVU1080
 3381 0002 0F4B     		ldr	r3, .L209
 3382 0004 9A42     		cmp	r2, r3
 3383 0006 03D9     		bls	.L207
1284:../Drivers/STM32L4xx_HAL_Driver/Src/stm32l4xx_ll_usb.c ****     {
ARM GAS  /tmp/ccJzOZLR.s 			page 101


 3384              		.loc 1 1284 5 is_stmt 1 view .LVU1081
1284:../Drivers/STM32L4xx_HAL_Driver/Src/stm32l4xx_ll_usb.c ****     {
 3385              		.loc 1 1284 24 is_stmt 0 view .LVU1082
 3386 0008 D0F8003B 		ldr	r3, [r0, #2816]
1284:../Drivers/STM32L4xx_HAL_Driver/Src/stm32l4xx_ll_usb.c ****     {
 3387              		.loc 1 1284 8 view .LVU1083
 3388 000c 002B     		cmp	r3, #0
 3389 000e 14DB     		blt	.L208
 3390              	.L207:
1290:../Drivers/STM32L4xx_HAL_Driver/Src/stm32l4xx_ll_usb.c ****   USBx_OUTEP(0U)->DOEPTSIZ |= (USB_OTG_DOEPTSIZ_PKTCNT & (1U << 19));
 3391              		.loc 1 1290 3 is_stmt 1 view .LVU1084
1290:../Drivers/STM32L4xx_HAL_Driver/Src/stm32l4xx_ll_usb.c ****   USBx_OUTEP(0U)->DOEPTSIZ |= (USB_OTG_DOEPTSIZ_PKTCNT & (1U << 19));
 3392              		.loc 1 1290 28 is_stmt 0 view .LVU1085
 3393 0010 0023     		movs	r3, #0
 3394 0012 C0F8103B 		str	r3, [r0, #2832]
1291:../Drivers/STM32L4xx_HAL_Driver/Src/stm32l4xx_ll_usb.c ****   USBx_OUTEP(0U)->DOEPTSIZ |= (3U * 8U);
 3395              		.loc 1 1291 3 is_stmt 1 view .LVU1086
1291:../Drivers/STM32L4xx_HAL_Driver/Src/stm32l4xx_ll_usb.c ****   USBx_OUTEP(0U)->DOEPTSIZ |= (3U * 8U);
 3396              		.loc 1 1291 28 is_stmt 0 view .LVU1087
 3397 0016 D0F8103B 		ldr	r3, [r0, #2832]
 3398 001a 43F40023 		orr	r3, r3, #524288
 3399 001e C0F8103B 		str	r3, [r0, #2832]
1292:../Drivers/STM32L4xx_HAL_Driver/Src/stm32l4xx_ll_usb.c ****   USBx_OUTEP(0U)->DOEPTSIZ |=  USB_OTG_DOEPTSIZ_STUPCNT;
 3400              		.loc 1 1292 3 is_stmt 1 view .LVU1088
1292:../Drivers/STM32L4xx_HAL_Driver/Src/stm32l4xx_ll_usb.c ****   USBx_OUTEP(0U)->DOEPTSIZ |=  USB_OTG_DOEPTSIZ_STUPCNT;
 3401              		.loc 1 1292 28 is_stmt 0 view .LVU1089
 3402 0022 D0F8103B 		ldr	r3, [r0, #2832]
 3403 0026 43F01803 		orr	r3, r3, #24
 3404 002a C0F8103B 		str	r3, [r0, #2832]
1293:../Drivers/STM32L4xx_HAL_Driver/Src/stm32l4xx_ll_usb.c **** 
 3405              		.loc 1 1293 3 is_stmt 1 view .LVU1090
1293:../Drivers/STM32L4xx_HAL_Driver/Src/stm32l4xx_ll_usb.c **** 
 3406              		.loc 1 1293 28 is_stmt 0 view .LVU1091
 3407 002e D0F8103B 		ldr	r3, [r0, #2832]
 3408 0032 43F0C043 		orr	r3, r3, #1610612736
 3409 0036 C0F8103B 		str	r3, [r0, #2832]
1295:../Drivers/STM32L4xx_HAL_Driver/Src/stm32l4xx_ll_usb.c **** }
 3410              		.loc 1 1295 3 is_stmt 1 view .LVU1092
 3411              	.L208:
1296:../Drivers/STM32L4xx_HAL_Driver/Src/stm32l4xx_ll_usb.c **** 
 3412              		.loc 1 1296 1 is_stmt 0 view .LVU1093
 3413 003a 0020     		movs	r0, #0
 3414              	.LVL274:
1296:../Drivers/STM32L4xx_HAL_Driver/Src/stm32l4xx_ll_usb.c **** 
 3415              		.loc 1 1296 1 view .LVU1094
 3416 003c 7047     		bx	lr
 3417              	.L210:
 3418 003e 00BF     		.align	2
 3419              	.L209:
 3420 0040 0A30544F 		.word	1330917386
 3421              		.cfi_endproc
 3422              	.LFE165:
 3424              		.section	.text.USB_HostInit,"ax",%progbits
 3425              		.align	1
 3426              		.global	USB_HostInit
 3427              		.syntax unified
 3428              		.thumb
ARM GAS  /tmp/ccJzOZLR.s 			page 102


 3429              		.thumb_func
 3430              		.fpu fpv4-sp-d16
 3432              	USB_HostInit:
 3433              	.LVL275:
 3434              	.LFB167:
1334:../Drivers/STM32L4xx_HAL_Driver/Src/stm32l4xx_ll_usb.c **** 
1335:../Drivers/STM32L4xx_HAL_Driver/Src/stm32l4xx_ll_usb.c **** /**
1336:../Drivers/STM32L4xx_HAL_Driver/Src/stm32l4xx_ll_usb.c ****   * @brief  USB_HostInit : Initializes the USB OTG controller registers
1337:../Drivers/STM32L4xx_HAL_Driver/Src/stm32l4xx_ll_usb.c ****   *         for Host mode
1338:../Drivers/STM32L4xx_HAL_Driver/Src/stm32l4xx_ll_usb.c ****   * @param  USBx  Selected device
1339:../Drivers/STM32L4xx_HAL_Driver/Src/stm32l4xx_ll_usb.c ****   * @param  cfg   pointer to a USB_OTG_CfgTypeDef structure that contains
1340:../Drivers/STM32L4xx_HAL_Driver/Src/stm32l4xx_ll_usb.c ****   *         the configuration information for the specified USBx peripheral.
1341:../Drivers/STM32L4xx_HAL_Driver/Src/stm32l4xx_ll_usb.c ****   * @retval HAL status
1342:../Drivers/STM32L4xx_HAL_Driver/Src/stm32l4xx_ll_usb.c ****   */
1343:../Drivers/STM32L4xx_HAL_Driver/Src/stm32l4xx_ll_usb.c **** HAL_StatusTypeDef USB_HostInit(USB_OTG_GlobalTypeDef *USBx, USB_OTG_CfgTypeDef cfg)
1344:../Drivers/STM32L4xx_HAL_Driver/Src/stm32l4xx_ll_usb.c **** {
 3435              		.loc 1 1344 1 is_stmt 1 view -0
 3436              		.cfi_startproc
 3437              		@ args = 56, pretend = 16, frame = 0
 3438              		@ frame_needed = 0, uses_anonymous_args = 0
 3439              		.loc 1 1344 1 is_stmt 0 view .LVU1096
 3440 0000 84B0     		sub	sp, sp, #16
 3441              	.LCFI41:
 3442              		.cfi_def_cfa_offset 16
 3443 0002 38B5     		push	{r3, r4, r5, lr}
 3444              	.LCFI42:
 3445              		.cfi_def_cfa_offset 32
 3446              		.cfi_offset 3, -32
 3447              		.cfi_offset 4, -28
 3448              		.cfi_offset 5, -24
 3449              		.cfi_offset 14, -20
 3450 0004 0446     		mov	r4, r0
 3451 0006 05AD     		add	r5, sp, #20
 3452 0008 85E80E00 		stm	r5, {r1, r2, r3}
1345:../Drivers/STM32L4xx_HAL_Driver/Src/stm32l4xx_ll_usb.c ****   HAL_StatusTypeDef ret = HAL_OK;
 3453              		.loc 1 1345 3 is_stmt 1 view .LVU1097
 3454              	.LVL276:
1346:../Drivers/STM32L4xx_HAL_Driver/Src/stm32l4xx_ll_usb.c ****   uint32_t USBx_BASE = (uint32_t)USBx;
 3455              		.loc 1 1346 3 view .LVU1098
1347:../Drivers/STM32L4xx_HAL_Driver/Src/stm32l4xx_ll_usb.c ****   uint32_t i;
 3456              		.loc 1 1347 3 view .LVU1099
1348:../Drivers/STM32L4xx_HAL_Driver/Src/stm32l4xx_ll_usb.c **** 
1349:../Drivers/STM32L4xx_HAL_Driver/Src/stm32l4xx_ll_usb.c ****   /* Restart the Phy Clock */
1350:../Drivers/STM32L4xx_HAL_Driver/Src/stm32l4xx_ll_usb.c ****   USBx_PCGCCTL = 0U;
 3457              		.loc 1 1350 3 view .LVU1100
 3458              		.loc 1 1350 16 is_stmt 0 view .LVU1101
 3459 000c 0023     		movs	r3, #0
 3460 000e C0F8003E 		str	r3, [r0, #3584]
1351:../Drivers/STM32L4xx_HAL_Driver/Src/stm32l4xx_ll_usb.c **** 
1352:../Drivers/STM32L4xx_HAL_Driver/Src/stm32l4xx_ll_usb.c ****   /* Disable VBUS sensing */
1353:../Drivers/STM32L4xx_HAL_Driver/Src/stm32l4xx_ll_usb.c ****   USBx->GCCFG &= ~(USB_OTG_GCCFG_VBDEN);
 3461              		.loc 1 1353 3 is_stmt 1 view .LVU1102
 3462              		.loc 1 1353 15 is_stmt 0 view .LVU1103
 3463 0012 836B     		ldr	r3, [r0, #56]
 3464 0014 23F40013 		bic	r3, r3, #2097152
 3465 0018 8363     		str	r3, [r0, #56]
1354:../Drivers/STM32L4xx_HAL_Driver/Src/stm32l4xx_ll_usb.c **** 
ARM GAS  /tmp/ccJzOZLR.s 			page 103


1355:../Drivers/STM32L4xx_HAL_Driver/Src/stm32l4xx_ll_usb.c ****   /* Disable Battery chargin detector */
1356:../Drivers/STM32L4xx_HAL_Driver/Src/stm32l4xx_ll_usb.c ****   USBx->GCCFG &= ~(USB_OTG_GCCFG_BCDEN);
 3466              		.loc 1 1356 3 is_stmt 1 view .LVU1104
 3467              		.loc 1 1356 15 is_stmt 0 view .LVU1105
 3468 001a 836B     		ldr	r3, [r0, #56]
 3469 001c 23F40033 		bic	r3, r3, #131072
 3470 0020 8363     		str	r3, [r0, #56]
1357:../Drivers/STM32L4xx_HAL_Driver/Src/stm32l4xx_ll_usb.c **** 
1358:../Drivers/STM32L4xx_HAL_Driver/Src/stm32l4xx_ll_usb.c ****   /* Set default Max speed support */
1359:../Drivers/STM32L4xx_HAL_Driver/Src/stm32l4xx_ll_usb.c ****   USBx_HOST->HCFG &= ~(USB_OTG_HCFG_FSLSS);
 3471              		.loc 1 1359 3 is_stmt 1 view .LVU1106
 3472              		.loc 1 1359 19 is_stmt 0 view .LVU1107
 3473 0022 D0F80034 		ldr	r3, [r0, #1024]
 3474 0026 23F00403 		bic	r3, r3, #4
 3475 002a C0F80034 		str	r3, [r0, #1024]
1360:../Drivers/STM32L4xx_HAL_Driver/Src/stm32l4xx_ll_usb.c **** 
1361:../Drivers/STM32L4xx_HAL_Driver/Src/stm32l4xx_ll_usb.c ****   /* Make sure the FIFOs are flushed. */
1362:../Drivers/STM32L4xx_HAL_Driver/Src/stm32l4xx_ll_usb.c ****   if (USB_FlushTxFifo(USBx, 0x10U) != HAL_OK) /* all Tx FIFOs */
 3476              		.loc 1 1362 3 is_stmt 1 view .LVU1108
 3477              		.loc 1 1362 7 is_stmt 0 view .LVU1109
 3478 002e 1021     		movs	r1, #16
 3479 0030 FFF7FEFF 		bl	USB_FlushTxFifo
 3480              	.LVL277:
 3481              		.loc 1 1362 6 view .LVU1110
 3482 0034 0546     		mov	r5, r0
 3483 0036 00B1     		cbz	r0, .L212
1363:../Drivers/STM32L4xx_HAL_Driver/Src/stm32l4xx_ll_usb.c ****   {
1364:../Drivers/STM32L4xx_HAL_Driver/Src/stm32l4xx_ll_usb.c ****     ret = HAL_ERROR;
 3484              		.loc 1 1364 9 view .LVU1111
 3485 0038 0125     		movs	r5, #1
 3486              	.L212:
 3487              	.LVL278:
1365:../Drivers/STM32L4xx_HAL_Driver/Src/stm32l4xx_ll_usb.c ****   }
1366:../Drivers/STM32L4xx_HAL_Driver/Src/stm32l4xx_ll_usb.c **** 
1367:../Drivers/STM32L4xx_HAL_Driver/Src/stm32l4xx_ll_usb.c ****   if (USB_FlushRxFifo(USBx) != HAL_OK)
 3488              		.loc 1 1367 3 is_stmt 1 view .LVU1112
 3489              		.loc 1 1367 7 is_stmt 0 view .LVU1113
 3490 003a 2046     		mov	r0, r4
 3491 003c FFF7FEFF 		bl	USB_FlushRxFifo
 3492              	.LVL279:
 3493              		.loc 1 1367 6 view .LVU1114
 3494 0040 00B1     		cbz	r0, .L213
1368:../Drivers/STM32L4xx_HAL_Driver/Src/stm32l4xx_ll_usb.c ****   {
1369:../Drivers/STM32L4xx_HAL_Driver/Src/stm32l4xx_ll_usb.c ****     ret = HAL_ERROR;
 3495              		.loc 1 1369 9 view .LVU1115
 3496 0042 0125     		movs	r5, #1
 3497              	.LVL280:
 3498              	.L213:
1370:../Drivers/STM32L4xx_HAL_Driver/Src/stm32l4xx_ll_usb.c ****   }
1371:../Drivers/STM32L4xx_HAL_Driver/Src/stm32l4xx_ll_usb.c **** 
1372:../Drivers/STM32L4xx_HAL_Driver/Src/stm32l4xx_ll_usb.c ****   /* Clear all pending HC Interrupts */
1373:../Drivers/STM32L4xx_HAL_Driver/Src/stm32l4xx_ll_usb.c ****   for (i = 0U; i < cfg.Host_channels; i++)
 3499              		.loc 1 1373 3 is_stmt 1 view .LVU1116
 3500              		.loc 1 1373 10 is_stmt 0 view .LVU1117
 3501 0044 0022     		movs	r2, #0
 3502              		.loc 1 1373 3 view .LVU1118
 3503 0046 09E0     		b	.L214
ARM GAS  /tmp/ccJzOZLR.s 			page 104


 3504              	.LVL281:
 3505              	.L215:
1374:../Drivers/STM32L4xx_HAL_Driver/Src/stm32l4xx_ll_usb.c ****   {
1375:../Drivers/STM32L4xx_HAL_Driver/Src/stm32l4xx_ll_usb.c ****     USBx_HC(i)->HCINT = 0xFFFFFFFFU;
 3506              		.loc 1 1375 5 is_stmt 1 discriminator 3 view .LVU1119
 3507 0048 04EB4213 		add	r3, r4, r2, lsl #5
 3508              		.loc 1 1375 23 is_stmt 0 discriminator 3 view .LVU1120
 3509 004c 4FF0FF31 		mov	r1, #-1
 3510 0050 C3F80815 		str	r1, [r3, #1288]
1376:../Drivers/STM32L4xx_HAL_Driver/Src/stm32l4xx_ll_usb.c ****     USBx_HC(i)->HCINTMSK = 0U;
 3511              		.loc 1 1376 5 is_stmt 1 discriminator 3 view .LVU1121
 3512              		.loc 1 1376 26 is_stmt 0 discriminator 3 view .LVU1122
 3513 0054 0021     		movs	r1, #0
 3514 0056 C3F80C15 		str	r1, [r3, #1292]
1373:../Drivers/STM32L4xx_HAL_Driver/Src/stm32l4xx_ll_usb.c ****   {
 3515              		.loc 1 1373 39 is_stmt 1 discriminator 3 view .LVU1123
1373:../Drivers/STM32L4xx_HAL_Driver/Src/stm32l4xx_ll_usb.c ****   {
 3516              		.loc 1 1373 40 is_stmt 0 discriminator 3 view .LVU1124
 3517 005a 0132     		adds	r2, r2, #1
 3518              	.LVL282:
 3519              	.L214:
1373:../Drivers/STM32L4xx_HAL_Driver/Src/stm32l4xx_ll_usb.c ****   {
 3520              		.loc 1 1373 16 is_stmt 1 discriminator 1 view .LVU1125
1373:../Drivers/STM32L4xx_HAL_Driver/Src/stm32l4xx_ll_usb.c ****   {
 3521              		.loc 1 1373 23 is_stmt 0 discriminator 1 view .LVU1126
 3522 005c 069B     		ldr	r3, [sp, #24]
1373:../Drivers/STM32L4xx_HAL_Driver/Src/stm32l4xx_ll_usb.c ****   {
 3523              		.loc 1 1373 3 discriminator 1 view .LVU1127
 3524 005e 9342     		cmp	r3, r2
 3525 0060 F2D8     		bhi	.L215
1377:../Drivers/STM32L4xx_HAL_Driver/Src/stm32l4xx_ll_usb.c ****   }
1378:../Drivers/STM32L4xx_HAL_Driver/Src/stm32l4xx_ll_usb.c **** 
1379:../Drivers/STM32L4xx_HAL_Driver/Src/stm32l4xx_ll_usb.c ****   /* Disable all interrupts. */
1380:../Drivers/STM32L4xx_HAL_Driver/Src/stm32l4xx_ll_usb.c ****   USBx->GINTMSK = 0U;
 3526              		.loc 1 1380 3 is_stmt 1 view .LVU1128
 3527              		.loc 1 1380 17 is_stmt 0 view .LVU1129
 3528 0062 0023     		movs	r3, #0
 3529 0064 A361     		str	r3, [r4, #24]
1381:../Drivers/STM32L4xx_HAL_Driver/Src/stm32l4xx_ll_usb.c **** 
1382:../Drivers/STM32L4xx_HAL_Driver/Src/stm32l4xx_ll_usb.c ****   /* Clear any pending interrupts */
1383:../Drivers/STM32L4xx_HAL_Driver/Src/stm32l4xx_ll_usb.c ****   USBx->GINTSTS = 0xFFFFFFFFU;
 3530              		.loc 1 1383 3 is_stmt 1 view .LVU1130
 3531              		.loc 1 1383 17 is_stmt 0 view .LVU1131
 3532 0066 4FF0FF33 		mov	r3, #-1
 3533 006a 6361     		str	r3, [r4, #20]
1384:../Drivers/STM32L4xx_HAL_Driver/Src/stm32l4xx_ll_usb.c **** 
1385:../Drivers/STM32L4xx_HAL_Driver/Src/stm32l4xx_ll_usb.c ****   /* set Rx FIFO size */
1386:../Drivers/STM32L4xx_HAL_Driver/Src/stm32l4xx_ll_usb.c ****   USBx->GRXFSIZ  = 0x80U;
 3534              		.loc 1 1386 3 is_stmt 1 view .LVU1132
 3535              		.loc 1 1386 18 is_stmt 0 view .LVU1133
 3536 006c 8023     		movs	r3, #128
 3537 006e 6362     		str	r3, [r4, #36]
1387:../Drivers/STM32L4xx_HAL_Driver/Src/stm32l4xx_ll_usb.c ****   USBx->DIEPTXF0_HNPTXFSIZ = (uint32_t)(((0x60U << 16) & USB_OTG_NPTXFD) | 0x80U);
 3538              		.loc 1 1387 3 is_stmt 1 view .LVU1134
 3539              		.loc 1 1387 28 is_stmt 0 view .LVU1135
 3540 0070 03F5C003 		add	r3, r3, #6291456
 3541 0074 A362     		str	r3, [r4, #40]
ARM GAS  /tmp/ccJzOZLR.s 			page 105


1388:../Drivers/STM32L4xx_HAL_Driver/Src/stm32l4xx_ll_usb.c ****   USBx->HPTXFSIZ = (uint32_t)(((0x40U << 16)& USB_OTG_HPTXFSIZ_PTXFD) | 0xE0U);
 3542              		.loc 1 1388 3 is_stmt 1 view .LVU1136
 3543              		.loc 1 1388 18 is_stmt 0 view .LVU1137
 3544 0076 084B     		ldr	r3, .L219
 3545 0078 C4F80031 		str	r3, [r4, #256]
1389:../Drivers/STM32L4xx_HAL_Driver/Src/stm32l4xx_ll_usb.c ****   /* Enable the common interrupts */
1390:../Drivers/STM32L4xx_HAL_Driver/Src/stm32l4xx_ll_usb.c ****   USBx->GINTMSK |= USB_OTG_GINTMSK_RXFLVLM;
 3546              		.loc 1 1390 3 is_stmt 1 view .LVU1138
 3547              		.loc 1 1390 17 is_stmt 0 view .LVU1139
 3548 007c A369     		ldr	r3, [r4, #24]
 3549 007e 43F01003 		orr	r3, r3, #16
 3550 0082 A361     		str	r3, [r4, #24]
1391:../Drivers/STM32L4xx_HAL_Driver/Src/stm32l4xx_ll_usb.c **** 
1392:../Drivers/STM32L4xx_HAL_Driver/Src/stm32l4xx_ll_usb.c ****   /* Enable interrupts matching to the Host mode ONLY */
1393:../Drivers/STM32L4xx_HAL_Driver/Src/stm32l4xx_ll_usb.c ****   USBx->GINTMSK |= (USB_OTG_GINTMSK_PRTIM            | USB_OTG_GINTMSK_HCIM | \
 3551              		.loc 1 1393 3 is_stmt 1 view .LVU1140
 3552              		.loc 1 1393 17 is_stmt 0 view .LVU1141
 3553 0084 A269     		ldr	r2, [r4, #24]
 3554              	.LVL283:
 3555              		.loc 1 1393 17 view .LVU1142
 3556 0086 054B     		ldr	r3, .L219+4
 3557 0088 1343     		orrs	r3, r3, r2
 3558 008a A361     		str	r3, [r4, #24]
1394:../Drivers/STM32L4xx_HAL_Driver/Src/stm32l4xx_ll_usb.c ****                     USB_OTG_GINTMSK_SOFM             | USB_OTG_GINTSTS_DISCINT | \
1395:../Drivers/STM32L4xx_HAL_Driver/Src/stm32l4xx_ll_usb.c ****                     USB_OTG_GINTMSK_PXFRM_IISOOXFRM  | USB_OTG_GINTMSK_WUIM);
1396:../Drivers/STM32L4xx_HAL_Driver/Src/stm32l4xx_ll_usb.c **** 
1397:../Drivers/STM32L4xx_HAL_Driver/Src/stm32l4xx_ll_usb.c ****   return ret;
 3559              		.loc 1 1397 3 is_stmt 1 view .LVU1143
1398:../Drivers/STM32L4xx_HAL_Driver/Src/stm32l4xx_ll_usb.c **** }
 3560              		.loc 1 1398 1 is_stmt 0 view .LVU1144
 3561 008c 2846     		mov	r0, r5
 3562 008e BDE83840 		pop	{r3, r4, r5, lr}
 3563              	.LCFI43:
 3564              		.cfi_restore 14
 3565              		.cfi_restore 5
 3566              		.cfi_restore 4
 3567              		.cfi_restore 3
 3568              		.cfi_def_cfa_offset 16
 3569              	.LVL284:
 3570              		.loc 1 1398 1 view .LVU1145
 3571 0092 04B0     		add	sp, sp, #16
 3572              	.LCFI44:
 3573              		.cfi_def_cfa_offset 0
 3574 0094 7047     		bx	lr
 3575              	.L220:
 3576 0096 00BF     		.align	2
 3577              	.L219:
 3578 0098 E0004000 		.word	4194528
 3579 009c 080020A3 		.word	-1558183928
 3580              		.cfi_endproc
 3581              	.LFE167:
 3583              		.section	.text.USB_InitFSLSPClkSel,"ax",%progbits
 3584              		.align	1
 3585              		.global	USB_InitFSLSPClkSel
 3586              		.syntax unified
 3587              		.thumb
 3588              		.thumb_func
ARM GAS  /tmp/ccJzOZLR.s 			page 106


 3589              		.fpu fpv4-sp-d16
 3591              	USB_InitFSLSPClkSel:
 3592              	.LVL285:
 3593              	.LFB168:
1399:../Drivers/STM32L4xx_HAL_Driver/Src/stm32l4xx_ll_usb.c **** 
1400:../Drivers/STM32L4xx_HAL_Driver/Src/stm32l4xx_ll_usb.c **** /**
1401:../Drivers/STM32L4xx_HAL_Driver/Src/stm32l4xx_ll_usb.c ****   * @brief  USB_InitFSLSPClkSel : Initializes the FSLSPClkSel field of the
1402:../Drivers/STM32L4xx_HAL_Driver/Src/stm32l4xx_ll_usb.c ****   *         HCFG register on the PHY type and set the right frame interval
1403:../Drivers/STM32L4xx_HAL_Driver/Src/stm32l4xx_ll_usb.c ****   * @param  USBx  Selected device
1404:../Drivers/STM32L4xx_HAL_Driver/Src/stm32l4xx_ll_usb.c ****   * @param  freq  clock frequency
1405:../Drivers/STM32L4xx_HAL_Driver/Src/stm32l4xx_ll_usb.c ****   *          This parameter can be one of these values:
1406:../Drivers/STM32L4xx_HAL_Driver/Src/stm32l4xx_ll_usb.c ****   *           HCFG_48_MHZ : Full Speed 48 MHz Clock
1407:../Drivers/STM32L4xx_HAL_Driver/Src/stm32l4xx_ll_usb.c ****   *           HCFG_6_MHZ : Low Speed 6 MHz Clock
1408:../Drivers/STM32L4xx_HAL_Driver/Src/stm32l4xx_ll_usb.c ****   * @retval HAL status
1409:../Drivers/STM32L4xx_HAL_Driver/Src/stm32l4xx_ll_usb.c ****   */
1410:../Drivers/STM32L4xx_HAL_Driver/Src/stm32l4xx_ll_usb.c **** HAL_StatusTypeDef USB_InitFSLSPClkSel(USB_OTG_GlobalTypeDef *USBx, uint8_t freq)
1411:../Drivers/STM32L4xx_HAL_Driver/Src/stm32l4xx_ll_usb.c **** {
 3594              		.loc 1 1411 1 is_stmt 1 view -0
 3595              		.cfi_startproc
 3596              		@ args = 0, pretend = 0, frame = 0
 3597              		@ frame_needed = 0, uses_anonymous_args = 0
 3598              		@ link register save eliminated.
1412:../Drivers/STM32L4xx_HAL_Driver/Src/stm32l4xx_ll_usb.c ****   uint32_t USBx_BASE = (uint32_t)USBx;
 3599              		.loc 1 1412 3 view .LVU1147
1413:../Drivers/STM32L4xx_HAL_Driver/Src/stm32l4xx_ll_usb.c **** 
1414:../Drivers/STM32L4xx_HAL_Driver/Src/stm32l4xx_ll_usb.c ****   USBx_HOST->HCFG &= ~(USB_OTG_HCFG_FSLSPCS);
 3600              		.loc 1 1414 3 view .LVU1148
 3601              		.loc 1 1414 19 is_stmt 0 view .LVU1149
 3602 0000 00F5806C 		add	ip, r0, #1024
 3603 0004 D0F80034 		ldr	r3, [r0, #1024]
 3604 0008 23F00303 		bic	r3, r3, #3
 3605 000c C0F80034 		str	r3, [r0, #1024]
1415:../Drivers/STM32L4xx_HAL_Driver/Src/stm32l4xx_ll_usb.c ****   USBx_HOST->HCFG |= (uint32_t)freq & USB_OTG_HCFG_FSLSPCS;
 3606              		.loc 1 1415 3 is_stmt 1 view .LVU1150
 3607              		.loc 1 1415 19 is_stmt 0 view .LVU1151
 3608 0010 D0F80034 		ldr	r3, [r0, #1024]
 3609              		.loc 1 1415 37 view .LVU1152
 3610 0014 01F00302 		and	r2, r1, #3
 3611              		.loc 1 1415 19 view .LVU1153
 3612 0018 1343     		orrs	r3, r3, r2
 3613 001a C0F80034 		str	r3, [r0, #1024]
1416:../Drivers/STM32L4xx_HAL_Driver/Src/stm32l4xx_ll_usb.c **** 
1417:../Drivers/STM32L4xx_HAL_Driver/Src/stm32l4xx_ll_usb.c ****   if (freq == HCFG_48_MHZ)
 3614              		.loc 1 1417 3 is_stmt 1 view .LVU1154
 3615              		.loc 1 1417 6 is_stmt 0 view .LVU1155
 3616 001e 0129     		cmp	r1, #1
 3617 0020 03D0     		beq	.L224
1418:../Drivers/STM32L4xx_HAL_Driver/Src/stm32l4xx_ll_usb.c ****   {
1419:../Drivers/STM32L4xx_HAL_Driver/Src/stm32l4xx_ll_usb.c ****     USBx_HOST->HFIR = 48000U;
1420:../Drivers/STM32L4xx_HAL_Driver/Src/stm32l4xx_ll_usb.c ****   }
1421:../Drivers/STM32L4xx_HAL_Driver/Src/stm32l4xx_ll_usb.c ****   else if (freq == HCFG_6_MHZ)
 3618              		.loc 1 1421 8 is_stmt 1 view .LVU1156
 3619              		.loc 1 1421 11 is_stmt 0 view .LVU1157
 3620 0022 0229     		cmp	r1, #2
 3621 0024 06D0     		beq	.L225
 3622              	.L223:
1422:../Drivers/STM32L4xx_HAL_Driver/Src/stm32l4xx_ll_usb.c ****   {
ARM GAS  /tmp/ccJzOZLR.s 			page 107


1423:../Drivers/STM32L4xx_HAL_Driver/Src/stm32l4xx_ll_usb.c ****     USBx_HOST->HFIR = 6000U;
1424:../Drivers/STM32L4xx_HAL_Driver/Src/stm32l4xx_ll_usb.c ****   }
1425:../Drivers/STM32L4xx_HAL_Driver/Src/stm32l4xx_ll_usb.c ****   else
1426:../Drivers/STM32L4xx_HAL_Driver/Src/stm32l4xx_ll_usb.c ****   {
1427:../Drivers/STM32L4xx_HAL_Driver/Src/stm32l4xx_ll_usb.c ****     /* ... */
1428:../Drivers/STM32L4xx_HAL_Driver/Src/stm32l4xx_ll_usb.c ****   }
 3623              		.loc 1 1428 3 is_stmt 1 view .LVU1158
1429:../Drivers/STM32L4xx_HAL_Driver/Src/stm32l4xx_ll_usb.c **** 
1430:../Drivers/STM32L4xx_HAL_Driver/Src/stm32l4xx_ll_usb.c ****   return HAL_OK;
 3624              		.loc 1 1430 3 view .LVU1159
1431:../Drivers/STM32L4xx_HAL_Driver/Src/stm32l4xx_ll_usb.c **** }
 3625              		.loc 1 1431 1 is_stmt 0 view .LVU1160
 3626 0026 0020     		movs	r0, #0
 3627              	.LVL286:
 3628              		.loc 1 1431 1 view .LVU1161
 3629 0028 7047     		bx	lr
 3630              	.LVL287:
 3631              	.L224:
1419:../Drivers/STM32L4xx_HAL_Driver/Src/stm32l4xx_ll_usb.c ****   }
 3632              		.loc 1 1419 5 is_stmt 1 view .LVU1162
1419:../Drivers/STM32L4xx_HAL_Driver/Src/stm32l4xx_ll_usb.c ****   }
 3633              		.loc 1 1419 21 is_stmt 0 view .LVU1163
 3634 002a 4BF68033 		movw	r3, #48000
 3635 002e CCF80430 		str	r3, [ip, #4]
 3636 0032 F8E7     		b	.L223
 3637              	.L225:
1423:../Drivers/STM32L4xx_HAL_Driver/Src/stm32l4xx_ll_usb.c ****   }
 3638              		.loc 1 1423 5 is_stmt 1 view .LVU1164
1423:../Drivers/STM32L4xx_HAL_Driver/Src/stm32l4xx_ll_usb.c ****   }
 3639              		.loc 1 1423 21 is_stmt 0 view .LVU1165
 3640 0034 41F27073 		movw	r3, #6000
 3641 0038 CCF80430 		str	r3, [ip, #4]
 3642 003c F3E7     		b	.L223
 3643              		.cfi_endproc
 3644              	.LFE168:
 3646              		.section	.text.USB_ResetPort,"ax",%progbits
 3647              		.align	1
 3648              		.global	USB_ResetPort
 3649              		.syntax unified
 3650              		.thumb
 3651              		.thumb_func
 3652              		.fpu fpv4-sp-d16
 3654              	USB_ResetPort:
 3655              	.LVL288:
 3656              	.LFB169:
1432:../Drivers/STM32L4xx_HAL_Driver/Src/stm32l4xx_ll_usb.c **** 
1433:../Drivers/STM32L4xx_HAL_Driver/Src/stm32l4xx_ll_usb.c **** /**
1434:../Drivers/STM32L4xx_HAL_Driver/Src/stm32l4xx_ll_usb.c ****   * @brief  USB_OTG_ResetPort : Reset Host Port
1435:../Drivers/STM32L4xx_HAL_Driver/Src/stm32l4xx_ll_usb.c ****   * @param  USBx  Selected device
1436:../Drivers/STM32L4xx_HAL_Driver/Src/stm32l4xx_ll_usb.c ****   * @retval HAL status
1437:../Drivers/STM32L4xx_HAL_Driver/Src/stm32l4xx_ll_usb.c ****   * @note (1)The application must wait at least 10 ms
1438:../Drivers/STM32L4xx_HAL_Driver/Src/stm32l4xx_ll_usb.c ****   *   before clearing the reset bit.
1439:../Drivers/STM32L4xx_HAL_Driver/Src/stm32l4xx_ll_usb.c ****   */
1440:../Drivers/STM32L4xx_HAL_Driver/Src/stm32l4xx_ll_usb.c **** HAL_StatusTypeDef USB_ResetPort(USB_OTG_GlobalTypeDef *USBx)
1441:../Drivers/STM32L4xx_HAL_Driver/Src/stm32l4xx_ll_usb.c **** {
 3657              		.loc 1 1441 1 is_stmt 1 view -0
 3658              		.cfi_startproc
ARM GAS  /tmp/ccJzOZLR.s 			page 108


 3659              		@ args = 0, pretend = 0, frame = 8
 3660              		@ frame_needed = 0, uses_anonymous_args = 0
 3661              		.loc 1 1441 1 is_stmt 0 view .LVU1167
 3662 0000 30B5     		push	{r4, r5, lr}
 3663              	.LCFI45:
 3664              		.cfi_def_cfa_offset 12
 3665              		.cfi_offset 4, -12
 3666              		.cfi_offset 5, -8
 3667              		.cfi_offset 14, -4
 3668 0002 83B0     		sub	sp, sp, #12
 3669              	.LCFI46:
 3670              		.cfi_def_cfa_offset 24
 3671 0004 0446     		mov	r4, r0
1442:../Drivers/STM32L4xx_HAL_Driver/Src/stm32l4xx_ll_usb.c ****   uint32_t USBx_BASE = (uint32_t)USBx;
 3672              		.loc 1 1442 3 is_stmt 1 view .LVU1168
 3673              	.LVL289:
1443:../Drivers/STM32L4xx_HAL_Driver/Src/stm32l4xx_ll_usb.c **** 
1444:../Drivers/STM32L4xx_HAL_Driver/Src/stm32l4xx_ll_usb.c ****   __IO uint32_t hprt0 = 0U;
 3674              		.loc 1 1444 3 view .LVU1169
 3675              		.loc 1 1444 17 is_stmt 0 view .LVU1170
 3676 0006 0025     		movs	r5, #0
 3677 0008 0195     		str	r5, [sp, #4]
1445:../Drivers/STM32L4xx_HAL_Driver/Src/stm32l4xx_ll_usb.c **** 
1446:../Drivers/STM32L4xx_HAL_Driver/Src/stm32l4xx_ll_usb.c ****   hprt0 = USBx_HPRT0;
 3678              		.loc 1 1446 3 is_stmt 1 view .LVU1171
 3679              		.loc 1 1446 11 is_stmt 0 view .LVU1172
 3680 000a D0F84034 		ldr	r3, [r0, #1088]
 3681              		.loc 1 1446 9 view .LVU1173
 3682 000e 0193     		str	r3, [sp, #4]
1447:../Drivers/STM32L4xx_HAL_Driver/Src/stm32l4xx_ll_usb.c **** 
1448:../Drivers/STM32L4xx_HAL_Driver/Src/stm32l4xx_ll_usb.c ****   hprt0 &= ~(USB_OTG_HPRT_PENA | USB_OTG_HPRT_PCDET |
 3683              		.loc 1 1448 3 is_stmt 1 view .LVU1174
 3684              		.loc 1 1448 9 is_stmt 0 view .LVU1175
 3685 0010 019B     		ldr	r3, [sp, #4]
 3686 0012 23F02E03 		bic	r3, r3, #46
 3687 0016 0193     		str	r3, [sp, #4]
1449:../Drivers/STM32L4xx_HAL_Driver/Src/stm32l4xx_ll_usb.c ****              USB_OTG_HPRT_PENCHNG | USB_OTG_HPRT_POCCHNG);
1450:../Drivers/STM32L4xx_HAL_Driver/Src/stm32l4xx_ll_usb.c **** 
1451:../Drivers/STM32L4xx_HAL_Driver/Src/stm32l4xx_ll_usb.c ****   USBx_HPRT0 = (USB_OTG_HPRT_PRST | hprt0);
 3688              		.loc 1 1451 3 is_stmt 1 view .LVU1176
 3689              		.loc 1 1451 35 is_stmt 0 view .LVU1177
 3690 0018 019B     		ldr	r3, [sp, #4]
 3691 001a 43F48073 		orr	r3, r3, #256
 3692              		.loc 1 1451 14 view .LVU1178
 3693 001e C0F84034 		str	r3, [r0, #1088]
1452:../Drivers/STM32L4xx_HAL_Driver/Src/stm32l4xx_ll_usb.c ****   HAL_Delay(100U);                                 /* See Note #1 */
 3694              		.loc 1 1452 3 is_stmt 1 view .LVU1179
 3695 0022 6420     		movs	r0, #100
 3696              	.LVL290:
 3697              		.loc 1 1452 3 is_stmt 0 view .LVU1180
 3698 0024 FFF7FEFF 		bl	HAL_Delay
 3699              	.LVL291:
1453:../Drivers/STM32L4xx_HAL_Driver/Src/stm32l4xx_ll_usb.c ****   USBx_HPRT0 = ((~USB_OTG_HPRT_PRST) & hprt0);
 3700              		.loc 1 1453 3 is_stmt 1 view .LVU1181
 3701              		.loc 1 1453 38 is_stmt 0 view .LVU1182
 3702 0028 019B     		ldr	r3, [sp, #4]
 3703 002a 23F48073 		bic	r3, r3, #256
ARM GAS  /tmp/ccJzOZLR.s 			page 109


 3704              		.loc 1 1453 14 view .LVU1183
 3705 002e C4F84034 		str	r3, [r4, #1088]
1454:../Drivers/STM32L4xx_HAL_Driver/Src/stm32l4xx_ll_usb.c ****   HAL_Delay(10U);
 3706              		.loc 1 1454 3 is_stmt 1 view .LVU1184
 3707 0032 0A20     		movs	r0, #10
 3708 0034 FFF7FEFF 		bl	HAL_Delay
 3709              	.LVL292:
1455:../Drivers/STM32L4xx_HAL_Driver/Src/stm32l4xx_ll_usb.c **** 
1456:../Drivers/STM32L4xx_HAL_Driver/Src/stm32l4xx_ll_usb.c ****   return HAL_OK;
 3710              		.loc 1 1456 3 view .LVU1185
1457:../Drivers/STM32L4xx_HAL_Driver/Src/stm32l4xx_ll_usb.c **** }
 3711              		.loc 1 1457 1 is_stmt 0 view .LVU1186
 3712 0038 2846     		mov	r0, r5
 3713 003a 03B0     		add	sp, sp, #12
 3714              	.LCFI47:
 3715              		.cfi_def_cfa_offset 12
 3716              		@ sp needed
 3717 003c 30BD     		pop	{r4, r5, pc}
 3718              		.loc 1 1457 1 view .LVU1187
 3719              		.cfi_endproc
 3720              	.LFE169:
 3722              		.section	.text.USB_DriveVbus,"ax",%progbits
 3723              		.align	1
 3724              		.global	USB_DriveVbus
 3725              		.syntax unified
 3726              		.thumb
 3727              		.thumb_func
 3728              		.fpu fpv4-sp-d16
 3730              	USB_DriveVbus:
 3731              	.LVL293:
 3732              	.LFB170:
1458:../Drivers/STM32L4xx_HAL_Driver/Src/stm32l4xx_ll_usb.c **** 
1459:../Drivers/STM32L4xx_HAL_Driver/Src/stm32l4xx_ll_usb.c **** /**
1460:../Drivers/STM32L4xx_HAL_Driver/Src/stm32l4xx_ll_usb.c ****   * @brief  USB_DriveVbus : activate or de-activate vbus
1461:../Drivers/STM32L4xx_HAL_Driver/Src/stm32l4xx_ll_usb.c ****   * @param  state  VBUS state
1462:../Drivers/STM32L4xx_HAL_Driver/Src/stm32l4xx_ll_usb.c ****   *          This parameter can be one of these values:
1463:../Drivers/STM32L4xx_HAL_Driver/Src/stm32l4xx_ll_usb.c ****   *           0 : Deactivate VBUS
1464:../Drivers/STM32L4xx_HAL_Driver/Src/stm32l4xx_ll_usb.c ****   *           1 : Activate VBUS
1465:../Drivers/STM32L4xx_HAL_Driver/Src/stm32l4xx_ll_usb.c ****   * @retval HAL status
1466:../Drivers/STM32L4xx_HAL_Driver/Src/stm32l4xx_ll_usb.c ****   */
1467:../Drivers/STM32L4xx_HAL_Driver/Src/stm32l4xx_ll_usb.c **** HAL_StatusTypeDef USB_DriveVbus(USB_OTG_GlobalTypeDef *USBx, uint8_t state)
1468:../Drivers/STM32L4xx_HAL_Driver/Src/stm32l4xx_ll_usb.c **** {
 3733              		.loc 1 1468 1 is_stmt 1 view -0
 3734              		.cfi_startproc
 3735              		@ args = 0, pretend = 0, frame = 8
 3736              		@ frame_needed = 0, uses_anonymous_args = 0
 3737              		@ link register save eliminated.
 3738              		.loc 1 1468 1 is_stmt 0 view .LVU1189
 3739 0000 82B0     		sub	sp, sp, #8
 3740              	.LCFI48:
 3741              		.cfi_def_cfa_offset 8
1469:../Drivers/STM32L4xx_HAL_Driver/Src/stm32l4xx_ll_usb.c ****   uint32_t USBx_BASE = (uint32_t)USBx;
 3742              		.loc 1 1469 3 is_stmt 1 view .LVU1190
 3743              	.LVL294:
1470:../Drivers/STM32L4xx_HAL_Driver/Src/stm32l4xx_ll_usb.c ****   __IO uint32_t hprt0 = 0U;
 3744              		.loc 1 1470 3 view .LVU1191
 3745              		.loc 1 1470 17 is_stmt 0 view .LVU1192
ARM GAS  /tmp/ccJzOZLR.s 			page 110


 3746 0002 0023     		movs	r3, #0
 3747 0004 0193     		str	r3, [sp, #4]
1471:../Drivers/STM32L4xx_HAL_Driver/Src/stm32l4xx_ll_usb.c **** 
1472:../Drivers/STM32L4xx_HAL_Driver/Src/stm32l4xx_ll_usb.c ****   hprt0 = USBx_HPRT0;
 3748              		.loc 1 1472 3 is_stmt 1 view .LVU1193
 3749              		.loc 1 1472 11 is_stmt 0 view .LVU1194
 3750 0006 D0F84034 		ldr	r3, [r0, #1088]
 3751              		.loc 1 1472 9 view .LVU1195
 3752 000a 0193     		str	r3, [sp, #4]
1473:../Drivers/STM32L4xx_HAL_Driver/Src/stm32l4xx_ll_usb.c **** 
1474:../Drivers/STM32L4xx_HAL_Driver/Src/stm32l4xx_ll_usb.c ****   hprt0 &= ~(USB_OTG_HPRT_PENA | USB_OTG_HPRT_PCDET |
 3753              		.loc 1 1474 3 is_stmt 1 view .LVU1196
 3754              		.loc 1 1474 9 is_stmt 0 view .LVU1197
 3755 000c 019B     		ldr	r3, [sp, #4]
 3756 000e 23F02E03 		bic	r3, r3, #46
 3757 0012 0193     		str	r3, [sp, #4]
1475:../Drivers/STM32L4xx_HAL_Driver/Src/stm32l4xx_ll_usb.c ****              USB_OTG_HPRT_PENCHNG | USB_OTG_HPRT_POCCHNG);
1476:../Drivers/STM32L4xx_HAL_Driver/Src/stm32l4xx_ll_usb.c **** 
1477:../Drivers/STM32L4xx_HAL_Driver/Src/stm32l4xx_ll_usb.c ****   if (((hprt0 & USB_OTG_HPRT_PPWR) == 0U) && (state == 1U))
 3758              		.loc 1 1477 3 is_stmt 1 view .LVU1198
 3759              		.loc 1 1477 15 is_stmt 0 view .LVU1199
 3760 0014 019B     		ldr	r3, [sp, #4]
 3761              		.loc 1 1477 6 view .LVU1200
 3762 0016 13F4805F 		tst	r3, #4096
 3763 001a 01D1     		bne	.L229
 3764              		.loc 1 1477 43 discriminator 1 view .LVU1201
 3765 001c 0129     		cmp	r1, #1
 3766 001e 0CD0     		beq	.L232
 3767              	.L229:
1478:../Drivers/STM32L4xx_HAL_Driver/Src/stm32l4xx_ll_usb.c ****   {
1479:../Drivers/STM32L4xx_HAL_Driver/Src/stm32l4xx_ll_usb.c ****     USBx_HPRT0 = (USB_OTG_HPRT_PPWR | hprt0);
1480:../Drivers/STM32L4xx_HAL_Driver/Src/stm32l4xx_ll_usb.c ****   }
1481:../Drivers/STM32L4xx_HAL_Driver/Src/stm32l4xx_ll_usb.c ****   if (((hprt0 & USB_OTG_HPRT_PPWR) == USB_OTG_HPRT_PPWR) && (state == 0U))
 3768              		.loc 1 1481 3 is_stmt 1 view .LVU1202
 3769              		.loc 1 1481 15 is_stmt 0 view .LVU1203
 3770 0020 019B     		ldr	r3, [sp, #4]
 3771              		.loc 1 1481 6 view .LVU1204
 3772 0022 13F4805F 		tst	r3, #4096
 3773 0026 05D0     		beq	.L230
 3774              		.loc 1 1481 58 discriminator 1 view .LVU1205
 3775 0028 21B9     		cbnz	r1, .L230
1482:../Drivers/STM32L4xx_HAL_Driver/Src/stm32l4xx_ll_usb.c ****   {
1483:../Drivers/STM32L4xx_HAL_Driver/Src/stm32l4xx_ll_usb.c ****     USBx_HPRT0 = ((~USB_OTG_HPRT_PPWR) & hprt0);
 3776              		.loc 1 1483 5 is_stmt 1 view .LVU1206
 3777              		.loc 1 1483 40 is_stmt 0 view .LVU1207
 3778 002a 019B     		ldr	r3, [sp, #4]
 3779 002c 23F48053 		bic	r3, r3, #4096
 3780              		.loc 1 1483 16 view .LVU1208
 3781 0030 C0F84034 		str	r3, [r0, #1088]
 3782              	.L230:
1484:../Drivers/STM32L4xx_HAL_Driver/Src/stm32l4xx_ll_usb.c ****   }
1485:../Drivers/STM32L4xx_HAL_Driver/Src/stm32l4xx_ll_usb.c ****   return HAL_OK;
 3783              		.loc 1 1485 3 is_stmt 1 view .LVU1209
1486:../Drivers/STM32L4xx_HAL_Driver/Src/stm32l4xx_ll_usb.c **** }
 3784              		.loc 1 1486 1 is_stmt 0 view .LVU1210
 3785 0034 0020     		movs	r0, #0
 3786              	.LVL295:
ARM GAS  /tmp/ccJzOZLR.s 			page 111


 3787              		.loc 1 1486 1 view .LVU1211
 3788 0036 02B0     		add	sp, sp, #8
 3789              	.LCFI49:
 3790              		.cfi_remember_state
 3791              		.cfi_def_cfa_offset 0
 3792              		@ sp needed
 3793 0038 7047     		bx	lr
 3794              	.LVL296:
 3795              	.L232:
 3796              	.LCFI50:
 3797              		.cfi_restore_state
1479:../Drivers/STM32L4xx_HAL_Driver/Src/stm32l4xx_ll_usb.c ****   }
 3798              		.loc 1 1479 5 is_stmt 1 view .LVU1212
1479:../Drivers/STM32L4xx_HAL_Driver/Src/stm32l4xx_ll_usb.c ****   }
 3799              		.loc 1 1479 37 is_stmt 0 view .LVU1213
 3800 003a 019B     		ldr	r3, [sp, #4]
 3801 003c 43F48053 		orr	r3, r3, #4096
1479:../Drivers/STM32L4xx_HAL_Driver/Src/stm32l4xx_ll_usb.c ****   }
 3802              		.loc 1 1479 16 view .LVU1214
 3803 0040 C0F84034 		str	r3, [r0, #1088]
 3804 0044 ECE7     		b	.L229
 3805              		.cfi_endproc
 3806              	.LFE170:
 3808              		.section	.text.USB_GetHostSpeed,"ax",%progbits
 3809              		.align	1
 3810              		.global	USB_GetHostSpeed
 3811              		.syntax unified
 3812              		.thumb
 3813              		.thumb_func
 3814              		.fpu fpv4-sp-d16
 3816              	USB_GetHostSpeed:
 3817              	.LVL297:
 3818              	.LFB171:
1487:../Drivers/STM32L4xx_HAL_Driver/Src/stm32l4xx_ll_usb.c **** 
1488:../Drivers/STM32L4xx_HAL_Driver/Src/stm32l4xx_ll_usb.c **** /**
1489:../Drivers/STM32L4xx_HAL_Driver/Src/stm32l4xx_ll_usb.c ****   * @brief  Return Host Core speed
1490:../Drivers/STM32L4xx_HAL_Driver/Src/stm32l4xx_ll_usb.c ****   * @param  USBx  Selected device
1491:../Drivers/STM32L4xx_HAL_Driver/Src/stm32l4xx_ll_usb.c ****   * @retval speed : Host speed
1492:../Drivers/STM32L4xx_HAL_Driver/Src/stm32l4xx_ll_usb.c ****   *          This parameter can be one of these values:
1493:../Drivers/STM32L4xx_HAL_Driver/Src/stm32l4xx_ll_usb.c ****   *            @arg HCD_SPEED_FULL: Full speed mode
1494:../Drivers/STM32L4xx_HAL_Driver/Src/stm32l4xx_ll_usb.c ****   *            @arg HCD_SPEED_LOW: Low speed mode
1495:../Drivers/STM32L4xx_HAL_Driver/Src/stm32l4xx_ll_usb.c ****   */
1496:../Drivers/STM32L4xx_HAL_Driver/Src/stm32l4xx_ll_usb.c **** uint32_t USB_GetHostSpeed(USB_OTG_GlobalTypeDef *USBx)
1497:../Drivers/STM32L4xx_HAL_Driver/Src/stm32l4xx_ll_usb.c **** {
 3819              		.loc 1 1497 1 is_stmt 1 view -0
 3820              		.cfi_startproc
 3821              		@ args = 0, pretend = 0, frame = 8
 3822              		@ frame_needed = 0, uses_anonymous_args = 0
 3823              		@ link register save eliminated.
 3824              		.loc 1 1497 1 is_stmt 0 view .LVU1216
 3825 0000 82B0     		sub	sp, sp, #8
 3826              	.LCFI51:
 3827              		.cfi_def_cfa_offset 8
1498:../Drivers/STM32L4xx_HAL_Driver/Src/stm32l4xx_ll_usb.c ****   uint32_t USBx_BASE = (uint32_t)USBx;
 3828              		.loc 1 1498 3 is_stmt 1 view .LVU1217
 3829              	.LVL298:
1499:../Drivers/STM32L4xx_HAL_Driver/Src/stm32l4xx_ll_usb.c ****   __IO uint32_t hprt0 = 0U;
ARM GAS  /tmp/ccJzOZLR.s 			page 112


 3830              		.loc 1 1499 3 view .LVU1218
 3831              		.loc 1 1499 17 is_stmt 0 view .LVU1219
 3832 0002 0023     		movs	r3, #0
 3833 0004 0193     		str	r3, [sp, #4]
1500:../Drivers/STM32L4xx_HAL_Driver/Src/stm32l4xx_ll_usb.c **** 
1501:../Drivers/STM32L4xx_HAL_Driver/Src/stm32l4xx_ll_usb.c ****   hprt0 = USBx_HPRT0;
 3834              		.loc 1 1501 3 is_stmt 1 view .LVU1220
 3835              		.loc 1 1501 11 is_stmt 0 view .LVU1221
 3836 0006 D0F84034 		ldr	r3, [r0, #1088]
 3837              		.loc 1 1501 9 view .LVU1222
 3838 000a 0193     		str	r3, [sp, #4]
1502:../Drivers/STM32L4xx_HAL_Driver/Src/stm32l4xx_ll_usb.c ****   return ((hprt0 & USB_OTG_HPRT_PSPD) >> 17);
 3839              		.loc 1 1502 3 is_stmt 1 view .LVU1223
 3840              		.loc 1 1502 39 is_stmt 0 view .LVU1224
 3841 000c 0198     		ldr	r0, [sp, #4]
 3842              	.LVL299:
1503:../Drivers/STM32L4xx_HAL_Driver/Src/stm32l4xx_ll_usb.c **** }
 3843              		.loc 1 1503 1 view .LVU1225
 3844 000e C0F34140 		ubfx	r0, r0, #17, #2
 3845 0012 02B0     		add	sp, sp, #8
 3846              	.LCFI52:
 3847              		.cfi_def_cfa_offset 0
 3848              		@ sp needed
 3849 0014 7047     		bx	lr
 3850              		.cfi_endproc
 3851              	.LFE171:
 3853              		.section	.text.USB_GetCurrentFrame,"ax",%progbits
 3854              		.align	1
 3855              		.global	USB_GetCurrentFrame
 3856              		.syntax unified
 3857              		.thumb
 3858              		.thumb_func
 3859              		.fpu fpv4-sp-d16
 3861              	USB_GetCurrentFrame:
 3862              	.LVL300:
 3863              	.LFB172:
1504:../Drivers/STM32L4xx_HAL_Driver/Src/stm32l4xx_ll_usb.c **** 
1505:../Drivers/STM32L4xx_HAL_Driver/Src/stm32l4xx_ll_usb.c **** /**
1506:../Drivers/STM32L4xx_HAL_Driver/Src/stm32l4xx_ll_usb.c ****   * @brief  Return Host Current Frame number
1507:../Drivers/STM32L4xx_HAL_Driver/Src/stm32l4xx_ll_usb.c ****   * @param  USBx  Selected device
1508:../Drivers/STM32L4xx_HAL_Driver/Src/stm32l4xx_ll_usb.c ****   * @retval current frame number
1509:../Drivers/STM32L4xx_HAL_Driver/Src/stm32l4xx_ll_usb.c ****   */
1510:../Drivers/STM32L4xx_HAL_Driver/Src/stm32l4xx_ll_usb.c **** uint32_t USB_GetCurrentFrame(USB_OTG_GlobalTypeDef *USBx)
1511:../Drivers/STM32L4xx_HAL_Driver/Src/stm32l4xx_ll_usb.c **** {
 3864              		.loc 1 1511 1 is_stmt 1 view -0
 3865              		.cfi_startproc
 3866              		@ args = 0, pretend = 0, frame = 0
 3867              		@ frame_needed = 0, uses_anonymous_args = 0
 3868              		@ link register save eliminated.
1512:../Drivers/STM32L4xx_HAL_Driver/Src/stm32l4xx_ll_usb.c ****   uint32_t USBx_BASE = (uint32_t)USBx;
 3869              		.loc 1 1512 3 view .LVU1227
1513:../Drivers/STM32L4xx_HAL_Driver/Src/stm32l4xx_ll_usb.c **** 
1514:../Drivers/STM32L4xx_HAL_Driver/Src/stm32l4xx_ll_usb.c ****   return (USBx_HOST->HFNUM & USB_OTG_HFNUM_FRNUM);
 3870              		.loc 1 1514 3 view .LVU1228
 3871              		.loc 1 1514 11 is_stmt 0 view .LVU1229
 3872 0000 00F58060 		add	r0, r0, #1024
 3873              	.LVL301:
ARM GAS  /tmp/ccJzOZLR.s 			page 113


 3874              		.loc 1 1514 20 view .LVU1230
 3875 0004 8068     		ldr	r0, [r0, #8]
 3876              	.LVL302:
1515:../Drivers/STM32L4xx_HAL_Driver/Src/stm32l4xx_ll_usb.c **** }
 3877              		.loc 1 1515 1 view .LVU1231
 3878 0006 80B2     		uxth	r0, r0
 3879 0008 7047     		bx	lr
 3880              		.cfi_endproc
 3881              	.LFE172:
 3883              		.section	.text.USB_HC_Init,"ax",%progbits
 3884              		.align	1
 3885              		.global	USB_HC_Init
 3886              		.syntax unified
 3887              		.thumb
 3888              		.thumb_func
 3889              		.fpu fpv4-sp-d16
 3891              	USB_HC_Init:
 3892              	.LVL303:
 3893              	.LFB173:
1516:../Drivers/STM32L4xx_HAL_Driver/Src/stm32l4xx_ll_usb.c **** 
1517:../Drivers/STM32L4xx_HAL_Driver/Src/stm32l4xx_ll_usb.c **** /**
1518:../Drivers/STM32L4xx_HAL_Driver/Src/stm32l4xx_ll_usb.c ****   * @brief  Initialize a host channel
1519:../Drivers/STM32L4xx_HAL_Driver/Src/stm32l4xx_ll_usb.c ****   * @param  USBx  Selected device
1520:../Drivers/STM32L4xx_HAL_Driver/Src/stm32l4xx_ll_usb.c ****   * @param  ch_num  Channel number
1521:../Drivers/STM32L4xx_HAL_Driver/Src/stm32l4xx_ll_usb.c ****   *         This parameter can be a value from 1 to 15
1522:../Drivers/STM32L4xx_HAL_Driver/Src/stm32l4xx_ll_usb.c ****   * @param  epnum  Endpoint number
1523:../Drivers/STM32L4xx_HAL_Driver/Src/stm32l4xx_ll_usb.c ****   *          This parameter can be a value from 1 to 15
1524:../Drivers/STM32L4xx_HAL_Driver/Src/stm32l4xx_ll_usb.c ****   * @param  dev_address  Current device address
1525:../Drivers/STM32L4xx_HAL_Driver/Src/stm32l4xx_ll_usb.c ****   *          This parameter can be a value from 0 to 255
1526:../Drivers/STM32L4xx_HAL_Driver/Src/stm32l4xx_ll_usb.c ****   * @param  speed  Current device speed
1527:../Drivers/STM32L4xx_HAL_Driver/Src/stm32l4xx_ll_usb.c ****   *          This parameter can be one of these values:
1528:../Drivers/STM32L4xx_HAL_Driver/Src/stm32l4xx_ll_usb.c ****   *            @arg USB_OTG_SPEED_FULL: Full speed mode
1529:../Drivers/STM32L4xx_HAL_Driver/Src/stm32l4xx_ll_usb.c ****   *            @arg USB_OTG_SPEED_LOW: Low speed mode
1530:../Drivers/STM32L4xx_HAL_Driver/Src/stm32l4xx_ll_usb.c ****   * @param  ep_type  Endpoint Type
1531:../Drivers/STM32L4xx_HAL_Driver/Src/stm32l4xx_ll_usb.c ****   *          This parameter can be one of these values:
1532:../Drivers/STM32L4xx_HAL_Driver/Src/stm32l4xx_ll_usb.c ****   *            @arg EP_TYPE_CTRL: Control type
1533:../Drivers/STM32L4xx_HAL_Driver/Src/stm32l4xx_ll_usb.c ****   *            @arg EP_TYPE_ISOC: Isochronous type
1534:../Drivers/STM32L4xx_HAL_Driver/Src/stm32l4xx_ll_usb.c ****   *            @arg EP_TYPE_BULK: Bulk type
1535:../Drivers/STM32L4xx_HAL_Driver/Src/stm32l4xx_ll_usb.c ****   *            @arg EP_TYPE_INTR: Interrupt type
1536:../Drivers/STM32L4xx_HAL_Driver/Src/stm32l4xx_ll_usb.c ****   * @param  mps  Max Packet Size
1537:../Drivers/STM32L4xx_HAL_Driver/Src/stm32l4xx_ll_usb.c ****   *          This parameter can be a value from 0 to 32K
1538:../Drivers/STM32L4xx_HAL_Driver/Src/stm32l4xx_ll_usb.c ****   * @retval HAL state
1539:../Drivers/STM32L4xx_HAL_Driver/Src/stm32l4xx_ll_usb.c ****   */
1540:../Drivers/STM32L4xx_HAL_Driver/Src/stm32l4xx_ll_usb.c **** HAL_StatusTypeDef USB_HC_Init(USB_OTG_GlobalTypeDef *USBx, uint8_t ch_num,
1541:../Drivers/STM32L4xx_HAL_Driver/Src/stm32l4xx_ll_usb.c ****                               uint8_t epnum, uint8_t dev_address, uint8_t speed,
1542:../Drivers/STM32L4xx_HAL_Driver/Src/stm32l4xx_ll_usb.c ****                               uint8_t ep_type, uint16_t mps)
1543:../Drivers/STM32L4xx_HAL_Driver/Src/stm32l4xx_ll_usb.c **** {
 3894              		.loc 1 1543 1 is_stmt 1 view -0
 3895              		.cfi_startproc
 3896              		@ args = 12, pretend = 0, frame = 0
 3897              		@ frame_needed = 0, uses_anonymous_args = 0
 3898              		.loc 1 1543 1 is_stmt 0 view .LVU1233
 3899 0000 2DE9F843 		push	{r3, r4, r5, r6, r7, r8, r9, lr}
 3900              	.LCFI53:
 3901              		.cfi_def_cfa_offset 32
 3902              		.cfi_offset 3, -32
 3903              		.cfi_offset 4, -28
ARM GAS  /tmp/ccJzOZLR.s 			page 114


 3904              		.cfi_offset 5, -24
 3905              		.cfi_offset 6, -20
 3906              		.cfi_offset 7, -16
 3907              		.cfi_offset 8, -12
 3908              		.cfi_offset 9, -8
 3909              		.cfi_offset 14, -4
 3910 0004 9146     		mov	r9, r2
 3911 0006 1C46     		mov	r4, r3
 3912 0008 9DF82450 		ldrb	r5, [sp, #36]	@ zero_extendqisi2
1544:../Drivers/STM32L4xx_HAL_Driver/Src/stm32l4xx_ll_usb.c ****   HAL_StatusTypeDef ret = HAL_OK;
 3913              		.loc 1 1544 3 is_stmt 1 view .LVU1234
 3914              	.LVL304:
1545:../Drivers/STM32L4xx_HAL_Driver/Src/stm32l4xx_ll_usb.c ****   uint32_t USBx_BASE = (uint32_t)USBx;
 3915              		.loc 1 1545 3 view .LVU1235
1546:../Drivers/STM32L4xx_HAL_Driver/Src/stm32l4xx_ll_usb.c ****   uint32_t HCcharEpDir;
 3916              		.loc 1 1546 3 view .LVU1236
1547:../Drivers/STM32L4xx_HAL_Driver/Src/stm32l4xx_ll_usb.c ****   uint32_t HCcharLowSpeed;
 3917              		.loc 1 1547 3 view .LVU1237
1548:../Drivers/STM32L4xx_HAL_Driver/Src/stm32l4xx_ll_usb.c ****   uint32_t HostCoreSpeed;
 3918              		.loc 1 1548 3 view .LVU1238
1549:../Drivers/STM32L4xx_HAL_Driver/Src/stm32l4xx_ll_usb.c **** 
1550:../Drivers/STM32L4xx_HAL_Driver/Src/stm32l4xx_ll_usb.c ****   /* Clear old interrupt conditions for this host channel. */
1551:../Drivers/STM32L4xx_HAL_Driver/Src/stm32l4xx_ll_usb.c ****   USBx_HC((uint32_t)ch_num)->HCINT = 0xFFFFFFFFU;
 3919              		.loc 1 1551 3 view .LVU1239
 3920 000c 00EB4116 		add	r6, r0, r1, lsl #5
 3921 0010 06F5A063 		add	r3, r6, #1280
 3922              	.LVL305:
 3923              		.loc 1 1551 36 is_stmt 0 view .LVU1240
 3924 0014 4FF0FF32 		mov	r2, #-1
 3925              	.LVL306:
 3926              		.loc 1 1551 36 view .LVU1241
 3927 0018 9A60     		str	r2, [r3, #8]
1552:../Drivers/STM32L4xx_HAL_Driver/Src/stm32l4xx_ll_usb.c **** 
1553:../Drivers/STM32L4xx_HAL_Driver/Src/stm32l4xx_ll_usb.c ****   /* Enable channel interrupts required for this transfer. */
1554:../Drivers/STM32L4xx_HAL_Driver/Src/stm32l4xx_ll_usb.c ****   switch (ep_type)
 3928              		.loc 1 1554 3 is_stmt 1 view .LVU1242
 3929 001a 032D     		cmp	r5, #3
 3930 001c 6ED8     		bhi	.L246
 3931 001e DFE805F0 		tbb	[pc, r5]
 3932              	.L239:
 3933 0022 02       		.byte	(.L240-.L239)/2
 3934 0023 5F       		.byte	(.L241-.L239)/2
 3935 0024 02       		.byte	(.L240-.L239)/2
 3936 0025 51       		.byte	(.L238-.L239)/2
 3937              		.p2align 1
 3938              	.L240:
1555:../Drivers/STM32L4xx_HAL_Driver/Src/stm32l4xx_ll_usb.c ****   {
1556:../Drivers/STM32L4xx_HAL_Driver/Src/stm32l4xx_ll_usb.c ****     case EP_TYPE_CTRL:
1557:../Drivers/STM32L4xx_HAL_Driver/Src/stm32l4xx_ll_usb.c ****     case EP_TYPE_BULK:
1558:../Drivers/STM32L4xx_HAL_Driver/Src/stm32l4xx_ll_usb.c ****       USBx_HC((uint32_t)ch_num)->HCINTMSK = USB_OTG_HCINTMSK_XFRCM  |
 3939              		.loc 1 1558 7 view .LVU1243
 3940              		.loc 1 1558 43 is_stmt 0 view .LVU1244
 3941 0026 40F29D42 		movw	r2, #1181
 3942 002a DA60     		str	r2, [r3, #12]
1559:../Drivers/STM32L4xx_HAL_Driver/Src/stm32l4xx_ll_usb.c ****                                             USB_OTG_HCINTMSK_STALLM |
1560:../Drivers/STM32L4xx_HAL_Driver/Src/stm32l4xx_ll_usb.c ****                                             USB_OTG_HCINTMSK_TXERRM |
1561:../Drivers/STM32L4xx_HAL_Driver/Src/stm32l4xx_ll_usb.c ****                                             USB_OTG_HCINTMSK_DTERRM |
ARM GAS  /tmp/ccJzOZLR.s 			page 115


1562:../Drivers/STM32L4xx_HAL_Driver/Src/stm32l4xx_ll_usb.c ****                                             USB_OTG_HCINTMSK_AHBERR |
1563:../Drivers/STM32L4xx_HAL_Driver/Src/stm32l4xx_ll_usb.c ****                                             USB_OTG_HCINTMSK_NAKM;
1564:../Drivers/STM32L4xx_HAL_Driver/Src/stm32l4xx_ll_usb.c **** 
1565:../Drivers/STM32L4xx_HAL_Driver/Src/stm32l4xx_ll_usb.c ****       if ((epnum & 0x80U) == 0x80U)
 3943              		.loc 1 1565 7 is_stmt 1 view .LVU1245
 3944              		.loc 1 1565 10 is_stmt 0 view .LVU1246
 3945 002c 19F0800F 		tst	r9, #128
 3946 0030 42D1     		bne	.L254
1544:../Drivers/STM32L4xx_HAL_Driver/Src/stm32l4xx_ll_usb.c ****   uint32_t USBx_BASE = (uint32_t)USBx;
 3947              		.loc 1 1544 21 view .LVU1247
 3948 0032 0027     		movs	r7, #0
 3949              	.L237:
 3950              	.LVL307:
1566:../Drivers/STM32L4xx_HAL_Driver/Src/stm32l4xx_ll_usb.c ****       {
1567:../Drivers/STM32L4xx_HAL_Driver/Src/stm32l4xx_ll_usb.c ****         USBx_HC((uint32_t)ch_num)->HCINTMSK |= USB_OTG_HCINTMSK_BBERRM;
1568:../Drivers/STM32L4xx_HAL_Driver/Src/stm32l4xx_ll_usb.c ****       }
1569:../Drivers/STM32L4xx_HAL_Driver/Src/stm32l4xx_ll_usb.c ****       break;
1570:../Drivers/STM32L4xx_HAL_Driver/Src/stm32l4xx_ll_usb.c **** 
1571:../Drivers/STM32L4xx_HAL_Driver/Src/stm32l4xx_ll_usb.c ****     case EP_TYPE_INTR:
1572:../Drivers/STM32L4xx_HAL_Driver/Src/stm32l4xx_ll_usb.c ****       USBx_HC((uint32_t)ch_num)->HCINTMSK = USB_OTG_HCINTMSK_XFRCM  |
1573:../Drivers/STM32L4xx_HAL_Driver/Src/stm32l4xx_ll_usb.c ****                                             USB_OTG_HCINTMSK_STALLM |
1574:../Drivers/STM32L4xx_HAL_Driver/Src/stm32l4xx_ll_usb.c ****                                             USB_OTG_HCINTMSK_TXERRM |
1575:../Drivers/STM32L4xx_HAL_Driver/Src/stm32l4xx_ll_usb.c ****                                             USB_OTG_HCINTMSK_DTERRM |
1576:../Drivers/STM32L4xx_HAL_Driver/Src/stm32l4xx_ll_usb.c ****                                             USB_OTG_HCINTMSK_NAKM   |
1577:../Drivers/STM32L4xx_HAL_Driver/Src/stm32l4xx_ll_usb.c ****                                             USB_OTG_HCINTMSK_AHBERR |
1578:../Drivers/STM32L4xx_HAL_Driver/Src/stm32l4xx_ll_usb.c ****                                             USB_OTG_HCINTMSK_FRMORM;
1579:../Drivers/STM32L4xx_HAL_Driver/Src/stm32l4xx_ll_usb.c **** 
1580:../Drivers/STM32L4xx_HAL_Driver/Src/stm32l4xx_ll_usb.c ****       if ((epnum & 0x80U) == 0x80U)
1581:../Drivers/STM32L4xx_HAL_Driver/Src/stm32l4xx_ll_usb.c ****       {
1582:../Drivers/STM32L4xx_HAL_Driver/Src/stm32l4xx_ll_usb.c ****         USBx_HC((uint32_t)ch_num)->HCINTMSK |= USB_OTG_HCINTMSK_BBERRM;
1583:../Drivers/STM32L4xx_HAL_Driver/Src/stm32l4xx_ll_usb.c ****       }
1584:../Drivers/STM32L4xx_HAL_Driver/Src/stm32l4xx_ll_usb.c **** 
1585:../Drivers/STM32L4xx_HAL_Driver/Src/stm32l4xx_ll_usb.c ****       break;
1586:../Drivers/STM32L4xx_HAL_Driver/Src/stm32l4xx_ll_usb.c **** 
1587:../Drivers/STM32L4xx_HAL_Driver/Src/stm32l4xx_ll_usb.c ****     case EP_TYPE_ISOC:
1588:../Drivers/STM32L4xx_HAL_Driver/Src/stm32l4xx_ll_usb.c ****       USBx_HC((uint32_t)ch_num)->HCINTMSK = USB_OTG_HCINTMSK_XFRCM  |
1589:../Drivers/STM32L4xx_HAL_Driver/Src/stm32l4xx_ll_usb.c ****                                             USB_OTG_HCINTMSK_ACKM   |
1590:../Drivers/STM32L4xx_HAL_Driver/Src/stm32l4xx_ll_usb.c ****                                             USB_OTG_HCINTMSK_AHBERR |
1591:../Drivers/STM32L4xx_HAL_Driver/Src/stm32l4xx_ll_usb.c ****                                             USB_OTG_HCINTMSK_FRMORM;
1592:../Drivers/STM32L4xx_HAL_Driver/Src/stm32l4xx_ll_usb.c **** 
1593:../Drivers/STM32L4xx_HAL_Driver/Src/stm32l4xx_ll_usb.c ****       if ((epnum & 0x80U) == 0x80U)
1594:../Drivers/STM32L4xx_HAL_Driver/Src/stm32l4xx_ll_usb.c ****       {
1595:../Drivers/STM32L4xx_HAL_Driver/Src/stm32l4xx_ll_usb.c ****         USBx_HC((uint32_t)ch_num)->HCINTMSK |= (USB_OTG_HCINTMSK_TXERRM | USB_OTG_HCINTMSK_BBERRM);
1596:../Drivers/STM32L4xx_HAL_Driver/Src/stm32l4xx_ll_usb.c ****       }
1597:../Drivers/STM32L4xx_HAL_Driver/Src/stm32l4xx_ll_usb.c ****       break;
1598:../Drivers/STM32L4xx_HAL_Driver/Src/stm32l4xx_ll_usb.c **** 
1599:../Drivers/STM32L4xx_HAL_Driver/Src/stm32l4xx_ll_usb.c ****     default:
1600:../Drivers/STM32L4xx_HAL_Driver/Src/stm32l4xx_ll_usb.c ****       ret = HAL_ERROR;
1601:../Drivers/STM32L4xx_HAL_Driver/Src/stm32l4xx_ll_usb.c ****       break;
1602:../Drivers/STM32L4xx_HAL_Driver/Src/stm32l4xx_ll_usb.c ****   }
1603:../Drivers/STM32L4xx_HAL_Driver/Src/stm32l4xx_ll_usb.c **** 
1604:../Drivers/STM32L4xx_HAL_Driver/Src/stm32l4xx_ll_usb.c ****   /* Enable host channel Halt interrupt */
1605:../Drivers/STM32L4xx_HAL_Driver/Src/stm32l4xx_ll_usb.c ****   USBx_HC((uint32_t)ch_num)->HCINTMSK |= USB_OTG_HCINTMSK_CHHM;
 3951              		.loc 1 1605 3 is_stmt 1 view .LVU1248
 3952              		.loc 1 1605 39 is_stmt 0 view .LVU1249
 3953 0034 DA68     		ldr	r2, [r3, #12]
 3954 0036 42F00202 		orr	r2, r2, #2
ARM GAS  /tmp/ccJzOZLR.s 			page 116


 3955 003a DA60     		str	r2, [r3, #12]
1606:../Drivers/STM32L4xx_HAL_Driver/Src/stm32l4xx_ll_usb.c **** 
1607:../Drivers/STM32L4xx_HAL_Driver/Src/stm32l4xx_ll_usb.c ****   /* Enable the top level host channel interrupt. */
1608:../Drivers/STM32L4xx_HAL_Driver/Src/stm32l4xx_ll_usb.c ****   USBx_HOST->HAINTMSK |= 1UL << (ch_num & 0xFU);
 3956              		.loc 1 1608 3 is_stmt 1 view .LVU1250
 3957              		.loc 1 1608 23 is_stmt 0 view .LVU1251
 3958 003c D0F81834 		ldr	r3, [r0, #1048]
 3959              		.loc 1 1608 41 view .LVU1252
 3960 0040 01F00F01 		and	r1, r1, #15
 3961              	.LVL308:
 3962              		.loc 1 1608 30 view .LVU1253
 3963 0044 0122     		movs	r2, #1
 3964 0046 02FA01F1 		lsl	r1, r2, r1
 3965              		.loc 1 1608 23 view .LVU1254
 3966 004a 1943     		orrs	r1, r1, r3
 3967 004c C0F81814 		str	r1, [r0, #1048]
1609:../Drivers/STM32L4xx_HAL_Driver/Src/stm32l4xx_ll_usb.c **** 
1610:../Drivers/STM32L4xx_HAL_Driver/Src/stm32l4xx_ll_usb.c ****   /* Make sure host channel interrupts are enabled. */
1611:../Drivers/STM32L4xx_HAL_Driver/Src/stm32l4xx_ll_usb.c ****   USBx->GINTMSK |= USB_OTG_GINTMSK_HCIM;
 3968              		.loc 1 1611 3 is_stmt 1 view .LVU1255
 3969              		.loc 1 1611 17 is_stmt 0 view .LVU1256
 3970 0050 8369     		ldr	r3, [r0, #24]
 3971 0052 43F00073 		orr	r3, r3, #33554432
 3972 0056 8361     		str	r3, [r0, #24]
1612:../Drivers/STM32L4xx_HAL_Driver/Src/stm32l4xx_ll_usb.c **** 
1613:../Drivers/STM32L4xx_HAL_Driver/Src/stm32l4xx_ll_usb.c ****   /* Program the HCCHAR register */
1614:../Drivers/STM32L4xx_HAL_Driver/Src/stm32l4xx_ll_usb.c ****   if ((epnum & 0x80U) == 0x80U)
 3973              		.loc 1 1614 3 is_stmt 1 view .LVU1257
 3974              		.loc 1 1614 6 is_stmt 0 view .LVU1258
 3975 0058 19F0800F 		tst	r9, #128
 3976 005c 50D1     		bne	.L255
1615:../Drivers/STM32L4xx_HAL_Driver/Src/stm32l4xx_ll_usb.c ****   {
1616:../Drivers/STM32L4xx_HAL_Driver/Src/stm32l4xx_ll_usb.c ****     HCcharEpDir = (0x1U << 15) & USB_OTG_HCCHAR_EPDIR;
1617:../Drivers/STM32L4xx_HAL_Driver/Src/stm32l4xx_ll_usb.c ****   }
1618:../Drivers/STM32L4xx_HAL_Driver/Src/stm32l4xx_ll_usb.c ****   else
1619:../Drivers/STM32L4xx_HAL_Driver/Src/stm32l4xx_ll_usb.c ****   {
1620:../Drivers/STM32L4xx_HAL_Driver/Src/stm32l4xx_ll_usb.c ****     HCcharEpDir = 0U;
 3977              		.loc 1 1620 17 view .LVU1259
 3978 005e 4FF00008 		mov	r8, #0
 3979              	.L242:
 3980              	.LVL309:
1621:../Drivers/STM32L4xx_HAL_Driver/Src/stm32l4xx_ll_usb.c ****   }
1622:../Drivers/STM32L4xx_HAL_Driver/Src/stm32l4xx_ll_usb.c **** 
1623:../Drivers/STM32L4xx_HAL_Driver/Src/stm32l4xx_ll_usb.c ****   HostCoreSpeed = USB_GetHostSpeed(USBx);
 3981              		.loc 1 1623 3 is_stmt 1 view .LVU1260
 3982              		.loc 1 1623 19 is_stmt 0 view .LVU1261
 3983 0062 FFF7FEFF 		bl	USB_GetHostSpeed
 3984              	.LVL310:
1624:../Drivers/STM32L4xx_HAL_Driver/Src/stm32l4xx_ll_usb.c **** 
1625:../Drivers/STM32L4xx_HAL_Driver/Src/stm32l4xx_ll_usb.c ****   /* LS device plugged to HUB */
1626:../Drivers/STM32L4xx_HAL_Driver/Src/stm32l4xx_ll_usb.c ****   if ((speed == HPRT0_PRTSPD_LOW_SPEED) && (HostCoreSpeed != HPRT0_PRTSPD_LOW_SPEED))
 3985              		.loc 1 1626 3 is_stmt 1 view .LVU1262
 3986              		.loc 1 1626 6 is_stmt 0 view .LVU1263
 3987 0066 9DF82030 		ldrb	r3, [sp, #32]	@ zero_extendqisi2
 3988 006a 022B     		cmp	r3, #2
 3989 006c 4BD0     		beq	.L256
1627:../Drivers/STM32L4xx_HAL_Driver/Src/stm32l4xx_ll_usb.c ****   {
ARM GAS  /tmp/ccJzOZLR.s 			page 117


1628:../Drivers/STM32L4xx_HAL_Driver/Src/stm32l4xx_ll_usb.c ****     HCcharLowSpeed = (0x1U << 17) & USB_OTG_HCCHAR_LSDEV;
1629:../Drivers/STM32L4xx_HAL_Driver/Src/stm32l4xx_ll_usb.c ****   }
1630:../Drivers/STM32L4xx_HAL_Driver/Src/stm32l4xx_ll_usb.c ****   else
1631:../Drivers/STM32L4xx_HAL_Driver/Src/stm32l4xx_ll_usb.c ****   {
1632:../Drivers/STM32L4xx_HAL_Driver/Src/stm32l4xx_ll_usb.c ****     HCcharLowSpeed = 0U;
 3990              		.loc 1 1632 20 view .LVU1264
 3991 006e 0021     		movs	r1, #0
 3992              	.L243:
 3993              	.LVL311:
1633:../Drivers/STM32L4xx_HAL_Driver/Src/stm32l4xx_ll_usb.c ****   }
1634:../Drivers/STM32L4xx_HAL_Driver/Src/stm32l4xx_ll_usb.c **** 
1635:../Drivers/STM32L4xx_HAL_Driver/Src/stm32l4xx_ll_usb.c ****   USBx_HC((uint32_t)ch_num)->HCCHAR = (((uint32_t)dev_address << 22) & USB_OTG_HCCHAR_DAD) |
 3994              		.loc 1 1635 3 is_stmt 1 view .LVU1265
 3995              		.loc 1 1635 63 is_stmt 0 view .LVU1266
 3996 0070 A305     		lsls	r3, r4, #22
 3997              		.loc 1 1635 70 view .LVU1267
 3998 0072 03F0FE53 		and	r3, r3, #532676608
1636:../Drivers/STM32L4xx_HAL_Driver/Src/stm32l4xx_ll_usb.c ****                                       ((((uint32_t)epnum & 0x7FU) << 11) & USB_OTG_HCCHAR_EPNUM) |
 3999              		.loc 1 1636 67 view .LVU1268
 4000 0076 4FEAC929 		lsl	r9, r9, #11
 4001              		.loc 1 1636 74 view .LVU1269
 4002 007a 09F4F049 		and	r9, r9, #30720
1635:../Drivers/STM32L4xx_HAL_Driver/Src/stm32l4xx_ll_usb.c ****                                       ((((uint32_t)epnum & 0x7FU) << 11) & USB_OTG_HCCHAR_EPNUM) |
 4003              		.loc 1 1635 92 view .LVU1270
 4004 007e 43EA0903 		orr	r3, r3, r9
1637:../Drivers/STM32L4xx_HAL_Driver/Src/stm32l4xx_ll_usb.c ****                                       (((uint32_t)ep_type << 18) & USB_OTG_HCCHAR_EPTYP) |
 4005              		.loc 1 1637 59 view .LVU1271
 4006 0082 AC04     		lsls	r4, r5, #18
 4007              		.loc 1 1637 66 view .LVU1272
 4008 0084 04F44024 		and	r4, r4, #786432
1636:../Drivers/STM32L4xx_HAL_Driver/Src/stm32l4xx_ll_usb.c ****                                       ((((uint32_t)epnum & 0x7FU) << 11) & USB_OTG_HCCHAR_EPNUM) |
 4009              		.loc 1 1636 98 view .LVU1273
 4010 0088 2343     		orrs	r3, r3, r4
1638:../Drivers/STM32L4xx_HAL_Driver/Src/stm32l4xx_ll_usb.c ****                                       ((uint32_t)mps & USB_OTG_HCCHAR_MPSIZ) | HCcharEpDir | HCchar
 4011              		.loc 1 1638 54 view .LVU1274
 4012 008a BDF82820 		ldrh	r2, [sp, #40]
 4013 008e C2F30A02 		ubfx	r2, r2, #0, #11
1637:../Drivers/STM32L4xx_HAL_Driver/Src/stm32l4xx_ll_usb.c ****                                       (((uint32_t)ep_type << 18) & USB_OTG_HCCHAR_EPTYP) |
 4014              		.loc 1 1637 90 view .LVU1275
 4015 0092 1343     		orrs	r3, r3, r2
 4016              		.loc 1 1638 78 view .LVU1276
 4017 0094 43EA0803 		orr	r3, r3, r8
 4018              		.loc 1 1638 92 view .LVU1277
 4019 0098 0B43     		orrs	r3, r3, r1
1635:../Drivers/STM32L4xx_HAL_Driver/Src/stm32l4xx_ll_usb.c ****                                       ((((uint32_t)epnum & 0x7FU) << 11) & USB_OTG_HCCHAR_EPNUM) |
 4020              		.loc 1 1635 37 view .LVU1278
 4021 009a C6F80035 		str	r3, [r6, #1280]
1639:../Drivers/STM32L4xx_HAL_Driver/Src/stm32l4xx_ll_usb.c **** 
1640:../Drivers/STM32L4xx_HAL_Driver/Src/stm32l4xx_ll_usb.c ****   if ((ep_type == EP_TYPE_INTR) || (ep_type == EP_TYPE_ISOC))
 4022              		.loc 1 1640 3 is_stmt 1 view .LVU1279
 4023              		.loc 1 1640 6 is_stmt 0 view .LVU1280
 4024 009e 032D     		cmp	r5, #3
 4025 00a0 01D0     		beq	.L244
 4026              		.loc 1 1640 33 discriminator 1 view .LVU1281
 4027 00a2 012D     		cmp	r5, #1
 4028 00a4 05D1     		bne	.L245
 4029              	.L244:
ARM GAS  /tmp/ccJzOZLR.s 			page 118


1641:../Drivers/STM32L4xx_HAL_Driver/Src/stm32l4xx_ll_usb.c ****   {
1642:../Drivers/STM32L4xx_HAL_Driver/Src/stm32l4xx_ll_usb.c ****     USBx_HC((uint32_t)ch_num)->HCCHAR |= USB_OTG_HCCHAR_ODDFRM;
 4030              		.loc 1 1642 5 is_stmt 1 view .LVU1282
 4031              		.loc 1 1642 39 is_stmt 0 view .LVU1283
 4032 00a6 D6F80035 		ldr	r3, [r6, #1280]
 4033 00aa 43F00053 		orr	r3, r3, #536870912
 4034 00ae C6F80035 		str	r3, [r6, #1280]
 4035              	.L245:
1643:../Drivers/STM32L4xx_HAL_Driver/Src/stm32l4xx_ll_usb.c ****   }
1644:../Drivers/STM32L4xx_HAL_Driver/Src/stm32l4xx_ll_usb.c **** 
1645:../Drivers/STM32L4xx_HAL_Driver/Src/stm32l4xx_ll_usb.c ****   return ret;
 4036              		.loc 1 1645 3 is_stmt 1 view .LVU1284
1646:../Drivers/STM32L4xx_HAL_Driver/Src/stm32l4xx_ll_usb.c **** }
 4037              		.loc 1 1646 1 is_stmt 0 view .LVU1285
 4038 00b2 3846     		mov	r0, r7
 4039              	.LVL312:
 4040              		.loc 1 1646 1 view .LVU1286
 4041 00b4 BDE8F883 		pop	{r3, r4, r5, r6, r7, r8, r9, pc}
 4042              	.LVL313:
 4043              	.L254:
1567:../Drivers/STM32L4xx_HAL_Driver/Src/stm32l4xx_ll_usb.c ****       }
 4044              		.loc 1 1567 9 is_stmt 1 view .LVU1287
1567:../Drivers/STM32L4xx_HAL_Driver/Src/stm32l4xx_ll_usb.c ****       }
 4045              		.loc 1 1567 45 is_stmt 0 view .LVU1288
 4046 00b8 DA68     		ldr	r2, [r3, #12]
 4047 00ba 42F48072 		orr	r2, r2, #256
 4048 00be DA60     		str	r2, [r3, #12]
1544:../Drivers/STM32L4xx_HAL_Driver/Src/stm32l4xx_ll_usb.c ****   uint32_t USBx_BASE = (uint32_t)USBx;
 4049              		.loc 1 1544 21 view .LVU1289
 4050 00c0 0027     		movs	r7, #0
 4051 00c2 B7E7     		b	.L237
 4052              	.L238:
1572:../Drivers/STM32L4xx_HAL_Driver/Src/stm32l4xx_ll_usb.c ****                                             USB_OTG_HCINTMSK_STALLM |
 4053              		.loc 1 1572 7 is_stmt 1 view .LVU1290
1572:../Drivers/STM32L4xx_HAL_Driver/Src/stm32l4xx_ll_usb.c ****                                             USB_OTG_HCINTMSK_STALLM |
 4054              		.loc 1 1572 43 is_stmt 0 view .LVU1291
 4055 00c4 40F29D62 		movw	r2, #1693
 4056 00c8 DA60     		str	r2, [r3, #12]
1580:../Drivers/STM32L4xx_HAL_Driver/Src/stm32l4xx_ll_usb.c ****       {
 4057              		.loc 1 1580 7 is_stmt 1 view .LVU1292
1580:../Drivers/STM32L4xx_HAL_Driver/Src/stm32l4xx_ll_usb.c ****       {
 4058              		.loc 1 1580 10 is_stmt 0 view .LVU1293
 4059 00ca 19F0800F 		tst	r9, #128
 4060 00ce 01D1     		bne	.L257
1544:../Drivers/STM32L4xx_HAL_Driver/Src/stm32l4xx_ll_usb.c ****   uint32_t USBx_BASE = (uint32_t)USBx;
 4061              		.loc 1 1544 21 view .LVU1294
 4062 00d0 0027     		movs	r7, #0
 4063 00d2 AFE7     		b	.L237
 4064              	.L257:
1582:../Drivers/STM32L4xx_HAL_Driver/Src/stm32l4xx_ll_usb.c ****       }
 4065              		.loc 1 1582 9 is_stmt 1 view .LVU1295
1582:../Drivers/STM32L4xx_HAL_Driver/Src/stm32l4xx_ll_usb.c ****       }
 4066              		.loc 1 1582 45 is_stmt 0 view .LVU1296
 4067 00d4 DA68     		ldr	r2, [r3, #12]
 4068 00d6 42F48072 		orr	r2, r2, #256
 4069 00da DA60     		str	r2, [r3, #12]
1544:../Drivers/STM32L4xx_HAL_Driver/Src/stm32l4xx_ll_usb.c ****   uint32_t USBx_BASE = (uint32_t)USBx;
ARM GAS  /tmp/ccJzOZLR.s 			page 119


 4070              		.loc 1 1544 21 view .LVU1297
 4071 00dc 0027     		movs	r7, #0
 4072 00de A9E7     		b	.L237
 4073              	.L241:
1588:../Drivers/STM32L4xx_HAL_Driver/Src/stm32l4xx_ll_usb.c ****                                             USB_OTG_HCINTMSK_ACKM   |
 4074              		.loc 1 1588 7 is_stmt 1 view .LVU1298
1588:../Drivers/STM32L4xx_HAL_Driver/Src/stm32l4xx_ll_usb.c ****                                             USB_OTG_HCINTMSK_ACKM   |
 4075              		.loc 1 1588 43 is_stmt 0 view .LVU1299
 4076 00e0 40F22522 		movw	r2, #549
 4077 00e4 DA60     		str	r2, [r3, #12]
1593:../Drivers/STM32L4xx_HAL_Driver/Src/stm32l4xx_ll_usb.c ****       {
 4078              		.loc 1 1593 7 is_stmt 1 view .LVU1300
1593:../Drivers/STM32L4xx_HAL_Driver/Src/stm32l4xx_ll_usb.c ****       {
 4079              		.loc 1 1593 10 is_stmt 0 view .LVU1301
 4080 00e6 19F0800F 		tst	r9, #128
 4081 00ea 01D1     		bne	.L258
1544:../Drivers/STM32L4xx_HAL_Driver/Src/stm32l4xx_ll_usb.c ****   uint32_t USBx_BASE = (uint32_t)USBx;
 4082              		.loc 1 1544 21 view .LVU1302
 4083 00ec 0027     		movs	r7, #0
 4084 00ee A1E7     		b	.L237
 4085              	.L258:
1595:../Drivers/STM32L4xx_HAL_Driver/Src/stm32l4xx_ll_usb.c ****       }
 4086              		.loc 1 1595 9 is_stmt 1 view .LVU1303
1595:../Drivers/STM32L4xx_HAL_Driver/Src/stm32l4xx_ll_usb.c ****       }
 4087              		.loc 1 1595 45 is_stmt 0 view .LVU1304
 4088 00f0 DA68     		ldr	r2, [r3, #12]
 4089 00f2 42F4C072 		orr	r2, r2, #384
 4090 00f6 DA60     		str	r2, [r3, #12]
1544:../Drivers/STM32L4xx_HAL_Driver/Src/stm32l4xx_ll_usb.c ****   uint32_t USBx_BASE = (uint32_t)USBx;
 4091              		.loc 1 1544 21 view .LVU1305
 4092 00f8 0027     		movs	r7, #0
 4093 00fa 9BE7     		b	.L237
 4094              	.L246:
1554:../Drivers/STM32L4xx_HAL_Driver/Src/stm32l4xx_ll_usb.c ****   {
 4095              		.loc 1 1554 3 view .LVU1306
 4096 00fc 0127     		movs	r7, #1
 4097 00fe 99E7     		b	.L237
 4098              	.LVL314:
 4099              	.L255:
1616:../Drivers/STM32L4xx_HAL_Driver/Src/stm32l4xx_ll_usb.c ****   }
 4100              		.loc 1 1616 17 view .LVU1307
 4101 0100 4FF40048 		mov	r8, #32768
 4102 0104 ADE7     		b	.L242
 4103              	.LVL315:
 4104              	.L256:
1626:../Drivers/STM32L4xx_HAL_Driver/Src/stm32l4xx_ll_usb.c ****   {
 4105              		.loc 1 1626 41 discriminator 1 view .LVU1308
 4106 0106 0228     		cmp	r0, #2
 4107 0108 02D0     		beq	.L259
1628:../Drivers/STM32L4xx_HAL_Driver/Src/stm32l4xx_ll_usb.c ****   }
 4108              		.loc 1 1628 20 view .LVU1309
 4109 010a 4FF40031 		mov	r1, #131072
 4110 010e AFE7     		b	.L243
 4111              	.L259:
1632:../Drivers/STM32L4xx_HAL_Driver/Src/stm32l4xx_ll_usb.c ****   }
 4112              		.loc 1 1632 20 view .LVU1310
 4113 0110 0021     		movs	r1, #0
ARM GAS  /tmp/ccJzOZLR.s 			page 120


 4114 0112 ADE7     		b	.L243
 4115              		.cfi_endproc
 4116              	.LFE173:
 4118              		.section	.text.USB_HC_StartXfer,"ax",%progbits
 4119              		.align	1
 4120              		.global	USB_HC_StartXfer
 4121              		.syntax unified
 4122              		.thumb
 4123              		.thumb_func
 4124              		.fpu fpv4-sp-d16
 4126              	USB_HC_StartXfer:
 4127              	.LVL316:
 4128              	.LFB174:
1647:../Drivers/STM32L4xx_HAL_Driver/Src/stm32l4xx_ll_usb.c **** 
1648:../Drivers/STM32L4xx_HAL_Driver/Src/stm32l4xx_ll_usb.c **** /**
1649:../Drivers/STM32L4xx_HAL_Driver/Src/stm32l4xx_ll_usb.c ****   * @brief  Start a transfer over a host channel
1650:../Drivers/STM32L4xx_HAL_Driver/Src/stm32l4xx_ll_usb.c ****   * @param  USBx  Selected device
1651:../Drivers/STM32L4xx_HAL_Driver/Src/stm32l4xx_ll_usb.c ****   * @param  hc  pointer to host channel structure
1652:../Drivers/STM32L4xx_HAL_Driver/Src/stm32l4xx_ll_usb.c ****   * @retval HAL state
1653:../Drivers/STM32L4xx_HAL_Driver/Src/stm32l4xx_ll_usb.c ****   */
1654:../Drivers/STM32L4xx_HAL_Driver/Src/stm32l4xx_ll_usb.c **** HAL_StatusTypeDef USB_HC_StartXfer(USB_OTG_GlobalTypeDef *USBx, USB_OTG_HCTypeDef *hc)
1655:../Drivers/STM32L4xx_HAL_Driver/Src/stm32l4xx_ll_usb.c **** {
 4129              		.loc 1 1655 1 is_stmt 1 view -0
 4130              		.cfi_startproc
 4131              		@ args = 0, pretend = 0, frame = 8
 4132              		@ frame_needed = 0, uses_anonymous_args = 0
 4133              		.loc 1 1655 1 is_stmt 0 view .LVU1312
 4134 0000 10B5     		push	{r4, lr}
 4135              	.LCFI54:
 4136              		.cfi_def_cfa_offset 8
 4137              		.cfi_offset 4, -8
 4138              		.cfi_offset 14, -4
 4139 0002 82B0     		sub	sp, sp, #8
 4140              	.LCFI55:
 4141              		.cfi_def_cfa_offset 16
1656:../Drivers/STM32L4xx_HAL_Driver/Src/stm32l4xx_ll_usb.c ****   uint32_t USBx_BASE = (uint32_t)USBx;
 4142              		.loc 1 1656 3 is_stmt 1 view .LVU1313
 4143              	.LVL317:
1657:../Drivers/STM32L4xx_HAL_Driver/Src/stm32l4xx_ll_usb.c ****   uint32_t ch_num = (uint32_t)hc->ch_num;
 4144              		.loc 1 1657 3 view .LVU1314
 4145              		.loc 1 1657 33 is_stmt 0 view .LVU1315
 4146 0004 4B78     		ldrb	r3, [r1, #1]	@ zero_extendqisi2
 4147              	.LVL318:
1658:../Drivers/STM32L4xx_HAL_Driver/Src/stm32l4xx_ll_usb.c ****   __IO uint32_t tmpreg;
 4148              		.loc 1 1658 3 is_stmt 1 view .LVU1316
1659:../Drivers/STM32L4xx_HAL_Driver/Src/stm32l4xx_ll_usb.c ****   uint8_t  is_oddframe;
 4149              		.loc 1 1659 3 view .LVU1317
1660:../Drivers/STM32L4xx_HAL_Driver/Src/stm32l4xx_ll_usb.c ****   uint16_t len_words;
 4150              		.loc 1 1660 3 view .LVU1318
1661:../Drivers/STM32L4xx_HAL_Driver/Src/stm32l4xx_ll_usb.c ****   uint16_t num_packets;
 4151              		.loc 1 1661 3 view .LVU1319
1662:../Drivers/STM32L4xx_HAL_Driver/Src/stm32l4xx_ll_usb.c ****   uint16_t max_hc_pkt_count = 256U;
 4152              		.loc 1 1662 3 view .LVU1320
1663:../Drivers/STM32L4xx_HAL_Driver/Src/stm32l4xx_ll_usb.c **** 
1664:../Drivers/STM32L4xx_HAL_Driver/Src/stm32l4xx_ll_usb.c ****   /* Compute the expected number of packets associated to the transfer */
1665:../Drivers/STM32L4xx_HAL_Driver/Src/stm32l4xx_ll_usb.c ****   if (hc->xfer_len > 0U)
 4153              		.loc 1 1665 3 view .LVU1321
ARM GAS  /tmp/ccJzOZLR.s 			page 121


 4154              		.loc 1 1665 9 is_stmt 0 view .LVU1322
 4155 0006 4A69     		ldr	r2, [r1, #20]
 4156              		.loc 1 1665 6 view .LVU1323
 4157 0008 82B1     		cbz	r2, .L271
1666:../Drivers/STM32L4xx_HAL_Driver/Src/stm32l4xx_ll_usb.c ****   {
1667:../Drivers/STM32L4xx_HAL_Driver/Src/stm32l4xx_ll_usb.c ****     num_packets = (uint16_t)((hc->xfer_len + hc->max_packet - 1U) / hc->max_packet);
 4158              		.loc 1 1667 5 is_stmt 1 view .LVU1324
 4159              		.loc 1 1667 48 is_stmt 0 view .LVU1325
 4160 000a 0C89     		ldrh	r4, [r1, #8]
 4161              		.loc 1 1667 44 view .LVU1326
 4162 000c 02EB040C 		add	ip, r2, r4
 4163              		.loc 1 1667 61 view .LVU1327
 4164 0010 0CF1FF3C 		add	ip, ip, #-1
 4165              		.loc 1 1667 67 view .LVU1328
 4166 0014 BCFBF4FC 		udiv	ip, ip, r4
 4167              		.loc 1 1667 17 view .LVU1329
 4168 0018 1FFA8CFC 		uxth	ip, ip
 4169              	.LVL319:
1668:../Drivers/STM32L4xx_HAL_Driver/Src/stm32l4xx_ll_usb.c **** 
1669:../Drivers/STM32L4xx_HAL_Driver/Src/stm32l4xx_ll_usb.c ****     if (num_packets > max_hc_pkt_count)
 4170              		.loc 1 1669 5 is_stmt 1 view .LVU1330
 4171              		.loc 1 1669 8 is_stmt 0 view .LVU1331
 4172 001c BCF5807F 		cmp	ip, #256
 4173 0020 06D9     		bls	.L261
1670:../Drivers/STM32L4xx_HAL_Driver/Src/stm32l4xx_ll_usb.c ****     {
1671:../Drivers/STM32L4xx_HAL_Driver/Src/stm32l4xx_ll_usb.c ****       num_packets = max_hc_pkt_count;
 4174              		.loc 1 1671 7 is_stmt 1 view .LVU1332
 4175              	.LVL320:
1672:../Drivers/STM32L4xx_HAL_Driver/Src/stm32l4xx_ll_usb.c ****       hc->XferSize = (uint32_t)num_packets * hc->max_packet;
 4176              		.loc 1 1672 7 view .LVU1333
 4177              		.loc 1 1672 44 is_stmt 0 view .LVU1334
 4178 0022 2402     		lsls	r4, r4, #8
 4179              		.loc 1 1672 20 view .LVU1335
 4180 0024 0C61     		str	r4, [r1, #16]
1671:../Drivers/STM32L4xx_HAL_Driver/Src/stm32l4xx_ll_usb.c ****       hc->XferSize = (uint32_t)num_packets * hc->max_packet;
 4181              		.loc 1 1671 19 view .LVU1336
 4182 0026 4FF4807C 		mov	ip, #256
 4183 002a 01E0     		b	.L261
 4184              	.LVL321:
 4185              	.L271:
1673:../Drivers/STM32L4xx_HAL_Driver/Src/stm32l4xx_ll_usb.c ****     }
1674:../Drivers/STM32L4xx_HAL_Driver/Src/stm32l4xx_ll_usb.c ****   }
1675:../Drivers/STM32L4xx_HAL_Driver/Src/stm32l4xx_ll_usb.c ****   else
1676:../Drivers/STM32L4xx_HAL_Driver/Src/stm32l4xx_ll_usb.c ****   {
1677:../Drivers/STM32L4xx_HAL_Driver/Src/stm32l4xx_ll_usb.c ****     num_packets = 1U;
 4186              		.loc 1 1677 17 view .LVU1337
 4187 002c 4FF0010C 		mov	ip, #1
 4188              	.L261:
 4189              	.LVL322:
1678:../Drivers/STM32L4xx_HAL_Driver/Src/stm32l4xx_ll_usb.c ****   }
1679:../Drivers/STM32L4xx_HAL_Driver/Src/stm32l4xx_ll_usb.c **** 
1680:../Drivers/STM32L4xx_HAL_Driver/Src/stm32l4xx_ll_usb.c ****   /*
1681:../Drivers/STM32L4xx_HAL_Driver/Src/stm32l4xx_ll_usb.c ****    * For IN channel HCTSIZ.XferSize is expected to be an integer multiple of
1682:../Drivers/STM32L4xx_HAL_Driver/Src/stm32l4xx_ll_usb.c ****    * max_packet size.
1683:../Drivers/STM32L4xx_HAL_Driver/Src/stm32l4xx_ll_usb.c ****    */
1684:../Drivers/STM32L4xx_HAL_Driver/Src/stm32l4xx_ll_usb.c ****   if (hc->ep_is_in != 0U)
 4190              		.loc 1 1684 3 is_stmt 1 view .LVU1338
ARM GAS  /tmp/ccJzOZLR.s 			page 122


 4191              		.loc 1 1684 9 is_stmt 0 view .LVU1339
 4192 0030 CC78     		ldrb	r4, [r1, #3]	@ zero_extendqisi2
 4193              		.loc 1 1684 6 view .LVU1340
 4194 0032 002C     		cmp	r4, #0
 4195 0034 4DD0     		beq	.L262
1685:../Drivers/STM32L4xx_HAL_Driver/Src/stm32l4xx_ll_usb.c ****   {
1686:../Drivers/STM32L4xx_HAL_Driver/Src/stm32l4xx_ll_usb.c ****     hc->XferSize = (uint32_t)num_packets * hc->max_packet;
 4196              		.loc 1 1686 5 is_stmt 1 view .LVU1341
 4197              		.loc 1 1686 46 is_stmt 0 view .LVU1342
 4198 0036 0A89     		ldrh	r2, [r1, #8]
 4199              		.loc 1 1686 42 view .LVU1343
 4200 0038 02FB0CF2 		mul	r2, r2, ip
 4201              		.loc 1 1686 18 view .LVU1344
 4202 003c 0A61     		str	r2, [r1, #16]
 4203              	.L263:
1687:../Drivers/STM32L4xx_HAL_Driver/Src/stm32l4xx_ll_usb.c ****   }
1688:../Drivers/STM32L4xx_HAL_Driver/Src/stm32l4xx_ll_usb.c ****   else
1689:../Drivers/STM32L4xx_HAL_Driver/Src/stm32l4xx_ll_usb.c ****   {
1690:../Drivers/STM32L4xx_HAL_Driver/Src/stm32l4xx_ll_usb.c ****     hc->XferSize = hc->xfer_len;
1691:../Drivers/STM32L4xx_HAL_Driver/Src/stm32l4xx_ll_usb.c ****   }
1692:../Drivers/STM32L4xx_HAL_Driver/Src/stm32l4xx_ll_usb.c **** 
1693:../Drivers/STM32L4xx_HAL_Driver/Src/stm32l4xx_ll_usb.c ****   /* Initialize the HCTSIZn register */
1694:../Drivers/STM32L4xx_HAL_Driver/Src/stm32l4xx_ll_usb.c ****   USBx_HC(ch_num)->HCTSIZ = (hc->XferSize & USB_OTG_HCTSIZ_XFRSIZ) |
 4204              		.loc 1 1694 3 is_stmt 1 view .LVU1345
 4205              		.loc 1 1694 32 is_stmt 0 view .LVU1346
 4206 003e 0A69     		ldr	r2, [r1, #16]
 4207              		.loc 1 1694 43 view .LVU1347
 4208 0040 C2F31202 		ubfx	r2, r2, #0, #19
1695:../Drivers/STM32L4xx_HAL_Driver/Src/stm32l4xx_ll_usb.c ****                             (((uint32_t)num_packets << 19) & USB_OTG_HCTSIZ_PKTCNT) |
 4209              		.loc 1 1695 60 view .LVU1348
 4210 0044 364C     		ldr	r4, .L273
 4211 0046 04EACC4C 		and	ip, r4, ip, lsl #19
 4212              	.LVL323:
1694:../Drivers/STM32L4xx_HAL_Driver/Src/stm32l4xx_ll_usb.c ****                             (((uint32_t)num_packets << 19) & USB_OTG_HCTSIZ_PKTCNT) |
 4213              		.loc 1 1694 68 view .LVU1349
 4214 004a 42EA0C02 		orr	r2, r2, ip
1696:../Drivers/STM32L4xx_HAL_Driver/Src/stm32l4xx_ll_usb.c ****                             (((uint32_t)hc->data_pid << 29) & USB_OTG_HCTSIZ_DPID);
 4215              		.loc 1 1696 43 view .LVU1350
 4216 004e 91F80AC0 		ldrb	ip, [r1, #10]	@ zero_extendqisi2
 4217              		.loc 1 1696 54 view .LVU1351
 4218 0052 4FEA4C7C 		lsl	ip, ip, #29
 4219              		.loc 1 1696 61 view .LVU1352
 4220 0056 0CF0C04C 		and	ip, ip, #1610612736
1694:../Drivers/STM32L4xx_HAL_Driver/Src/stm32l4xx_ll_usb.c ****                             (((uint32_t)num_packets << 19) & USB_OTG_HCTSIZ_PKTCNT) |
 4221              		.loc 1 1694 3 view .LVU1353
 4222 005a 00EB4313 		add	r3, r0, r3, lsl #5
 4223              	.LVL324:
1695:../Drivers/STM32L4xx_HAL_Driver/Src/stm32l4xx_ll_usb.c ****                             (((uint32_t)num_packets << 19) & USB_OTG_HCTSIZ_PKTCNT) |
 4224              		.loc 1 1695 85 view .LVU1354
 4225 005e 42EA0C02 		orr	r2, r2, ip
1694:../Drivers/STM32L4xx_HAL_Driver/Src/stm32l4xx_ll_usb.c ****                             (((uint32_t)num_packets << 19) & USB_OTG_HCTSIZ_PKTCNT) |
 4226              		.loc 1 1694 27 view .LVU1355
 4227 0062 C3F81025 		str	r2, [r3, #1296]
 4228              	.LVL325:
1697:../Drivers/STM32L4xx_HAL_Driver/Src/stm32l4xx_ll_usb.c **** 
1698:../Drivers/STM32L4xx_HAL_Driver/Src/stm32l4xx_ll_usb.c ****   is_oddframe = (((uint32_t)USBx_HOST->HFNUM & 0x01U) != 0U) ? 0U : 1U;
 4229              		.loc 1 1698 3 is_stmt 1 view .LVU1356
ARM GAS  /tmp/ccJzOZLR.s 			page 123


 4230              		.loc 1 1698 29 is_stmt 0 view .LVU1357
 4231 0066 00F5806C 		add	ip, r0, #1024
 4232              		.loc 1 1698 38 view .LVU1358
 4233 006a DCF80820 		ldr	r2, [ip, #8]
 4234              		.loc 1 1698 67 view .LVU1359
 4235 006e 12F0010F 		tst	r2, #1
 4236 0072 0CBF     		ite	eq
 4237 0074 4FF0010E 		moveq	lr, #1
 4238 0078 4FF0000E 		movne	lr, #0
 4239              	.LVL326:
1699:../Drivers/STM32L4xx_HAL_Driver/Src/stm32l4xx_ll_usb.c ****   USBx_HC(ch_num)->HCCHAR &= ~USB_OTG_HCCHAR_ODDFRM;
 4240              		.loc 1 1699 3 is_stmt 1 view .LVU1360
 4241              		.loc 1 1699 27 is_stmt 0 view .LVU1361
 4242 007c D3F80045 		ldr	r4, [r3, #1280]
 4243 0080 24F00054 		bic	r4, r4, #536870912
 4244 0084 C3F80045 		str	r4, [r3, #1280]
1700:../Drivers/STM32L4xx_HAL_Driver/Src/stm32l4xx_ll_usb.c ****   USBx_HC(ch_num)->HCCHAR |= (uint32_t)is_oddframe << 29;
 4245              		.loc 1 1700 3 is_stmt 1 view .LVU1362
 4246              		.loc 1 1700 27 is_stmt 0 view .LVU1363
 4247 0088 D3F80025 		ldr	r2, [r3, #1280]
 4248 008c 42EA4E72 		orr	r2, r2, lr, lsl #29
 4249 0090 C3F80025 		str	r2, [r3, #1280]
1701:../Drivers/STM32L4xx_HAL_Driver/Src/stm32l4xx_ll_usb.c **** 
1702:../Drivers/STM32L4xx_HAL_Driver/Src/stm32l4xx_ll_usb.c ****   /* Set host channel enable */
1703:../Drivers/STM32L4xx_HAL_Driver/Src/stm32l4xx_ll_usb.c ****   tmpreg = USBx_HC(ch_num)->HCCHAR;
 4250              		.loc 1 1703 3 is_stmt 1 view .LVU1364
 4251              		.loc 1 1703 27 is_stmt 0 view .LVU1365
 4252 0094 D3F80025 		ldr	r2, [r3, #1280]
 4253              		.loc 1 1703 10 view .LVU1366
 4254 0098 0192     		str	r2, [sp, #4]
1704:../Drivers/STM32L4xx_HAL_Driver/Src/stm32l4xx_ll_usb.c ****   tmpreg &= ~USB_OTG_HCCHAR_CHDIS;
 4255              		.loc 1 1704 3 is_stmt 1 view .LVU1367
 4256              		.loc 1 1704 10 is_stmt 0 view .LVU1368
 4257 009a 019A     		ldr	r2, [sp, #4]
 4258 009c 22F08042 		bic	r2, r2, #1073741824
 4259 00a0 0192     		str	r2, [sp, #4]
1705:../Drivers/STM32L4xx_HAL_Driver/Src/stm32l4xx_ll_usb.c **** 
1706:../Drivers/STM32L4xx_HAL_Driver/Src/stm32l4xx_ll_usb.c ****   /* make sure to set the correct ep direction */
1707:../Drivers/STM32L4xx_HAL_Driver/Src/stm32l4xx_ll_usb.c ****   if (hc->ep_is_in != 0U)
 4260              		.loc 1 1707 3 is_stmt 1 view .LVU1369
 4261              		.loc 1 1707 9 is_stmt 0 view .LVU1370
 4262 00a2 CA78     		ldrb	r2, [r1, #3]	@ zero_extendqisi2
 4263              		.loc 1 1707 6 view .LVU1371
 4264 00a4 BAB1     		cbz	r2, .L264
1708:../Drivers/STM32L4xx_HAL_Driver/Src/stm32l4xx_ll_usb.c ****   {
1709:../Drivers/STM32L4xx_HAL_Driver/Src/stm32l4xx_ll_usb.c ****     tmpreg |= USB_OTG_HCCHAR_EPDIR;
 4265              		.loc 1 1709 5 is_stmt 1 view .LVU1372
 4266              		.loc 1 1709 12 is_stmt 0 view .LVU1373
 4267 00a6 019A     		ldr	r2, [sp, #4]
 4268 00a8 42F40042 		orr	r2, r2, #32768
 4269 00ac 0192     		str	r2, [sp, #4]
 4270              	.L265:
1710:../Drivers/STM32L4xx_HAL_Driver/Src/stm32l4xx_ll_usb.c ****   }
1711:../Drivers/STM32L4xx_HAL_Driver/Src/stm32l4xx_ll_usb.c ****   else
1712:../Drivers/STM32L4xx_HAL_Driver/Src/stm32l4xx_ll_usb.c ****   {
1713:../Drivers/STM32L4xx_HAL_Driver/Src/stm32l4xx_ll_usb.c ****     tmpreg &= ~USB_OTG_HCCHAR_EPDIR;
1714:../Drivers/STM32L4xx_HAL_Driver/Src/stm32l4xx_ll_usb.c ****   }
ARM GAS  /tmp/ccJzOZLR.s 			page 124


1715:../Drivers/STM32L4xx_HAL_Driver/Src/stm32l4xx_ll_usb.c ****   tmpreg |= USB_OTG_HCCHAR_CHENA;
 4271              		.loc 1 1715 3 is_stmt 1 view .LVU1374
 4272              		.loc 1 1715 10 is_stmt 0 view .LVU1375
 4273 00ae 019A     		ldr	r2, [sp, #4]
 4274 00b0 42F00042 		orr	r2, r2, #-2147483648
 4275 00b4 0192     		str	r2, [sp, #4]
1716:../Drivers/STM32L4xx_HAL_Driver/Src/stm32l4xx_ll_usb.c ****   USBx_HC(ch_num)->HCCHAR = tmpreg;
 4276              		.loc 1 1716 3 is_stmt 1 view .LVU1376
 4277              		.loc 1 1716 27 is_stmt 0 view .LVU1377
 4278 00b6 019A     		ldr	r2, [sp, #4]
 4279 00b8 C3F80025 		str	r2, [r3, #1280]
1717:../Drivers/STM32L4xx_HAL_Driver/Src/stm32l4xx_ll_usb.c **** 
1718:../Drivers/STM32L4xx_HAL_Driver/Src/stm32l4xx_ll_usb.c ****   if ((hc->ep_is_in == 0U) && (hc->xfer_len > 0U))
 4280              		.loc 1 1718 3 is_stmt 1 view .LVU1378
 4281              		.loc 1 1718 10 is_stmt 0 view .LVU1379
 4282 00bc CB78     		ldrb	r3, [r1, #3]	@ zero_extendqisi2
 4283              		.loc 1 1718 6 view .LVU1380
 4284 00be FBB9     		cbnz	r3, .L266
 4285              		.loc 1 1718 34 discriminator 1 view .LVU1381
 4286 00c0 4B69     		ldr	r3, [r1, #20]
 4287              		.loc 1 1718 28 discriminator 1 view .LVU1382
 4288 00c2 EBB1     		cbz	r3, .L266
1719:../Drivers/STM32L4xx_HAL_Driver/Src/stm32l4xx_ll_usb.c ****   {
1720:../Drivers/STM32L4xx_HAL_Driver/Src/stm32l4xx_ll_usb.c ****     switch (hc->ep_type)
 4289              		.loc 1 1720 5 is_stmt 1 view .LVU1383
 4290              		.loc 1 1720 15 is_stmt 0 view .LVU1384
 4291 00c4 CA79     		ldrb	r2, [r1, #7]	@ zero_extendqisi2
 4292              		.loc 1 1720 5 view .LVU1385
 4293 00c6 032A     		cmp	r2, #3
 4294 00c8 15D8     		bhi	.L267
 4295 00ca DFE802F0 		tbb	[pc, r2]
 4296              	.L269:
 4297 00ce 09       		.byte	(.L270-.L269)/2
 4298 00cf 1C       		.byte	(.L268-.L269)/2
 4299 00d0 09       		.byte	(.L270-.L269)/2
 4300 00d1 1C       		.byte	(.L268-.L269)/2
 4301              	.LVL327:
 4302              		.p2align 1
 4303              	.L262:
1690:../Drivers/STM32L4xx_HAL_Driver/Src/stm32l4xx_ll_usb.c ****   }
 4304              		.loc 1 1690 5 is_stmt 1 view .LVU1386
1690:../Drivers/STM32L4xx_HAL_Driver/Src/stm32l4xx_ll_usb.c ****   }
 4305              		.loc 1 1690 18 is_stmt 0 view .LVU1387
 4306 00d2 0A61     		str	r2, [r1, #16]
 4307 00d4 B3E7     		b	.L263
 4308              	.LVL328:
 4309              	.L264:
1713:../Drivers/STM32L4xx_HAL_Driver/Src/stm32l4xx_ll_usb.c ****   }
 4310              		.loc 1 1713 5 is_stmt 1 view .LVU1388
1713:../Drivers/STM32L4xx_HAL_Driver/Src/stm32l4xx_ll_usb.c ****   }
 4311              		.loc 1 1713 12 is_stmt 0 view .LVU1389
 4312 00d6 019A     		ldr	r2, [sp, #4]
 4313 00d8 22F40042 		bic	r2, r2, #32768
 4314 00dc 0192     		str	r2, [sp, #4]
 4315 00de E6E7     		b	.L265
 4316              	.L270:
1721:../Drivers/STM32L4xx_HAL_Driver/Src/stm32l4xx_ll_usb.c ****     {
ARM GAS  /tmp/ccJzOZLR.s 			page 125


1722:../Drivers/STM32L4xx_HAL_Driver/Src/stm32l4xx_ll_usb.c ****       /* Non periodic transfer */
1723:../Drivers/STM32L4xx_HAL_Driver/Src/stm32l4xx_ll_usb.c ****       case EP_TYPE_CTRL:
1724:../Drivers/STM32L4xx_HAL_Driver/Src/stm32l4xx_ll_usb.c ****       case EP_TYPE_BULK:
1725:../Drivers/STM32L4xx_HAL_Driver/Src/stm32l4xx_ll_usb.c **** 
1726:../Drivers/STM32L4xx_HAL_Driver/Src/stm32l4xx_ll_usb.c ****         len_words = (uint16_t)((hc->xfer_len + 3U) / 4U);
 4317              		.loc 1 1726 9 is_stmt 1 view .LVU1390
 4318              		.loc 1 1726 46 is_stmt 0 view .LVU1391
 4319 00e0 0333     		adds	r3, r3, #3
 4320              	.LVL329:
1727:../Drivers/STM32L4xx_HAL_Driver/Src/stm32l4xx_ll_usb.c **** 
1728:../Drivers/STM32L4xx_HAL_Driver/Src/stm32l4xx_ll_usb.c ****         /* check if there is enough space in FIFO space */
1729:../Drivers/STM32L4xx_HAL_Driver/Src/stm32l4xx_ll_usb.c ****         if (len_words > (USBx->HNPTXSTS & 0xFFFFU))
 4321              		.loc 1 1729 9 is_stmt 1 view .LVU1392
 4322              		.loc 1 1729 30 is_stmt 0 view .LVU1393
 4323 00e2 C26A     		ldr	r2, [r0, #44]
 4324              		.loc 1 1729 41 view .LVU1394
 4325 00e4 92B2     		uxth	r2, r2
 4326              		.loc 1 1729 12 view .LVU1395
 4327 00e6 C3F38F03 		ubfx	r3, r3, #2, #16
 4328              	.LVL330:
 4329              		.loc 1 1729 12 view .LVU1396
 4330 00ea 9A42     		cmp	r2, r3
 4331 00ec 03D2     		bcs	.L267
1730:../Drivers/STM32L4xx_HAL_Driver/Src/stm32l4xx_ll_usb.c ****         {
1731:../Drivers/STM32L4xx_HAL_Driver/Src/stm32l4xx_ll_usb.c ****           /* need to process data in nptxfempty interrupt */
1732:../Drivers/STM32L4xx_HAL_Driver/Src/stm32l4xx_ll_usb.c ****           USBx->GINTMSK |= USB_OTG_GINTMSK_NPTXFEM;
 4332              		.loc 1 1732 11 is_stmt 1 view .LVU1397
 4333              		.loc 1 1732 25 is_stmt 0 view .LVU1398
 4334 00ee 8369     		ldr	r3, [r0, #24]
 4335 00f0 43F02003 		orr	r3, r3, #32
 4336 00f4 8361     		str	r3, [r0, #24]
 4337              	.LVL331:
 4338              	.L267:
1733:../Drivers/STM32L4xx_HAL_Driver/Src/stm32l4xx_ll_usb.c ****         }
1734:../Drivers/STM32L4xx_HAL_Driver/Src/stm32l4xx_ll_usb.c ****         break;
1735:../Drivers/STM32L4xx_HAL_Driver/Src/stm32l4xx_ll_usb.c **** 
1736:../Drivers/STM32L4xx_HAL_Driver/Src/stm32l4xx_ll_usb.c ****       /* Periodic transfer */
1737:../Drivers/STM32L4xx_HAL_Driver/Src/stm32l4xx_ll_usb.c ****       case EP_TYPE_INTR:
1738:../Drivers/STM32L4xx_HAL_Driver/Src/stm32l4xx_ll_usb.c ****       case EP_TYPE_ISOC:
1739:../Drivers/STM32L4xx_HAL_Driver/Src/stm32l4xx_ll_usb.c ****         len_words = (uint16_t)((hc->xfer_len + 3U) / 4U);
1740:../Drivers/STM32L4xx_HAL_Driver/Src/stm32l4xx_ll_usb.c ****         /* check if there is enough space in FIFO space */
1741:../Drivers/STM32L4xx_HAL_Driver/Src/stm32l4xx_ll_usb.c ****         if (len_words > (USBx_HOST->HPTXSTS & 0xFFFFU)) /* split the transfer */
1742:../Drivers/STM32L4xx_HAL_Driver/Src/stm32l4xx_ll_usb.c ****         {
1743:../Drivers/STM32L4xx_HAL_Driver/Src/stm32l4xx_ll_usb.c ****           /* need to process data in ptxfempty interrupt */
1744:../Drivers/STM32L4xx_HAL_Driver/Src/stm32l4xx_ll_usb.c ****           USBx->GINTMSK |= USB_OTG_GINTMSK_PTXFEM;
1745:../Drivers/STM32L4xx_HAL_Driver/Src/stm32l4xx_ll_usb.c ****         }
1746:../Drivers/STM32L4xx_HAL_Driver/Src/stm32l4xx_ll_usb.c ****         break;
1747:../Drivers/STM32L4xx_HAL_Driver/Src/stm32l4xx_ll_usb.c **** 
1748:../Drivers/STM32L4xx_HAL_Driver/Src/stm32l4xx_ll_usb.c ****       default:
1749:../Drivers/STM32L4xx_HAL_Driver/Src/stm32l4xx_ll_usb.c ****         break;
1750:../Drivers/STM32L4xx_HAL_Driver/Src/stm32l4xx_ll_usb.c ****     }
1751:../Drivers/STM32L4xx_HAL_Driver/Src/stm32l4xx_ll_usb.c **** 
1752:../Drivers/STM32L4xx_HAL_Driver/Src/stm32l4xx_ll_usb.c ****     /* Write packet into the Tx FIFO. */
1753:../Drivers/STM32L4xx_HAL_Driver/Src/stm32l4xx_ll_usb.c ****     (void)USB_WritePacket(USBx, hc->xfer_buff, hc->ch_num, (uint16_t)hc->xfer_len);
 4339              		.loc 1 1753 5 is_stmt 1 view .LVU1399
 4340              		.loc 1 1753 11 is_stmt 0 view .LVU1400
 4341 00f6 8B8A     		ldrh	r3, [r1, #20]
ARM GAS  /tmp/ccJzOZLR.s 			page 126


 4342 00f8 4A78     		ldrb	r2, [r1, #1]	@ zero_extendqisi2
 4343 00fa C968     		ldr	r1, [r1, #12]
 4344              	.LVL332:
 4345              		.loc 1 1753 11 view .LVU1401
 4346 00fc FFF7FEFF 		bl	USB_WritePacket
 4347              	.LVL333:
 4348              	.L266:
1754:../Drivers/STM32L4xx_HAL_Driver/Src/stm32l4xx_ll_usb.c ****   }
1755:../Drivers/STM32L4xx_HAL_Driver/Src/stm32l4xx_ll_usb.c **** 
1756:../Drivers/STM32L4xx_HAL_Driver/Src/stm32l4xx_ll_usb.c ****   return HAL_OK;
 4349              		.loc 1 1756 3 is_stmt 1 view .LVU1402
1757:../Drivers/STM32L4xx_HAL_Driver/Src/stm32l4xx_ll_usb.c **** }
 4350              		.loc 1 1757 1 is_stmt 0 view .LVU1403
 4351 0100 0020     		movs	r0, #0
 4352 0102 02B0     		add	sp, sp, #8
 4353              	.LCFI56:
 4354              		.cfi_remember_state
 4355              		.cfi_def_cfa_offset 8
 4356              		@ sp needed
 4357 0104 10BD     		pop	{r4, pc}
 4358              	.LVL334:
 4359              	.L268:
 4360              	.LCFI57:
 4361              		.cfi_restore_state
1739:../Drivers/STM32L4xx_HAL_Driver/Src/stm32l4xx_ll_usb.c ****         /* check if there is enough space in FIFO space */
 4362              		.loc 1 1739 9 is_stmt 1 view .LVU1404
1739:../Drivers/STM32L4xx_HAL_Driver/Src/stm32l4xx_ll_usb.c ****         /* check if there is enough space in FIFO space */
 4363              		.loc 1 1739 46 is_stmt 0 view .LVU1405
 4364 0106 0333     		adds	r3, r3, #3
 4365              	.LVL335:
1741:../Drivers/STM32L4xx_HAL_Driver/Src/stm32l4xx_ll_usb.c ****         {
 4366              		.loc 1 1741 9 is_stmt 1 view .LVU1406
1741:../Drivers/STM32L4xx_HAL_Driver/Src/stm32l4xx_ll_usb.c ****         {
 4367              		.loc 1 1741 35 is_stmt 0 view .LVU1407
 4368 0108 DCF81020 		ldr	r2, [ip, #16]
1741:../Drivers/STM32L4xx_HAL_Driver/Src/stm32l4xx_ll_usb.c ****         {
 4369              		.loc 1 1741 45 view .LVU1408
 4370 010c 92B2     		uxth	r2, r2
1741:../Drivers/STM32L4xx_HAL_Driver/Src/stm32l4xx_ll_usb.c ****         {
 4371              		.loc 1 1741 12 view .LVU1409
 4372 010e C3F38F03 		ubfx	r3, r3, #2, #16
 4373              	.LVL336:
1741:../Drivers/STM32L4xx_HAL_Driver/Src/stm32l4xx_ll_usb.c ****         {
 4374              		.loc 1 1741 12 view .LVU1410
 4375 0112 9A42     		cmp	r2, r3
 4376 0114 EFD2     		bcs	.L267
1744:../Drivers/STM32L4xx_HAL_Driver/Src/stm32l4xx_ll_usb.c ****         }
 4377              		.loc 1 1744 11 is_stmt 1 view .LVU1411
1744:../Drivers/STM32L4xx_HAL_Driver/Src/stm32l4xx_ll_usb.c ****         }
 4378              		.loc 1 1744 25 is_stmt 0 view .LVU1412
 4379 0116 8369     		ldr	r3, [r0, #24]
 4380 0118 43F08063 		orr	r3, r3, #67108864
 4381 011c 8361     		str	r3, [r0, #24]
 4382              	.LVL337:
1744:../Drivers/STM32L4xx_HAL_Driver/Src/stm32l4xx_ll_usb.c ****         }
 4383              		.loc 1 1744 25 view .LVU1413
 4384 011e EAE7     		b	.L267
ARM GAS  /tmp/ccJzOZLR.s 			page 127


 4385              	.L274:
 4386              		.align	2
 4387              	.L273:
 4388 0120 0000F81F 		.word	536346624
 4389              		.cfi_endproc
 4390              	.LFE174:
 4392              		.section	.text.USB_HC_ReadInterrupt,"ax",%progbits
 4393              		.align	1
 4394              		.global	USB_HC_ReadInterrupt
 4395              		.syntax unified
 4396              		.thumb
 4397              		.thumb_func
 4398              		.fpu fpv4-sp-d16
 4400              	USB_HC_ReadInterrupt:
 4401              	.LVL338:
 4402              	.LFB175:
1758:../Drivers/STM32L4xx_HAL_Driver/Src/stm32l4xx_ll_usb.c **** 
1759:../Drivers/STM32L4xx_HAL_Driver/Src/stm32l4xx_ll_usb.c **** /**
1760:../Drivers/STM32L4xx_HAL_Driver/Src/stm32l4xx_ll_usb.c ****   * @brief Read all host channel interrupts status
1761:../Drivers/STM32L4xx_HAL_Driver/Src/stm32l4xx_ll_usb.c ****   * @param  USBx  Selected device
1762:../Drivers/STM32L4xx_HAL_Driver/Src/stm32l4xx_ll_usb.c ****   * @retval HAL state
1763:../Drivers/STM32L4xx_HAL_Driver/Src/stm32l4xx_ll_usb.c ****   */
1764:../Drivers/STM32L4xx_HAL_Driver/Src/stm32l4xx_ll_usb.c **** uint32_t USB_HC_ReadInterrupt(USB_OTG_GlobalTypeDef *USBx)
1765:../Drivers/STM32L4xx_HAL_Driver/Src/stm32l4xx_ll_usb.c **** {
 4403              		.loc 1 1765 1 is_stmt 1 view -0
 4404              		.cfi_startproc
 4405              		@ args = 0, pretend = 0, frame = 0
 4406              		@ frame_needed = 0, uses_anonymous_args = 0
 4407              		@ link register save eliminated.
1766:../Drivers/STM32L4xx_HAL_Driver/Src/stm32l4xx_ll_usb.c ****   uint32_t USBx_BASE = (uint32_t)USBx;
 4408              		.loc 1 1766 3 view .LVU1415
1767:../Drivers/STM32L4xx_HAL_Driver/Src/stm32l4xx_ll_usb.c **** 
1768:../Drivers/STM32L4xx_HAL_Driver/Src/stm32l4xx_ll_usb.c ****   return ((USBx_HOST->HAINT) & 0xFFFFU);
 4409              		.loc 1 1768 3 view .LVU1416
 4410              		.loc 1 1768 12 is_stmt 0 view .LVU1417
 4411 0000 00F58060 		add	r0, r0, #1024
 4412              	.LVL339:
 4413              		.loc 1 1768 21 view .LVU1418
 4414 0004 4069     		ldr	r0, [r0, #20]
 4415              	.LVL340:
1769:../Drivers/STM32L4xx_HAL_Driver/Src/stm32l4xx_ll_usb.c **** }
 4416              		.loc 1 1769 1 view .LVU1419
 4417 0006 80B2     		uxth	r0, r0
 4418 0008 7047     		bx	lr
 4419              		.cfi_endproc
 4420              	.LFE175:
 4422              		.section	.text.USB_HC_Halt,"ax",%progbits
 4423              		.align	1
 4424              		.global	USB_HC_Halt
 4425              		.syntax unified
 4426              		.thumb
 4427              		.thumb_func
 4428              		.fpu fpv4-sp-d16
 4430              	USB_HC_Halt:
 4431              	.LVL341:
 4432              	.LFB176:
1770:../Drivers/STM32L4xx_HAL_Driver/Src/stm32l4xx_ll_usb.c **** 
ARM GAS  /tmp/ccJzOZLR.s 			page 128


1771:../Drivers/STM32L4xx_HAL_Driver/Src/stm32l4xx_ll_usb.c **** /**
1772:../Drivers/STM32L4xx_HAL_Driver/Src/stm32l4xx_ll_usb.c ****   * @brief  Halt a host channel
1773:../Drivers/STM32L4xx_HAL_Driver/Src/stm32l4xx_ll_usb.c ****   * @param  USBx  Selected device
1774:../Drivers/STM32L4xx_HAL_Driver/Src/stm32l4xx_ll_usb.c ****   * @param  hc_num  Host Channel number
1775:../Drivers/STM32L4xx_HAL_Driver/Src/stm32l4xx_ll_usb.c ****   *         This parameter can be a value from 1 to 15
1776:../Drivers/STM32L4xx_HAL_Driver/Src/stm32l4xx_ll_usb.c ****   * @retval HAL state
1777:../Drivers/STM32L4xx_HAL_Driver/Src/stm32l4xx_ll_usb.c ****   */
1778:../Drivers/STM32L4xx_HAL_Driver/Src/stm32l4xx_ll_usb.c **** HAL_StatusTypeDef USB_HC_Halt(USB_OTG_GlobalTypeDef *USBx, uint8_t hc_num)
1779:../Drivers/STM32L4xx_HAL_Driver/Src/stm32l4xx_ll_usb.c **** {
 4433              		.loc 1 1779 1 is_stmt 1 view -0
 4434              		.cfi_startproc
 4435              		@ args = 0, pretend = 0, frame = 8
 4436              		@ frame_needed = 0, uses_anonymous_args = 0
 4437              		@ link register save eliminated.
 4438              		.loc 1 1779 1 is_stmt 0 view .LVU1421
 4439 0000 10B4     		push	{r4}
 4440              	.LCFI58:
 4441              		.cfi_def_cfa_offset 4
 4442              		.cfi_offset 4, -4
 4443 0002 83B0     		sub	sp, sp, #12
 4444              	.LCFI59:
 4445              		.cfi_def_cfa_offset 16
1780:../Drivers/STM32L4xx_HAL_Driver/Src/stm32l4xx_ll_usb.c ****   uint32_t USBx_BASE = (uint32_t)USBx;
 4446              		.loc 1 1780 3 is_stmt 1 view .LVU1422
 4447              	.LVL342:
1781:../Drivers/STM32L4xx_HAL_Driver/Src/stm32l4xx_ll_usb.c ****   uint32_t hcnum = (uint32_t)hc_num;
 4448              		.loc 1 1781 3 view .LVU1423
1782:../Drivers/STM32L4xx_HAL_Driver/Src/stm32l4xx_ll_usb.c ****   __IO uint32_t count = 0U;
 4449              		.loc 1 1782 3 view .LVU1424
 4450              		.loc 1 1782 17 is_stmt 0 view .LVU1425
 4451 0004 0023     		movs	r3, #0
 4452 0006 0193     		str	r3, [sp, #4]
1783:../Drivers/STM32L4xx_HAL_Driver/Src/stm32l4xx_ll_usb.c ****   uint32_t HcEpType = (USBx_HC(hcnum)->HCCHAR & USB_OTG_HCCHAR_EPTYP) >> 18;
 4453              		.loc 1 1783 3 is_stmt 1 view .LVU1426
 4454              		.loc 1 1783 24 is_stmt 0 view .LVU1427
 4455 0008 00EB4111 		add	r1, r0, r1, lsl #5
 4456              	.LVL343:
 4457              		.loc 1 1783 24 view .LVU1428
 4458 000c 01F5A06C 		add	ip, r1, #1280
 4459              		.loc 1 1783 38 view .LVU1429
 4460 0010 D1F80035 		ldr	r3, [r1, #1280]
 4461              		.loc 1 1783 12 view .LVU1430
 4462 0014 C3F38143 		ubfx	r3, r3, #18, #2
 4463              	.LVL344:
1784:../Drivers/STM32L4xx_HAL_Driver/Src/stm32l4xx_ll_usb.c ****   uint32_t ChannelEna = (USBx_HC(hcnum)->HCCHAR & USB_OTG_HCCHAR_CHENA) >> 31;
 4464              		.loc 1 1784 3 is_stmt 1 view .LVU1431
 4465              		.loc 1 1784 40 is_stmt 0 view .LVU1432
 4466 0018 D1F80025 		ldr	r2, [r1, #1280]
 4467              	.LVL345:
1785:../Drivers/STM32L4xx_HAL_Driver/Src/stm32l4xx_ll_usb.c **** 
1786:../Drivers/STM32L4xx_HAL_Driver/Src/stm32l4xx_ll_usb.c ****   if (((USBx->GAHBCFG & USB_OTG_GAHBCFG_DMAEN) == USB_OTG_GAHBCFG_DMAEN) &&
 4468              		.loc 1 1786 3 is_stmt 1 view .LVU1433
 4469              		.loc 1 1786 13 is_stmt 0 view .LVU1434
 4470 001c 8468     		ldr	r4, [r0, #8]
 4471              		.loc 1 1786 6 view .LVU1435
 4472 001e 14F0200F 		tst	r4, #32
 4473 0022 02D0     		beq	.L277
ARM GAS  /tmp/ccJzOZLR.s 			page 129


 4474 0024 D20F     		lsrs	r2, r2, #31
 4475              	.LVL346:
 4476              		.loc 1 1786 74 discriminator 1 view .LVU1436
 4477 0026 002A     		cmp	r2, #0
 4478 0028 51D0     		beq	.L278
 4479              	.LVL347:
 4480              	.L277:
1787:../Drivers/STM32L4xx_HAL_Driver/Src/stm32l4xx_ll_usb.c ****       (ChannelEna == 0U))
1788:../Drivers/STM32L4xx_HAL_Driver/Src/stm32l4xx_ll_usb.c ****   {
1789:../Drivers/STM32L4xx_HAL_Driver/Src/stm32l4xx_ll_usb.c ****     return HAL_OK;
1790:../Drivers/STM32L4xx_HAL_Driver/Src/stm32l4xx_ll_usb.c ****   }
1791:../Drivers/STM32L4xx_HAL_Driver/Src/stm32l4xx_ll_usb.c **** 
1792:../Drivers/STM32L4xx_HAL_Driver/Src/stm32l4xx_ll_usb.c ****   /* Check for space in the request queue to issue the halt. */
1793:../Drivers/STM32L4xx_HAL_Driver/Src/stm32l4xx_ll_usb.c ****   if ((HcEpType == HCCHAR_CTRL) || (HcEpType == HCCHAR_BULK))
 4481              		.loc 1 1793 3 is_stmt 1 view .LVU1437
 4482              		.loc 1 1793 6 is_stmt 0 view .LVU1438
 4483 002a 23B3     		cbz	r3, .L279
 4484              		.loc 1 1793 33 discriminator 1 view .LVU1439
 4485 002c 022B     		cmp	r3, #2
 4486 002e 22D0     		beq	.L279
1794:../Drivers/STM32L4xx_HAL_Driver/Src/stm32l4xx_ll_usb.c ****   {
1795:../Drivers/STM32L4xx_HAL_Driver/Src/stm32l4xx_ll_usb.c ****     USBx_HC(hcnum)->HCCHAR |= USB_OTG_HCCHAR_CHDIS;
1796:../Drivers/STM32L4xx_HAL_Driver/Src/stm32l4xx_ll_usb.c **** 
1797:../Drivers/STM32L4xx_HAL_Driver/Src/stm32l4xx_ll_usb.c ****     if ((USBx->GAHBCFG & USB_OTG_GAHBCFG_DMAEN) == 0U)
1798:../Drivers/STM32L4xx_HAL_Driver/Src/stm32l4xx_ll_usb.c ****     {
1799:../Drivers/STM32L4xx_HAL_Driver/Src/stm32l4xx_ll_usb.c ****       if ((USBx->HNPTXSTS & (0xFFU << 16)) == 0U)
1800:../Drivers/STM32L4xx_HAL_Driver/Src/stm32l4xx_ll_usb.c ****       {
1801:../Drivers/STM32L4xx_HAL_Driver/Src/stm32l4xx_ll_usb.c ****         USBx_HC(hcnum)->HCCHAR &= ~USB_OTG_HCCHAR_CHENA;
1802:../Drivers/STM32L4xx_HAL_Driver/Src/stm32l4xx_ll_usb.c ****         USBx_HC(hcnum)->HCCHAR |= USB_OTG_HCCHAR_CHENA;
1803:../Drivers/STM32L4xx_HAL_Driver/Src/stm32l4xx_ll_usb.c ****         do
1804:../Drivers/STM32L4xx_HAL_Driver/Src/stm32l4xx_ll_usb.c ****         {
1805:../Drivers/STM32L4xx_HAL_Driver/Src/stm32l4xx_ll_usb.c ****           count++;
1806:../Drivers/STM32L4xx_HAL_Driver/Src/stm32l4xx_ll_usb.c **** 
1807:../Drivers/STM32L4xx_HAL_Driver/Src/stm32l4xx_ll_usb.c ****           if (count > 1000U)
1808:../Drivers/STM32L4xx_HAL_Driver/Src/stm32l4xx_ll_usb.c ****           {
1809:../Drivers/STM32L4xx_HAL_Driver/Src/stm32l4xx_ll_usb.c ****             break;
1810:../Drivers/STM32L4xx_HAL_Driver/Src/stm32l4xx_ll_usb.c ****           }
1811:../Drivers/STM32L4xx_HAL_Driver/Src/stm32l4xx_ll_usb.c ****         } while ((USBx_HC(hcnum)->HCCHAR & USB_OTG_HCCHAR_CHENA) == USB_OTG_HCCHAR_CHENA);
1812:../Drivers/STM32L4xx_HAL_Driver/Src/stm32l4xx_ll_usb.c ****       }
1813:../Drivers/STM32L4xx_HAL_Driver/Src/stm32l4xx_ll_usb.c ****       else
1814:../Drivers/STM32L4xx_HAL_Driver/Src/stm32l4xx_ll_usb.c ****       {
1815:../Drivers/STM32L4xx_HAL_Driver/Src/stm32l4xx_ll_usb.c ****         USBx_HC(hcnum)->HCCHAR |= USB_OTG_HCCHAR_CHENA;
1816:../Drivers/STM32L4xx_HAL_Driver/Src/stm32l4xx_ll_usb.c ****       }
1817:../Drivers/STM32L4xx_HAL_Driver/Src/stm32l4xx_ll_usb.c ****     }
1818:../Drivers/STM32L4xx_HAL_Driver/Src/stm32l4xx_ll_usb.c ****   }
1819:../Drivers/STM32L4xx_HAL_Driver/Src/stm32l4xx_ll_usb.c ****   else
1820:../Drivers/STM32L4xx_HAL_Driver/Src/stm32l4xx_ll_usb.c ****   {
1821:../Drivers/STM32L4xx_HAL_Driver/Src/stm32l4xx_ll_usb.c ****     USBx_HC(hcnum)->HCCHAR |= USB_OTG_HCCHAR_CHDIS;
 4487              		.loc 1 1821 5 is_stmt 1 view .LVU1440
 4488              		.loc 1 1821 28 is_stmt 0 view .LVU1441
 4489 0030 D1F80035 		ldr	r3, [r1, #1280]
 4490              	.LVL348:
 4491              		.loc 1 1821 28 view .LVU1442
 4492 0034 43F08043 		orr	r3, r3, #1073741824
 4493 0038 C1F80035 		str	r3, [r1, #1280]
1822:../Drivers/STM32L4xx_HAL_Driver/Src/stm32l4xx_ll_usb.c **** 
1823:../Drivers/STM32L4xx_HAL_Driver/Src/stm32l4xx_ll_usb.c ****     if ((USBx_HOST->HPTXSTS & (0xFFU << 16)) == 0U)
ARM GAS  /tmp/ccJzOZLR.s 			page 130


 4494              		.loc 1 1823 5 is_stmt 1 view .LVU1443
 4495              		.loc 1 1823 19 is_stmt 0 view .LVU1444
 4496 003c D0F81034 		ldr	r3, [r0, #1040]
 4497              		.loc 1 1823 8 view .LVU1445
 4498 0040 13F47F0F 		tst	r3, #16711680
 4499 0044 48D1     		bne	.L283
1824:../Drivers/STM32L4xx_HAL_Driver/Src/stm32l4xx_ll_usb.c ****     {
1825:../Drivers/STM32L4xx_HAL_Driver/Src/stm32l4xx_ll_usb.c ****       USBx_HC(hcnum)->HCCHAR &= ~USB_OTG_HCCHAR_CHENA;
 4500              		.loc 1 1825 7 is_stmt 1 view .LVU1446
 4501              		.loc 1 1825 30 is_stmt 0 view .LVU1447
 4502 0046 D1F80035 		ldr	r3, [r1, #1280]
 4503 004a 23F00043 		bic	r3, r3, #-2147483648
 4504 004e C1F80035 		str	r3, [r1, #1280]
1826:../Drivers/STM32L4xx_HAL_Driver/Src/stm32l4xx_ll_usb.c ****       USBx_HC(hcnum)->HCCHAR |= USB_OTG_HCCHAR_CHENA;
 4505              		.loc 1 1826 7 is_stmt 1 view .LVU1448
 4506              		.loc 1 1826 30 is_stmt 0 view .LVU1449
 4507 0052 D1F80035 		ldr	r3, [r1, #1280]
 4508 0056 43F00043 		orr	r3, r3, #-2147483648
 4509 005a C1F80035 		str	r3, [r1, #1280]
 4510              	.L284:
1827:../Drivers/STM32L4xx_HAL_Driver/Src/stm32l4xx_ll_usb.c ****       do
 4511              		.loc 1 1827 7 is_stmt 1 view .LVU1450
1828:../Drivers/STM32L4xx_HAL_Driver/Src/stm32l4xx_ll_usb.c ****       {
1829:../Drivers/STM32L4xx_HAL_Driver/Src/stm32l4xx_ll_usb.c ****         count++;
 4512              		.loc 1 1829 9 view .LVU1451
 4513              		.loc 1 1829 14 is_stmt 0 view .LVU1452
 4514 005e 019B     		ldr	r3, [sp, #4]
 4515 0060 0133     		adds	r3, r3, #1
 4516 0062 0193     		str	r3, [sp, #4]
1830:../Drivers/STM32L4xx_HAL_Driver/Src/stm32l4xx_ll_usb.c **** 
1831:../Drivers/STM32L4xx_HAL_Driver/Src/stm32l4xx_ll_usb.c ****         if (count > 1000U)
 4517              		.loc 1 1831 9 is_stmt 1 view .LVU1453
 4518              		.loc 1 1831 19 is_stmt 0 view .LVU1454
 4519 0064 019B     		ldr	r3, [sp, #4]
 4520              		.loc 1 1831 12 view .LVU1455
 4521 0066 B3F57A7F 		cmp	r3, #1000
 4522 006a 30D8     		bhi	.L278
1832:../Drivers/STM32L4xx_HAL_Driver/Src/stm32l4xx_ll_usb.c ****         {
1833:../Drivers/STM32L4xx_HAL_Driver/Src/stm32l4xx_ll_usb.c ****           break;
1834:../Drivers/STM32L4xx_HAL_Driver/Src/stm32l4xx_ll_usb.c ****         }
1835:../Drivers/STM32L4xx_HAL_Driver/Src/stm32l4xx_ll_usb.c ****       } while ((USBx_HC(hcnum)->HCCHAR & USB_OTG_HCCHAR_CHENA) == USB_OTG_HCCHAR_CHENA);
 4523              		.loc 1 1835 15 is_stmt 1 view .LVU1456
 4524              		.loc 1 1835 31 is_stmt 0 view .LVU1457
 4525 006c DCF80030 		ldr	r3, [ip]
 4526              		.loc 1 1835 7 view .LVU1458
 4527 0070 002B     		cmp	r3, #0
 4528 0072 F4DB     		blt	.L284
 4529 0074 2BE0     		b	.L278
 4530              	.LVL349:
 4531              	.L279:
1795:../Drivers/STM32L4xx_HAL_Driver/Src/stm32l4xx_ll_usb.c **** 
 4532              		.loc 1 1795 5 is_stmt 1 view .LVU1459
1795:../Drivers/STM32L4xx_HAL_Driver/Src/stm32l4xx_ll_usb.c **** 
 4533              		.loc 1 1795 28 is_stmt 0 view .LVU1460
 4534 0076 D1F80035 		ldr	r3, [r1, #1280]
 4535              	.LVL350:
1795:../Drivers/STM32L4xx_HAL_Driver/Src/stm32l4xx_ll_usb.c **** 
ARM GAS  /tmp/ccJzOZLR.s 			page 131


 4536              		.loc 1 1795 28 view .LVU1461
 4537 007a 43F08043 		orr	r3, r3, #1073741824
 4538 007e C1F80035 		str	r3, [r1, #1280]
1797:../Drivers/STM32L4xx_HAL_Driver/Src/stm32l4xx_ll_usb.c ****     {
 4539              		.loc 1 1797 5 is_stmt 1 view .LVU1462
1797:../Drivers/STM32L4xx_HAL_Driver/Src/stm32l4xx_ll_usb.c ****     {
 4540              		.loc 1 1797 14 is_stmt 0 view .LVU1463
 4541 0082 8368     		ldr	r3, [r0, #8]
1797:../Drivers/STM32L4xx_HAL_Driver/Src/stm32l4xx_ll_usb.c ****     {
 4542              		.loc 1 1797 8 view .LVU1464
 4543 0084 13F0200F 		tst	r3, #32
 4544 0088 21D1     		bne	.L278
1799:../Drivers/STM32L4xx_HAL_Driver/Src/stm32l4xx_ll_usb.c ****       {
 4545              		.loc 1 1799 7 is_stmt 1 view .LVU1465
1799:../Drivers/STM32L4xx_HAL_Driver/Src/stm32l4xx_ll_usb.c ****       {
 4546              		.loc 1 1799 16 is_stmt 0 view .LVU1466
 4547 008a C36A     		ldr	r3, [r0, #44]
1799:../Drivers/STM32L4xx_HAL_Driver/Src/stm32l4xx_ll_usb.c ****       {
 4548              		.loc 1 1799 10 view .LVU1467
 4549 008c 13F47F0F 		tst	r3, #16711680
 4550 0090 17D1     		bne	.L281
1801:../Drivers/STM32L4xx_HAL_Driver/Src/stm32l4xx_ll_usb.c ****         USBx_HC(hcnum)->HCCHAR |= USB_OTG_HCCHAR_CHENA;
 4551              		.loc 1 1801 9 is_stmt 1 view .LVU1468
1801:../Drivers/STM32L4xx_HAL_Driver/Src/stm32l4xx_ll_usb.c ****         USBx_HC(hcnum)->HCCHAR |= USB_OTG_HCCHAR_CHENA;
 4552              		.loc 1 1801 32 is_stmt 0 view .LVU1469
 4553 0092 D1F80035 		ldr	r3, [r1, #1280]
 4554 0096 23F00043 		bic	r3, r3, #-2147483648
 4555 009a C1F80035 		str	r3, [r1, #1280]
1802:../Drivers/STM32L4xx_HAL_Driver/Src/stm32l4xx_ll_usb.c ****         do
 4556              		.loc 1 1802 9 is_stmt 1 view .LVU1470
1802:../Drivers/STM32L4xx_HAL_Driver/Src/stm32l4xx_ll_usb.c ****         do
 4557              		.loc 1 1802 32 is_stmt 0 view .LVU1471
 4558 009e D1F80035 		ldr	r3, [r1, #1280]
 4559 00a2 43F00043 		orr	r3, r3, #-2147483648
 4560 00a6 C1F80035 		str	r3, [r1, #1280]
 4561              	.L282:
1803:../Drivers/STM32L4xx_HAL_Driver/Src/stm32l4xx_ll_usb.c ****         {
 4562              		.loc 1 1803 9 is_stmt 1 view .LVU1472
1805:../Drivers/STM32L4xx_HAL_Driver/Src/stm32l4xx_ll_usb.c **** 
 4563              		.loc 1 1805 11 view .LVU1473
1805:../Drivers/STM32L4xx_HAL_Driver/Src/stm32l4xx_ll_usb.c **** 
 4564              		.loc 1 1805 16 is_stmt 0 view .LVU1474
 4565 00aa 019B     		ldr	r3, [sp, #4]
 4566 00ac 0133     		adds	r3, r3, #1
 4567 00ae 0193     		str	r3, [sp, #4]
1807:../Drivers/STM32L4xx_HAL_Driver/Src/stm32l4xx_ll_usb.c ****           {
 4568              		.loc 1 1807 11 is_stmt 1 view .LVU1475
1807:../Drivers/STM32L4xx_HAL_Driver/Src/stm32l4xx_ll_usb.c ****           {
 4569              		.loc 1 1807 21 is_stmt 0 view .LVU1476
 4570 00b0 019B     		ldr	r3, [sp, #4]
1807:../Drivers/STM32L4xx_HAL_Driver/Src/stm32l4xx_ll_usb.c ****           {
 4571              		.loc 1 1807 14 view .LVU1477
 4572 00b2 B3F57A7F 		cmp	r3, #1000
 4573 00b6 0AD8     		bhi	.L278
1811:../Drivers/STM32L4xx_HAL_Driver/Src/stm32l4xx_ll_usb.c ****       }
 4574              		.loc 1 1811 17 is_stmt 1 view .LVU1478
1811:../Drivers/STM32L4xx_HAL_Driver/Src/stm32l4xx_ll_usb.c ****       }
ARM GAS  /tmp/ccJzOZLR.s 			page 132


 4575              		.loc 1 1811 33 is_stmt 0 view .LVU1479
 4576 00b8 DCF80030 		ldr	r3, [ip]
1811:../Drivers/STM32L4xx_HAL_Driver/Src/stm32l4xx_ll_usb.c ****       }
 4577              		.loc 1 1811 9 view .LVU1480
 4578 00bc 002B     		cmp	r3, #0
 4579 00be F4DB     		blt	.L282
 4580 00c0 05E0     		b	.L278
 4581              	.L281:
1815:../Drivers/STM32L4xx_HAL_Driver/Src/stm32l4xx_ll_usb.c ****       }
 4582              		.loc 1 1815 9 is_stmt 1 view .LVU1481
1815:../Drivers/STM32L4xx_HAL_Driver/Src/stm32l4xx_ll_usb.c ****       }
 4583              		.loc 1 1815 32 is_stmt 0 view .LVU1482
 4584 00c2 D1F80035 		ldr	r3, [r1, #1280]
 4585 00c6 43F00043 		orr	r3, r3, #-2147483648
 4586 00ca C1F80035 		str	r3, [r1, #1280]
 4587              	.L278:
1836:../Drivers/STM32L4xx_HAL_Driver/Src/stm32l4xx_ll_usb.c ****     }
1837:../Drivers/STM32L4xx_HAL_Driver/Src/stm32l4xx_ll_usb.c ****     else
1838:../Drivers/STM32L4xx_HAL_Driver/Src/stm32l4xx_ll_usb.c ****     {
1839:../Drivers/STM32L4xx_HAL_Driver/Src/stm32l4xx_ll_usb.c ****       USBx_HC(hcnum)->HCCHAR |= USB_OTG_HCCHAR_CHENA;
1840:../Drivers/STM32L4xx_HAL_Driver/Src/stm32l4xx_ll_usb.c ****     }
1841:../Drivers/STM32L4xx_HAL_Driver/Src/stm32l4xx_ll_usb.c ****   }
1842:../Drivers/STM32L4xx_HAL_Driver/Src/stm32l4xx_ll_usb.c **** 
1843:../Drivers/STM32L4xx_HAL_Driver/Src/stm32l4xx_ll_usb.c ****   return HAL_OK;
1844:../Drivers/STM32L4xx_HAL_Driver/Src/stm32l4xx_ll_usb.c **** }
 4588              		.loc 1 1844 1 view .LVU1483
 4589 00ce 0020     		movs	r0, #0
 4590              	.LVL351:
 4591              		.loc 1 1844 1 view .LVU1484
 4592 00d0 03B0     		add	sp, sp, #12
 4593              	.LCFI60:
 4594              		.cfi_remember_state
 4595              		.cfi_def_cfa_offset 4
 4596              		@ sp needed
 4597 00d2 5DF8044B 		ldr	r4, [sp], #4
 4598              	.LCFI61:
 4599              		.cfi_restore 4
 4600              		.cfi_def_cfa_offset 0
 4601 00d6 7047     		bx	lr
 4602              	.LVL352:
 4603              	.L283:
 4604              	.LCFI62:
 4605              		.cfi_restore_state
1839:../Drivers/STM32L4xx_HAL_Driver/Src/stm32l4xx_ll_usb.c ****     }
 4606              		.loc 1 1839 7 is_stmt 1 view .LVU1485
1839:../Drivers/STM32L4xx_HAL_Driver/Src/stm32l4xx_ll_usb.c ****     }
 4607              		.loc 1 1839 30 is_stmt 0 view .LVU1486
 4608 00d8 D1F80035 		ldr	r3, [r1, #1280]
 4609 00dc 43F00043 		orr	r3, r3, #-2147483648
 4610 00e0 C1F80035 		str	r3, [r1, #1280]
 4611 00e4 F3E7     		b	.L278
 4612              		.cfi_endproc
 4613              	.LFE176:
 4615              		.section	.text.USB_DoPing,"ax",%progbits
 4616              		.align	1
 4617              		.global	USB_DoPing
 4618              		.syntax unified
ARM GAS  /tmp/ccJzOZLR.s 			page 133


 4619              		.thumb
 4620              		.thumb_func
 4621              		.fpu fpv4-sp-d16
 4623              	USB_DoPing:
 4624              	.LVL353:
 4625              	.LFB177:
1845:../Drivers/STM32L4xx_HAL_Driver/Src/stm32l4xx_ll_usb.c **** 
1846:../Drivers/STM32L4xx_HAL_Driver/Src/stm32l4xx_ll_usb.c **** /**
1847:../Drivers/STM32L4xx_HAL_Driver/Src/stm32l4xx_ll_usb.c ****   * @brief  Initiate Do Ping protocol
1848:../Drivers/STM32L4xx_HAL_Driver/Src/stm32l4xx_ll_usb.c ****   * @param  USBx  Selected device
1849:../Drivers/STM32L4xx_HAL_Driver/Src/stm32l4xx_ll_usb.c ****   * @param  hc_num  Host Channel number
1850:../Drivers/STM32L4xx_HAL_Driver/Src/stm32l4xx_ll_usb.c ****   *         This parameter can be a value from 1 to 15
1851:../Drivers/STM32L4xx_HAL_Driver/Src/stm32l4xx_ll_usb.c ****   * @retval HAL state
1852:../Drivers/STM32L4xx_HAL_Driver/Src/stm32l4xx_ll_usb.c ****   */
1853:../Drivers/STM32L4xx_HAL_Driver/Src/stm32l4xx_ll_usb.c **** HAL_StatusTypeDef USB_DoPing(USB_OTG_GlobalTypeDef *USBx, uint8_t ch_num)
1854:../Drivers/STM32L4xx_HAL_Driver/Src/stm32l4xx_ll_usb.c **** {
 4626              		.loc 1 1854 1 is_stmt 1 view -0
 4627              		.cfi_startproc
 4628              		@ args = 0, pretend = 0, frame = 0
 4629              		@ frame_needed = 0, uses_anonymous_args = 0
 4630              		@ link register save eliminated.
1855:../Drivers/STM32L4xx_HAL_Driver/Src/stm32l4xx_ll_usb.c ****   uint32_t USBx_BASE = (uint32_t)USBx;
 4631              		.loc 1 1855 3 view .LVU1488
1856:../Drivers/STM32L4xx_HAL_Driver/Src/stm32l4xx_ll_usb.c ****   uint32_t chnum = (uint32_t)ch_num;
 4632              		.loc 1 1856 3 view .LVU1489
1857:../Drivers/STM32L4xx_HAL_Driver/Src/stm32l4xx_ll_usb.c ****   uint32_t num_packets = 1U;
 4633              		.loc 1 1857 3 view .LVU1490
1858:../Drivers/STM32L4xx_HAL_Driver/Src/stm32l4xx_ll_usb.c ****   uint32_t tmpreg;
 4634              		.loc 1 1858 3 view .LVU1491
1859:../Drivers/STM32L4xx_HAL_Driver/Src/stm32l4xx_ll_usb.c **** 
1860:../Drivers/STM32L4xx_HAL_Driver/Src/stm32l4xx_ll_usb.c ****   USBx_HC(chnum)->HCTSIZ = ((num_packets << 19) & USB_OTG_HCTSIZ_PKTCNT) |
 4635              		.loc 1 1860 3 view .LVU1492
 4636 0000 00EB4111 		add	r1, r0, r1, lsl #5
 4637              	.LVL354:
 4638              		.loc 1 1860 26 is_stmt 0 view .LVU1493
 4639 0004 064A     		ldr	r2, .L287
 4640 0006 C1F81025 		str	r2, [r1, #1296]
1861:../Drivers/STM32L4xx_HAL_Driver/Src/stm32l4xx_ll_usb.c ****                            USB_OTG_HCTSIZ_DOPING;
1862:../Drivers/STM32L4xx_HAL_Driver/Src/stm32l4xx_ll_usb.c **** 
1863:../Drivers/STM32L4xx_HAL_Driver/Src/stm32l4xx_ll_usb.c ****   /* Set host channel enable */
1864:../Drivers/STM32L4xx_HAL_Driver/Src/stm32l4xx_ll_usb.c ****   tmpreg = USBx_HC(chnum)->HCCHAR;
 4641              		.loc 1 1864 3 is_stmt 1 view .LVU1494
 4642              		.loc 1 1864 10 is_stmt 0 view .LVU1495
 4643 000a D1F80035 		ldr	r3, [r1, #1280]
 4644              	.LVL355:
1865:../Drivers/STM32L4xx_HAL_Driver/Src/stm32l4xx_ll_usb.c ****   tmpreg &= ~USB_OTG_HCCHAR_CHDIS;
 4645              		.loc 1 1865 3 is_stmt 1 view .LVU1496
 4646              		.loc 1 1865 10 is_stmt 0 view .LVU1497
 4647 000e 23F08043 		bic	r3, r3, #1073741824
 4648              	.LVL356:
1866:../Drivers/STM32L4xx_HAL_Driver/Src/stm32l4xx_ll_usb.c ****   tmpreg |= USB_OTG_HCCHAR_CHENA;
 4649              		.loc 1 1866 3 is_stmt 1 view .LVU1498
 4650              		.loc 1 1866 10 is_stmt 0 view .LVU1499
 4651 0012 43F00043 		orr	r3, r3, #-2147483648
 4652              	.LVL357:
1867:../Drivers/STM32L4xx_HAL_Driver/Src/stm32l4xx_ll_usb.c ****   USBx_HC(chnum)->HCCHAR = tmpreg;
 4653              		.loc 1 1867 3 is_stmt 1 view .LVU1500
ARM GAS  /tmp/ccJzOZLR.s 			page 134


 4654              		.loc 1 1867 26 is_stmt 0 view .LVU1501
 4655 0016 C1F80035 		str	r3, [r1, #1280]
1868:../Drivers/STM32L4xx_HAL_Driver/Src/stm32l4xx_ll_usb.c **** 
1869:../Drivers/STM32L4xx_HAL_Driver/Src/stm32l4xx_ll_usb.c ****   return HAL_OK;
 4656              		.loc 1 1869 3 is_stmt 1 view .LVU1502
1870:../Drivers/STM32L4xx_HAL_Driver/Src/stm32l4xx_ll_usb.c **** }
 4657              		.loc 1 1870 1 is_stmt 0 view .LVU1503
 4658 001a 0020     		movs	r0, #0
 4659              	.LVL358:
 4660              		.loc 1 1870 1 view .LVU1504
 4661 001c 7047     		bx	lr
 4662              	.L288:
 4663 001e 00BF     		.align	2
 4664              	.L287:
 4665 0020 00000880 		.word	-2146959360
 4666              		.cfi_endproc
 4667              	.LFE177:
 4669              		.section	.text.USB_StopHost,"ax",%progbits
 4670              		.align	1
 4671              		.global	USB_StopHost
 4672              		.syntax unified
 4673              		.thumb
 4674              		.thumb_func
 4675              		.fpu fpv4-sp-d16
 4677              	USB_StopHost:
 4678              	.LVL359:
 4679              	.LFB178:
1871:../Drivers/STM32L4xx_HAL_Driver/Src/stm32l4xx_ll_usb.c **** 
1872:../Drivers/STM32L4xx_HAL_Driver/Src/stm32l4xx_ll_usb.c **** /**
1873:../Drivers/STM32L4xx_HAL_Driver/Src/stm32l4xx_ll_usb.c ****   * @brief  Stop Host Core
1874:../Drivers/STM32L4xx_HAL_Driver/Src/stm32l4xx_ll_usb.c ****   * @param  USBx  Selected device
1875:../Drivers/STM32L4xx_HAL_Driver/Src/stm32l4xx_ll_usb.c ****   * @retval HAL state
1876:../Drivers/STM32L4xx_HAL_Driver/Src/stm32l4xx_ll_usb.c ****   */
1877:../Drivers/STM32L4xx_HAL_Driver/Src/stm32l4xx_ll_usb.c **** HAL_StatusTypeDef USB_StopHost(USB_OTG_GlobalTypeDef *USBx)
1878:../Drivers/STM32L4xx_HAL_Driver/Src/stm32l4xx_ll_usb.c **** {
 4680              		.loc 1 1878 1 is_stmt 1 view -0
 4681              		.cfi_startproc
 4682              		@ args = 0, pretend = 0, frame = 8
 4683              		@ frame_needed = 0, uses_anonymous_args = 0
 4684              		.loc 1 1878 1 is_stmt 0 view .LVU1506
 4685 0000 30B5     		push	{r4, r5, lr}
 4686              	.LCFI63:
 4687              		.cfi_def_cfa_offset 12
 4688              		.cfi_offset 4, -12
 4689              		.cfi_offset 5, -8
 4690              		.cfi_offset 14, -4
 4691 0002 83B0     		sub	sp, sp, #12
 4692              	.LCFI64:
 4693              		.cfi_def_cfa_offset 24
 4694 0004 0446     		mov	r4, r0
1879:../Drivers/STM32L4xx_HAL_Driver/Src/stm32l4xx_ll_usb.c ****   HAL_StatusTypeDef ret = HAL_OK;
 4695              		.loc 1 1879 3 is_stmt 1 view .LVU1507
 4696              	.LVL360:
1880:../Drivers/STM32L4xx_HAL_Driver/Src/stm32l4xx_ll_usb.c ****   uint32_t USBx_BASE = (uint32_t)USBx;
 4697              		.loc 1 1880 3 view .LVU1508
1881:../Drivers/STM32L4xx_HAL_Driver/Src/stm32l4xx_ll_usb.c ****   __IO uint32_t count = 0U;
 4698              		.loc 1 1881 3 view .LVU1509
ARM GAS  /tmp/ccJzOZLR.s 			page 135


 4699              		.loc 1 1881 17 is_stmt 0 view .LVU1510
 4700 0006 0023     		movs	r3, #0
 4701 0008 0193     		str	r3, [sp, #4]
1882:../Drivers/STM32L4xx_HAL_Driver/Src/stm32l4xx_ll_usb.c ****   uint32_t value;
 4702              		.loc 1 1882 3 is_stmt 1 view .LVU1511
1883:../Drivers/STM32L4xx_HAL_Driver/Src/stm32l4xx_ll_usb.c ****   uint32_t i;
 4703              		.loc 1 1883 3 view .LVU1512
1884:../Drivers/STM32L4xx_HAL_Driver/Src/stm32l4xx_ll_usb.c **** 
1885:../Drivers/STM32L4xx_HAL_Driver/Src/stm32l4xx_ll_usb.c ****   (void)USB_DisableGlobalInt(USBx);
 4704              		.loc 1 1885 3 view .LVU1513
 4705              		.loc 1 1885 9 is_stmt 0 view .LVU1514
 4706 000a FFF7FEFF 		bl	USB_DisableGlobalInt
 4707              	.LVL361:
1886:../Drivers/STM32L4xx_HAL_Driver/Src/stm32l4xx_ll_usb.c **** 
1887:../Drivers/STM32L4xx_HAL_Driver/Src/stm32l4xx_ll_usb.c ****   /* Flush USB FIFO */
1888:../Drivers/STM32L4xx_HAL_Driver/Src/stm32l4xx_ll_usb.c ****   if (USB_FlushTxFifo(USBx, 0x10U) != HAL_OK) /* all Tx FIFOs */
 4708              		.loc 1 1888 3 is_stmt 1 view .LVU1515
 4709              		.loc 1 1888 7 is_stmt 0 view .LVU1516
 4710 000e 1021     		movs	r1, #16
 4711 0010 2046     		mov	r0, r4
 4712 0012 FFF7FEFF 		bl	USB_FlushTxFifo
 4713              	.LVL362:
 4714              		.loc 1 1888 6 view .LVU1517
 4715 0016 0546     		mov	r5, r0
 4716 0018 00B1     		cbz	r0, .L290
1889:../Drivers/STM32L4xx_HAL_Driver/Src/stm32l4xx_ll_usb.c ****   {
1890:../Drivers/STM32L4xx_HAL_Driver/Src/stm32l4xx_ll_usb.c ****     ret = HAL_ERROR;
 4717              		.loc 1 1890 9 view .LVU1518
 4718 001a 0125     		movs	r5, #1
 4719              	.L290:
 4720              	.LVL363:
1891:../Drivers/STM32L4xx_HAL_Driver/Src/stm32l4xx_ll_usb.c ****   }
1892:../Drivers/STM32L4xx_HAL_Driver/Src/stm32l4xx_ll_usb.c **** 
1893:../Drivers/STM32L4xx_HAL_Driver/Src/stm32l4xx_ll_usb.c ****   if (USB_FlushRxFifo(USBx) != HAL_OK)
 4721              		.loc 1 1893 3 is_stmt 1 view .LVU1519
 4722              		.loc 1 1893 7 is_stmt 0 view .LVU1520
 4723 001c 2046     		mov	r0, r4
 4724 001e FFF7FEFF 		bl	USB_FlushRxFifo
 4725              	.LVL364:
 4726              		.loc 1 1893 6 view .LVU1521
 4727 0022 00B1     		cbz	r0, .L291
1894:../Drivers/STM32L4xx_HAL_Driver/Src/stm32l4xx_ll_usb.c ****   {
1895:../Drivers/STM32L4xx_HAL_Driver/Src/stm32l4xx_ll_usb.c ****     ret = HAL_ERROR;
 4728              		.loc 1 1895 9 view .LVU1522
 4729 0024 0125     		movs	r5, #1
 4730              	.LVL365:
 4731              	.L291:
1896:../Drivers/STM32L4xx_HAL_Driver/Src/stm32l4xx_ll_usb.c ****   }
1897:../Drivers/STM32L4xx_HAL_Driver/Src/stm32l4xx_ll_usb.c **** 
1898:../Drivers/STM32L4xx_HAL_Driver/Src/stm32l4xx_ll_usb.c ****   /* Flush out any leftover queued requests. */
1899:../Drivers/STM32L4xx_HAL_Driver/Src/stm32l4xx_ll_usb.c ****   for (i = 0U; i <= 15U; i++)
 4732              		.loc 1 1899 3 is_stmt 1 view .LVU1523
 4733              		.loc 1 1899 10 is_stmt 0 view .LVU1524
 4734 0026 0022     		movs	r2, #0
 4735              		.loc 1 1899 3 view .LVU1525
 4736 0028 0AE0     		b	.L292
 4737              	.LVL366:
ARM GAS  /tmp/ccJzOZLR.s 			page 136


 4738              	.L293:
1900:../Drivers/STM32L4xx_HAL_Driver/Src/stm32l4xx_ll_usb.c ****   {
1901:../Drivers/STM32L4xx_HAL_Driver/Src/stm32l4xx_ll_usb.c ****     value = USBx_HC(i)->HCCHAR;
 4739              		.loc 1 1901 5 is_stmt 1 discriminator 3 view .LVU1526
 4740              		.loc 1 1901 13 is_stmt 0 discriminator 3 view .LVU1527
 4741 002a 04EB4211 		add	r1, r4, r2, lsl #5
 4742              		.loc 1 1901 11 discriminator 3 view .LVU1528
 4743 002e D1F80035 		ldr	r3, [r1, #1280]
 4744              	.LVL367:
1902:../Drivers/STM32L4xx_HAL_Driver/Src/stm32l4xx_ll_usb.c ****     value |=  USB_OTG_HCCHAR_CHDIS;
 4745              		.loc 1 1902 5 is_stmt 1 discriminator 3 view .LVU1529
1903:../Drivers/STM32L4xx_HAL_Driver/Src/stm32l4xx_ll_usb.c ****     value &= ~USB_OTG_HCCHAR_CHENA;
 4746              		.loc 1 1903 5 discriminator 3 view .LVU1530
1904:../Drivers/STM32L4xx_HAL_Driver/Src/stm32l4xx_ll_usb.c ****     value &= ~USB_OTG_HCCHAR_EPDIR;
 4747              		.loc 1 1904 5 discriminator 3 view .LVU1531
 4748 0032 23F08023 		bic	r3, r3, #-2147450880
 4749              	.LVL368:
 4750              		.loc 1 1904 11 is_stmt 0 discriminator 3 view .LVU1532
 4751 0036 43F08043 		orr	r3, r3, #1073741824
 4752              	.LVL369:
1905:../Drivers/STM32L4xx_HAL_Driver/Src/stm32l4xx_ll_usb.c ****     USBx_HC(i)->HCCHAR = value;
 4753              		.loc 1 1905 5 is_stmt 1 discriminator 3 view .LVU1533
 4754              		.loc 1 1905 24 is_stmt 0 discriminator 3 view .LVU1534
 4755 003a C1F80035 		str	r3, [r1, #1280]
1899:../Drivers/STM32L4xx_HAL_Driver/Src/stm32l4xx_ll_usb.c ****   {
 4756              		.loc 1 1899 26 is_stmt 1 discriminator 3 view .LVU1535
1899:../Drivers/STM32L4xx_HAL_Driver/Src/stm32l4xx_ll_usb.c ****   {
 4757              		.loc 1 1899 27 is_stmt 0 discriminator 3 view .LVU1536
 4758 003e 0132     		adds	r2, r2, #1
 4759              	.LVL370:
 4760              	.L292:
1899:../Drivers/STM32L4xx_HAL_Driver/Src/stm32l4xx_ll_usb.c ****   {
 4761              		.loc 1 1899 16 is_stmt 1 discriminator 1 view .LVU1537
1899:../Drivers/STM32L4xx_HAL_Driver/Src/stm32l4xx_ll_usb.c ****   {
 4762              		.loc 1 1899 3 is_stmt 0 discriminator 1 view .LVU1538
 4763 0040 0F2A     		cmp	r2, #15
 4764 0042 F2D9     		bls	.L293
1906:../Drivers/STM32L4xx_HAL_Driver/Src/stm32l4xx_ll_usb.c ****   }
1907:../Drivers/STM32L4xx_HAL_Driver/Src/stm32l4xx_ll_usb.c **** 
1908:../Drivers/STM32L4xx_HAL_Driver/Src/stm32l4xx_ll_usb.c ****   /* Halt all channels to put them into a known state. */
1909:../Drivers/STM32L4xx_HAL_Driver/Src/stm32l4xx_ll_usb.c ****   for (i = 0U; i <= 15U; i++)
 4765              		.loc 1 1909 10 view .LVU1539
 4766 0044 0021     		movs	r1, #0
 4767 0046 00E0     		b	.L294
 4768              	.LVL371:
 4769              	.L295:
 4770              		.loc 1 1909 26 is_stmt 1 discriminator 2 view .LVU1540
 4771              		.loc 1 1909 27 is_stmt 0 discriminator 2 view .LVU1541
 4772 0048 0131     		adds	r1, r1, #1
 4773              	.LVL372:
 4774              	.L294:
 4775              		.loc 1 1909 16 is_stmt 1 discriminator 1 view .LVU1542
 4776              		.loc 1 1909 3 is_stmt 0 discriminator 1 view .LVU1543
 4777 004a 0F29     		cmp	r1, #15
 4778 004c 16D8     		bhi	.L301
1910:../Drivers/STM32L4xx_HAL_Driver/Src/stm32l4xx_ll_usb.c ****   {
1911:../Drivers/STM32L4xx_HAL_Driver/Src/stm32l4xx_ll_usb.c ****     value = USBx_HC(i)->HCCHAR;
ARM GAS  /tmp/ccJzOZLR.s 			page 137


 4779              		.loc 1 1911 5 is_stmt 1 view .LVU1544
 4780              		.loc 1 1911 13 is_stmt 0 view .LVU1545
 4781 004e 04EB4110 		add	r0, r4, r1, lsl #5
 4782 0052 00F5A062 		add	r2, r0, #1280
 4783              		.loc 1 1911 11 view .LVU1546
 4784 0056 D0F80035 		ldr	r3, [r0, #1280]
 4785              	.LVL373:
1912:../Drivers/STM32L4xx_HAL_Driver/Src/stm32l4xx_ll_usb.c ****     value |= USB_OTG_HCCHAR_CHDIS;
 4786              		.loc 1 1912 5 is_stmt 1 view .LVU1547
1913:../Drivers/STM32L4xx_HAL_Driver/Src/stm32l4xx_ll_usb.c ****     value |= USB_OTG_HCCHAR_CHENA;
 4787              		.loc 1 1913 5 view .LVU1548
1914:../Drivers/STM32L4xx_HAL_Driver/Src/stm32l4xx_ll_usb.c ****     value &= ~USB_OTG_HCCHAR_EPDIR;
 4788              		.loc 1 1914 5 view .LVU1549
 4789 005a 23F40043 		bic	r3, r3, #32768
 4790              	.LVL374:
 4791              		.loc 1 1914 11 is_stmt 0 view .LVU1550
 4792 005e 43F04043 		orr	r3, r3, #-1073741824
 4793              	.LVL375:
1915:../Drivers/STM32L4xx_HAL_Driver/Src/stm32l4xx_ll_usb.c ****     USBx_HC(i)->HCCHAR = value;
 4794              		.loc 1 1915 5 is_stmt 1 view .LVU1551
 4795              		.loc 1 1915 24 is_stmt 0 view .LVU1552
 4796 0062 C0F80035 		str	r3, [r0, #1280]
 4797              	.LVL376:
 4798              	.L296:
1916:../Drivers/STM32L4xx_HAL_Driver/Src/stm32l4xx_ll_usb.c **** 
1917:../Drivers/STM32L4xx_HAL_Driver/Src/stm32l4xx_ll_usb.c ****     do
 4799              		.loc 1 1917 5 is_stmt 1 view .LVU1553
1918:../Drivers/STM32L4xx_HAL_Driver/Src/stm32l4xx_ll_usb.c ****     {
1919:../Drivers/STM32L4xx_HAL_Driver/Src/stm32l4xx_ll_usb.c ****       count++;
 4800              		.loc 1 1919 7 view .LVU1554
 4801              		.loc 1 1919 12 is_stmt 0 view .LVU1555
 4802 0066 019B     		ldr	r3, [sp, #4]
 4803 0068 0133     		adds	r3, r3, #1
 4804 006a 0193     		str	r3, [sp, #4]
1920:../Drivers/STM32L4xx_HAL_Driver/Src/stm32l4xx_ll_usb.c **** 
1921:../Drivers/STM32L4xx_HAL_Driver/Src/stm32l4xx_ll_usb.c ****       if (count > 1000U)
 4805              		.loc 1 1921 7 is_stmt 1 view .LVU1556
 4806              		.loc 1 1921 17 is_stmt 0 view .LVU1557
 4807 006c 019B     		ldr	r3, [sp, #4]
 4808              		.loc 1 1921 10 view .LVU1558
 4809 006e B3F57A7F 		cmp	r3, #1000
 4810 0072 E9D8     		bhi	.L295
1922:../Drivers/STM32L4xx_HAL_Driver/Src/stm32l4xx_ll_usb.c ****       {
1923:../Drivers/STM32L4xx_HAL_Driver/Src/stm32l4xx_ll_usb.c ****         break;
1924:../Drivers/STM32L4xx_HAL_Driver/Src/stm32l4xx_ll_usb.c ****       }
1925:../Drivers/STM32L4xx_HAL_Driver/Src/stm32l4xx_ll_usb.c ****     } while ((USBx_HC(i)->HCCHAR & USB_OTG_HCCHAR_CHENA) == USB_OTG_HCCHAR_CHENA);
 4811              		.loc 1 1925 13 is_stmt 1 view .LVU1559
 4812              		.loc 1 1925 25 is_stmt 0 view .LVU1560
 4813 0074 1368     		ldr	r3, [r2]
 4814              		.loc 1 1925 5 view .LVU1561
 4815 0076 002B     		cmp	r3, #0
 4816 0078 F5DB     		blt	.L296
 4817 007a E5E7     		b	.L295
 4818              	.L301:
1926:../Drivers/STM32L4xx_HAL_Driver/Src/stm32l4xx_ll_usb.c ****   }
1927:../Drivers/STM32L4xx_HAL_Driver/Src/stm32l4xx_ll_usb.c **** 
1928:../Drivers/STM32L4xx_HAL_Driver/Src/stm32l4xx_ll_usb.c ****   /* Clear any pending Host interrupts */
ARM GAS  /tmp/ccJzOZLR.s 			page 138


1929:../Drivers/STM32L4xx_HAL_Driver/Src/stm32l4xx_ll_usb.c ****   USBx_HOST->HAINT = 0xFFFFFFFFU;
 4819              		.loc 1 1929 3 is_stmt 1 view .LVU1562
 4820              		.loc 1 1929 20 is_stmt 0 view .LVU1563
 4821 007c 4FF0FF33 		mov	r3, #-1
 4822 0080 C4F81434 		str	r3, [r4, #1044]
1930:../Drivers/STM32L4xx_HAL_Driver/Src/stm32l4xx_ll_usb.c ****   USBx->GINTSTS = 0xFFFFFFFFU;
 4823              		.loc 1 1930 3 is_stmt 1 view .LVU1564
 4824              		.loc 1 1930 17 is_stmt 0 view .LVU1565
 4825 0084 6361     		str	r3, [r4, #20]
1931:../Drivers/STM32L4xx_HAL_Driver/Src/stm32l4xx_ll_usb.c **** 
1932:../Drivers/STM32L4xx_HAL_Driver/Src/stm32l4xx_ll_usb.c ****   (void)USB_EnableGlobalInt(USBx);
 4826              		.loc 1 1932 3 is_stmt 1 view .LVU1566
 4827              		.loc 1 1932 9 is_stmt 0 view .LVU1567
 4828 0086 2046     		mov	r0, r4
 4829 0088 FFF7FEFF 		bl	USB_EnableGlobalInt
 4830              	.LVL377:
1933:../Drivers/STM32L4xx_HAL_Driver/Src/stm32l4xx_ll_usb.c **** 
1934:../Drivers/STM32L4xx_HAL_Driver/Src/stm32l4xx_ll_usb.c ****   return ret;
 4831              		.loc 1 1934 3 is_stmt 1 view .LVU1568
1935:../Drivers/STM32L4xx_HAL_Driver/Src/stm32l4xx_ll_usb.c **** }
 4832              		.loc 1 1935 1 is_stmt 0 view .LVU1569
 4833 008c 2846     		mov	r0, r5
 4834 008e 03B0     		add	sp, sp, #12
 4835              	.LCFI65:
 4836              		.cfi_def_cfa_offset 12
 4837              		@ sp needed
 4838 0090 30BD     		pop	{r4, r5, pc}
 4839              		.loc 1 1935 1 view .LVU1570
 4840              		.cfi_endproc
 4841              	.LFE178:
 4843              		.section	.text.USB_ActivateRemoteWakeup,"ax",%progbits
 4844              		.align	1
 4845              		.global	USB_ActivateRemoteWakeup
 4846              		.syntax unified
 4847              		.thumb
 4848              		.thumb_func
 4849              		.fpu fpv4-sp-d16
 4851              	USB_ActivateRemoteWakeup:
 4852              	.LVL378:
 4853              	.LFB179:
1936:../Drivers/STM32L4xx_HAL_Driver/Src/stm32l4xx_ll_usb.c **** 
1937:../Drivers/STM32L4xx_HAL_Driver/Src/stm32l4xx_ll_usb.c **** /**
1938:../Drivers/STM32L4xx_HAL_Driver/Src/stm32l4xx_ll_usb.c ****   * @brief  USB_ActivateRemoteWakeup active remote wakeup signalling
1939:../Drivers/STM32L4xx_HAL_Driver/Src/stm32l4xx_ll_usb.c ****   * @param  USBx Selected device
1940:../Drivers/STM32L4xx_HAL_Driver/Src/stm32l4xx_ll_usb.c ****   * @retval HAL status
1941:../Drivers/STM32L4xx_HAL_Driver/Src/stm32l4xx_ll_usb.c ****   */
1942:../Drivers/STM32L4xx_HAL_Driver/Src/stm32l4xx_ll_usb.c **** HAL_StatusTypeDef USB_ActivateRemoteWakeup(USB_OTG_GlobalTypeDef *USBx)
1943:../Drivers/STM32L4xx_HAL_Driver/Src/stm32l4xx_ll_usb.c **** {
 4854              		.loc 1 1943 1 is_stmt 1 view -0
 4855              		.cfi_startproc
 4856              		@ args = 0, pretend = 0, frame = 0
 4857              		@ frame_needed = 0, uses_anonymous_args = 0
 4858              		@ link register save eliminated.
1944:../Drivers/STM32L4xx_HAL_Driver/Src/stm32l4xx_ll_usb.c ****   uint32_t USBx_BASE = (uint32_t)USBx;
 4859              		.loc 1 1944 3 view .LVU1572
1945:../Drivers/STM32L4xx_HAL_Driver/Src/stm32l4xx_ll_usb.c **** 
1946:../Drivers/STM32L4xx_HAL_Driver/Src/stm32l4xx_ll_usb.c ****   if ((USBx_DEVICE->DSTS & USB_OTG_DSTS_SUSPSTS) == USB_OTG_DSTS_SUSPSTS)
ARM GAS  /tmp/ccJzOZLR.s 			page 139


 4860              		.loc 1 1946 3 view .LVU1573
 4861              		.loc 1 1946 19 is_stmt 0 view .LVU1574
 4862 0000 D0F80838 		ldr	r3, [r0, #2056]
 4863              		.loc 1 1946 8 view .LVU1575
 4864 0004 00F50060 		add	r0, r0, #2048
 4865              	.LVL379:
 4866              		.loc 1 1946 6 view .LVU1576
 4867 0008 13F0010F 		tst	r3, #1
 4868 000c 03D0     		beq	.L303
1947:../Drivers/STM32L4xx_HAL_Driver/Src/stm32l4xx_ll_usb.c ****   {
1948:../Drivers/STM32L4xx_HAL_Driver/Src/stm32l4xx_ll_usb.c ****     /* active Remote wakeup signalling */
1949:../Drivers/STM32L4xx_HAL_Driver/Src/stm32l4xx_ll_usb.c ****     USBx_DEVICE->DCTL |= USB_OTG_DCTL_RWUSIG;
 4869              		.loc 1 1949 5 is_stmt 1 view .LVU1577
 4870              		.loc 1 1949 23 is_stmt 0 view .LVU1578
 4871 000e 4368     		ldr	r3, [r0, #4]
 4872 0010 43F00103 		orr	r3, r3, #1
 4873 0014 4360     		str	r3, [r0, #4]
 4874              	.L303:
1950:../Drivers/STM32L4xx_HAL_Driver/Src/stm32l4xx_ll_usb.c ****   }
1951:../Drivers/STM32L4xx_HAL_Driver/Src/stm32l4xx_ll_usb.c **** 
1952:../Drivers/STM32L4xx_HAL_Driver/Src/stm32l4xx_ll_usb.c ****   return HAL_OK;
 4875              		.loc 1 1952 3 is_stmt 1 view .LVU1579
1953:../Drivers/STM32L4xx_HAL_Driver/Src/stm32l4xx_ll_usb.c **** }
 4876              		.loc 1 1953 1 is_stmt 0 view .LVU1580
 4877 0016 0020     		movs	r0, #0
 4878              	.LVL380:
 4879              		.loc 1 1953 1 view .LVU1581
 4880 0018 7047     		bx	lr
 4881              		.cfi_endproc
 4882              	.LFE179:
 4884              		.section	.text.USB_DeActivateRemoteWakeup,"ax",%progbits
 4885              		.align	1
 4886              		.global	USB_DeActivateRemoteWakeup
 4887              		.syntax unified
 4888              		.thumb
 4889              		.thumb_func
 4890              		.fpu fpv4-sp-d16
 4892              	USB_DeActivateRemoteWakeup:
 4893              	.LVL381:
 4894              	.LFB180:
1954:../Drivers/STM32L4xx_HAL_Driver/Src/stm32l4xx_ll_usb.c **** 
1955:../Drivers/STM32L4xx_HAL_Driver/Src/stm32l4xx_ll_usb.c **** /**
1956:../Drivers/STM32L4xx_HAL_Driver/Src/stm32l4xx_ll_usb.c ****   * @brief  USB_DeActivateRemoteWakeup de-active remote wakeup signalling
1957:../Drivers/STM32L4xx_HAL_Driver/Src/stm32l4xx_ll_usb.c ****   * @param  USBx Selected device
1958:../Drivers/STM32L4xx_HAL_Driver/Src/stm32l4xx_ll_usb.c ****   * @retval HAL status
1959:../Drivers/STM32L4xx_HAL_Driver/Src/stm32l4xx_ll_usb.c ****   */
1960:../Drivers/STM32L4xx_HAL_Driver/Src/stm32l4xx_ll_usb.c **** HAL_StatusTypeDef USB_DeActivateRemoteWakeup(USB_OTG_GlobalTypeDef *USBx)
1961:../Drivers/STM32L4xx_HAL_Driver/Src/stm32l4xx_ll_usb.c **** {
 4895              		.loc 1 1961 1 is_stmt 1 view -0
 4896              		.cfi_startproc
 4897              		@ args = 0, pretend = 0, frame = 0
 4898              		@ frame_needed = 0, uses_anonymous_args = 0
 4899              		@ link register save eliminated.
1962:../Drivers/STM32L4xx_HAL_Driver/Src/stm32l4xx_ll_usb.c ****   uint32_t USBx_BASE = (uint32_t)USBx;
 4900              		.loc 1 1962 3 view .LVU1583
1963:../Drivers/STM32L4xx_HAL_Driver/Src/stm32l4xx_ll_usb.c **** 
1964:../Drivers/STM32L4xx_HAL_Driver/Src/stm32l4xx_ll_usb.c ****   /* active Remote wakeup signalling */
ARM GAS  /tmp/ccJzOZLR.s 			page 140


1965:../Drivers/STM32L4xx_HAL_Driver/Src/stm32l4xx_ll_usb.c ****   USBx_DEVICE->DCTL &= ~(USB_OTG_DCTL_RWUSIG);
 4901              		.loc 1 1965 3 view .LVU1584
 4902              		.loc 1 1965 21 is_stmt 0 view .LVU1585
 4903 0000 D0F80438 		ldr	r3, [r0, #2052]
 4904 0004 23F00103 		bic	r3, r3, #1
 4905 0008 C0F80438 		str	r3, [r0, #2052]
1966:../Drivers/STM32L4xx_HAL_Driver/Src/stm32l4xx_ll_usb.c **** 
1967:../Drivers/STM32L4xx_HAL_Driver/Src/stm32l4xx_ll_usb.c ****   return HAL_OK;
 4906              		.loc 1 1967 3 is_stmt 1 view .LVU1586
1968:../Drivers/STM32L4xx_HAL_Driver/Src/stm32l4xx_ll_usb.c **** }
 4907              		.loc 1 1968 1 is_stmt 0 view .LVU1587
 4908 000c 0020     		movs	r0, #0
 4909              	.LVL382:
 4910              		.loc 1 1968 1 view .LVU1588
 4911 000e 7047     		bx	lr
 4912              		.cfi_endproc
 4913              	.LFE180:
 4915              		.text
 4916              	.Letext0:
 4917              		.file 2 "/usr/lib/gcc/arm-none-eabi/10.3.1/include/stdint.h"
 4918              		.file 3 "../Drivers/CMSIS/Include/cmsis_gcc.h"
 4919              		.file 4 "../Drivers/CMSIS/Device/ST/STM32L4xx/Include/stm32l4a6xx.h"
 4920              		.file 5 "../Drivers/STM32L4xx_HAL_Driver/Inc/stm32l4xx_hal_def.h"
 4921              		.file 6 "../Drivers/STM32L4xx_HAL_Driver/Inc/stm32l4xx_ll_usb.h"
 4922              		.file 7 "../Drivers/STM32L4xx_HAL_Driver/Inc/stm32l4xx_hal.h"
ARM GAS  /tmp/ccJzOZLR.s 			page 141


DEFINED SYMBOLS
                            *ABS*:0000000000000000 stm32l4xx_ll_usb.c
     /tmp/ccJzOZLR.s:18     .text.USB_CoreReset:0000000000000000 $t
     /tmp/ccJzOZLR.s:25     .text.USB_CoreReset:0000000000000000 USB_CoreReset
     /tmp/ccJzOZLR.s:121    .text.USB_CoreReset:000000000000004c $d
     /tmp/ccJzOZLR.s:126    .text.USB_CoreInit:0000000000000000 $t
     /tmp/ccJzOZLR.s:133    .text.USB_CoreInit:0000000000000000 USB_CoreInit
     /tmp/ccJzOZLR.s:201    .text.USB_SetTurnaroundTime:0000000000000000 $t
     /tmp/ccJzOZLR.s:208    .text.USB_SetTurnaroundTime:0000000000000000 USB_SetTurnaroundTime
     /tmp/ccJzOZLR.s:388    .text.USB_SetTurnaroundTime:00000000000000a8 $d
     /tmp/ccJzOZLR.s:407    .text.USB_EnableGlobalInt:0000000000000000 $t
     /tmp/ccJzOZLR.s:414    .text.USB_EnableGlobalInt:0000000000000000 USB_EnableGlobalInt
     /tmp/ccJzOZLR.s:437    .text.USB_DisableGlobalInt:0000000000000000 $t
     /tmp/ccJzOZLR.s:444    .text.USB_DisableGlobalInt:0000000000000000 USB_DisableGlobalInt
     /tmp/ccJzOZLR.s:467    .text.USB_FlushTxFifo:0000000000000000 $t
     /tmp/ccJzOZLR.s:474    .text.USB_FlushTxFifo:0000000000000000 USB_FlushTxFifo
     /tmp/ccJzOZLR.s:572    .text.USB_FlushTxFifo:000000000000004c $d
     /tmp/ccJzOZLR.s:577    .text.USB_FlushRxFifo:0000000000000000 $t
     /tmp/ccJzOZLR.s:584    .text.USB_FlushRxFifo:0000000000000000 USB_FlushRxFifo
     /tmp/ccJzOZLR.s:678    .text.USB_FlushRxFifo:0000000000000048 $d
     /tmp/ccJzOZLR.s:683    .text.USB_SetDevSpeed:0000000000000000 $t
     /tmp/ccJzOZLR.s:690    .text.USB_SetDevSpeed:0000000000000000 USB_SetDevSpeed
     /tmp/ccJzOZLR.s:716    .text.USB_DevInit:0000000000000000 $t
     /tmp/ccJzOZLR.s:723    .text.USB_DevInit:0000000000000000 USB_DevInit
     /tmp/ccJzOZLR.s:1043   .text.USB_DevInit:0000000000000160 $d
     /tmp/ccJzOZLR.s:1048   .text.USB_GetDevSpeed:0000000000000000 $t
     /tmp/ccJzOZLR.s:1055   .text.USB_GetDevSpeed:0000000000000000 USB_GetDevSpeed
     /tmp/ccJzOZLR.s:1102   .text.USB_ActivateEndpoint:0000000000000000 $t
     /tmp/ccJzOZLR.s:1109   .text.USB_ActivateEndpoint:0000000000000000 USB_ActivateEndpoint
     /tmp/ccJzOZLR.s:1226   .text.USB_ActivateDedicatedEndpoint:0000000000000000 $t
     /tmp/ccJzOZLR.s:1233   .text.USB_ActivateDedicatedEndpoint:0000000000000000 USB_ActivateDedicatedEndpoint
     /tmp/ccJzOZLR.s:1358   .text.USB_DeactivateEndpoint:0000000000000000 $t
     /tmp/ccJzOZLR.s:1365   .text.USB_DeactivateEndpoint:0000000000000000 USB_DeactivateEndpoint
     /tmp/ccJzOZLR.s:1530   .text.USB_DeactivateEndpoint:00000000000000d8 $d
     /tmp/ccJzOZLR.s:1536   .text.USB_DeactivateDedicatedEndpoint:0000000000000000 $t
     /tmp/ccJzOZLR.s:1543   .text.USB_DeactivateDedicatedEndpoint:0000000000000000 USB_DeactivateDedicatedEndpoint
     /tmp/ccJzOZLR.s:1666   .text.USB_EP0StartXfer:0000000000000000 $t
     /tmp/ccJzOZLR.s:1673   .text.USB_EP0StartXfer:0000000000000000 USB_EP0StartXfer
     /tmp/ccJzOZLR.s:1872   .text.USB_EPStopXfer:0000000000000000 $t
     /tmp/ccJzOZLR.s:1879   .text.USB_EPStopXfer:0000000000000000 USB_EPStopXfer
     /tmp/ccJzOZLR.s:2037   .text.USB_WritePacket:0000000000000000 $t
     /tmp/ccJzOZLR.s:2044   .text.USB_WritePacket:0000000000000000 USB_WritePacket
     /tmp/ccJzOZLR.s:2107   .text.USB_EPStartXfer:0000000000000000 $t
     /tmp/ccJzOZLR.s:2114   .text.USB_EPStartXfer:0000000000000000 USB_EPStartXfer
     /tmp/ccJzOZLR.s:2418   .text.USB_EPStartXfer:00000000000001a8 $d
     /tmp/ccJzOZLR.s:2423   .text.USB_ReadPacket:0000000000000000 $t
     /tmp/ccJzOZLR.s:2430   .text.USB_ReadPacket:0000000000000000 USB_ReadPacket
     /tmp/ccJzOZLR.s:2540   .text.USB_EPSetStall:0000000000000000 $t
     /tmp/ccJzOZLR.s:2547   .text.USB_EPSetStall:0000000000000000 USB_EPSetStall
     /tmp/ccJzOZLR.s:2628   .text.USB_EPClearStall:0000000000000000 $t
     /tmp/ccJzOZLR.s:2635   .text.USB_EPClearStall:0000000000000000 USB_EPClearStall
     /tmp/ccJzOZLR.s:2718   .text.USB_StopDevice:0000000000000000 $t
     /tmp/ccJzOZLR.s:2725   .text.USB_StopDevice:0000000000000000 USB_StopDevice
     /tmp/ccJzOZLR.s:2808   .text.USB_SetDevAddress:0000000000000000 $t
     /tmp/ccJzOZLR.s:2815   .text.USB_SetDevAddress:0000000000000000 USB_SetDevAddress
     /tmp/ccJzOZLR.s:2850   .text.USB_DevConnect:0000000000000000 $t
     /tmp/ccJzOZLR.s:2857   .text.USB_DevConnect:0000000000000000 USB_DevConnect
ARM GAS  /tmp/ccJzOZLR.s 			page 142


     /tmp/ccJzOZLR.s:2886   .text.USB_DevDisconnect:0000000000000000 $t
     /tmp/ccJzOZLR.s:2893   .text.USB_DevDisconnect:0000000000000000 USB_DevDisconnect
     /tmp/ccJzOZLR.s:2922   .text.USB_ReadInterrupts:0000000000000000 $t
     /tmp/ccJzOZLR.s:2929   .text.USB_ReadInterrupts:0000000000000000 USB_ReadInterrupts
     /tmp/ccJzOZLR.s:2956   .text.USB_ReadDevAllOutEpInterrupt:0000000000000000 $t
     /tmp/ccJzOZLR.s:2963   .text.USB_ReadDevAllOutEpInterrupt:0000000000000000 USB_ReadDevAllOutEpInterrupt
     /tmp/ccJzOZLR.s:2996   .text.USB_ReadDevAllInEpInterrupt:0000000000000000 $t
     /tmp/ccJzOZLR.s:3003   .text.USB_ReadDevAllInEpInterrupt:0000000000000000 USB_ReadDevAllInEpInterrupt
     /tmp/ccJzOZLR.s:3036   .text.USB_ReadDevOutEPInterrupt:0000000000000000 $t
     /tmp/ccJzOZLR.s:3043   .text.USB_ReadDevOutEPInterrupt:0000000000000000 USB_ReadDevOutEPInterrupt
     /tmp/ccJzOZLR.s:3077   .text.USB_ReadDevInEPInterrupt:0000000000000000 $t
     /tmp/ccJzOZLR.s:3084   .text.USB_ReadDevInEPInterrupt:0000000000000000 USB_ReadDevInEPInterrupt
     /tmp/ccJzOZLR.s:3145   .text.USB_ClearInterrupts:0000000000000000 $t
     /tmp/ccJzOZLR.s:3152   .text.USB_ClearInterrupts:0000000000000000 USB_ClearInterrupts
     /tmp/ccJzOZLR.s:3171   .text.USB_GetMode:0000000000000000 $t
     /tmp/ccJzOZLR.s:3178   .text.USB_GetMode:0000000000000000 USB_GetMode
     /tmp/ccJzOZLR.s:3197   .text.USB_SetCurrentMode:0000000000000000 $t
     /tmp/ccJzOZLR.s:3204   .text.USB_SetCurrentMode:0000000000000000 USB_SetCurrentMode
     /tmp/ccJzOZLR.s:3321   .text.USB_ActivateSetup:0000000000000000 $t
     /tmp/ccJzOZLR.s:3328   .text.USB_ActivateSetup:0000000000000000 USB_ActivateSetup
     /tmp/ccJzOZLR.s:3358   .text.USB_EP0_OutStart:0000000000000000 $t
     /tmp/ccJzOZLR.s:3365   .text.USB_EP0_OutStart:0000000000000000 USB_EP0_OutStart
     /tmp/ccJzOZLR.s:3420   .text.USB_EP0_OutStart:0000000000000040 $d
     /tmp/ccJzOZLR.s:3425   .text.USB_HostInit:0000000000000000 $t
     /tmp/ccJzOZLR.s:3432   .text.USB_HostInit:0000000000000000 USB_HostInit
     /tmp/ccJzOZLR.s:3578   .text.USB_HostInit:0000000000000098 $d
     /tmp/ccJzOZLR.s:3584   .text.USB_InitFSLSPClkSel:0000000000000000 $t
     /tmp/ccJzOZLR.s:3591   .text.USB_InitFSLSPClkSel:0000000000000000 USB_InitFSLSPClkSel
     /tmp/ccJzOZLR.s:3647   .text.USB_ResetPort:0000000000000000 $t
     /tmp/ccJzOZLR.s:3654   .text.USB_ResetPort:0000000000000000 USB_ResetPort
     /tmp/ccJzOZLR.s:3723   .text.USB_DriveVbus:0000000000000000 $t
     /tmp/ccJzOZLR.s:3730   .text.USB_DriveVbus:0000000000000000 USB_DriveVbus
     /tmp/ccJzOZLR.s:3809   .text.USB_GetHostSpeed:0000000000000000 $t
     /tmp/ccJzOZLR.s:3816   .text.USB_GetHostSpeed:0000000000000000 USB_GetHostSpeed
     /tmp/ccJzOZLR.s:3854   .text.USB_GetCurrentFrame:0000000000000000 $t
     /tmp/ccJzOZLR.s:3861   .text.USB_GetCurrentFrame:0000000000000000 USB_GetCurrentFrame
     /tmp/ccJzOZLR.s:3884   .text.USB_HC_Init:0000000000000000 $t
     /tmp/ccJzOZLR.s:3891   .text.USB_HC_Init:0000000000000000 USB_HC_Init
     /tmp/ccJzOZLR.s:3933   .text.USB_HC_Init:0000000000000022 $d
     /tmp/ccJzOZLR.s:3937   .text.USB_HC_Init:0000000000000026 $t
     /tmp/ccJzOZLR.s:4119   .text.USB_HC_StartXfer:0000000000000000 $t
     /tmp/ccJzOZLR.s:4126   .text.USB_HC_StartXfer:0000000000000000 USB_HC_StartXfer
     /tmp/ccJzOZLR.s:4297   .text.USB_HC_StartXfer:00000000000000ce $d
     /tmp/ccJzOZLR.s:4302   .text.USB_HC_StartXfer:00000000000000d2 $t
     /tmp/ccJzOZLR.s:4388   .text.USB_HC_StartXfer:0000000000000120 $d
     /tmp/ccJzOZLR.s:4393   .text.USB_HC_ReadInterrupt:0000000000000000 $t
     /tmp/ccJzOZLR.s:4400   .text.USB_HC_ReadInterrupt:0000000000000000 USB_HC_ReadInterrupt
     /tmp/ccJzOZLR.s:4423   .text.USB_HC_Halt:0000000000000000 $t
     /tmp/ccJzOZLR.s:4430   .text.USB_HC_Halt:0000000000000000 USB_HC_Halt
     /tmp/ccJzOZLR.s:4616   .text.USB_DoPing:0000000000000000 $t
     /tmp/ccJzOZLR.s:4623   .text.USB_DoPing:0000000000000000 USB_DoPing
     /tmp/ccJzOZLR.s:4665   .text.USB_DoPing:0000000000000020 $d
     /tmp/ccJzOZLR.s:4670   .text.USB_StopHost:0000000000000000 $t
     /tmp/ccJzOZLR.s:4677   .text.USB_StopHost:0000000000000000 USB_StopHost
     /tmp/ccJzOZLR.s:4844   .text.USB_ActivateRemoteWakeup:0000000000000000 $t
     /tmp/ccJzOZLR.s:4851   .text.USB_ActivateRemoteWakeup:0000000000000000 USB_ActivateRemoteWakeup
     /tmp/ccJzOZLR.s:4885   .text.USB_DeActivateRemoteWakeup:0000000000000000 $t
ARM GAS  /tmp/ccJzOZLR.s 			page 143


     /tmp/ccJzOZLR.s:4892   .text.USB_DeActivateRemoteWakeup:0000000000000000 USB_DeActivateRemoteWakeup

UNDEFINED SYMBOLS
HAL_Delay
